///////////////////////////////////////////////////////////////////////////////
//                                                                            /
// IAR C/C++ Compiler V8.10.3.10338/W32 for 8051        08/Dec/2020  10:27:08 /
// Copyright 2004-2011 IAR Systems AB.                                        /
//                                                                            /
//    Core               =  plain                                             /
//    Code model         =  banked                                            /
//    Data model         =  large                                             /
//    Calling convention =  xdata reentrant                                   /
//    Constant location  =  data_rom                                          /
//    Dptr setup         =  1,16                                              /
//    Source file        =  C:\Users\Administrator\Desktop\SmartHomeApp\Compo /
//                          nents\hal\target\CC2530EB\hal_timer.c             /
//    Command line       =  -f C:\Users\Administrator\Desktop\SmartHomeApp\Pr /
//                          ojects\zstack\Samples\SmartHomeApp\CC2530DB\..\.. /
//                          \..\Tools\CC2530DB\f8wEndev.cfg (-DCPU32MHZ       /
//                          -DROOT=__near_func -DBLINK_LEDS) -f               /
//                          C:\Users\Administrator\Desktop\SmartHomeApp\Proje /
//                          cts\zstack\Samples\SmartHomeApp\CC2530DB\..\..\.. /
//                          \Tools\CC2530DB\f8wConfig.cfg (-DSECURE=0         /
//                          -DZG_SECURE_DYNAMIC=0 -DREFLECTOR                 /
//                          -DDEFAULT_CHANLIST=0x00000800                     /
//                          -DZDAPP_CONFIG_PAN_ID=0xFFF1                      /
//                          -DNWK_START_DELAY=100 -DEXTENDED_JOINING_RANDOM_M /
//                          ASK=0x007F -DBEACON_REQUEST_DELAY=100             /
//                          -DBEACON_REQ_DELAY_MASK=0x00FF                    /
//                          -DROUTE_EXPIRY_TIME=30 -DAPSC_ACK_WAIT_DURATION_P /
//                          OLLED=3000 -DNWK_INDIRECT_MSG_TIMEOUT=7           /
//                          -DMAX_RREQ_ENTRIES=8 -DAPSC_MAX_FRAME_RETRIES=3   /
//                          -DNWK_MAX_DATA_RETRIES=2                          /
//                          -DMAX_POLL_FAILURE_RETRIES=2 -DMAX_BCAST=9        /
//                          -DAPS_MAX_GROUPS=16 -DMAX_RTG_ENTRIES=40          /
//                          -DNWK_MAX_BINDING_ENTRIES=4                       /
//                          -DMAX_BINDING_CLUSTER_IDS=4                       /
//                          "-DDEFAULT_KEY={0x01, 0x03, 0x05, 0x07, 0x09,     /
//                          0x0B, 0x0D, 0x0F, 0x00, 0x02, 0x04, 0x06, 0x08,   /
//                          0x0A, 0x0C, 0x0D}" -DMAC_MAX_FRAME_SIZE=116       /
//                          "-DCONST=const __code" -DGENERIC=__generic        /
//                          -DRFD_RCVC_ALWAYS_ON=FALSE -DPOLL_RATE=1000       /
//                          -DQUEUED_POLL_RATE=100 -DRESPONSE_POLL_RATE=100)  /
//                          -DREJOIN_POLL_RATE=440 C:\Users\Administrator\Des /
//                          ktop\SmartHomeApp\Components\hal\target\CC2530EB\ /
//                          hal_timer.c -D ZIGBEEPRO -D NWK_AUTO_POLL -D      /
//                          ZTOOL_P1 -D xMT_TASK -D xMT_SYS_FUNC -D           /
//                          xMT_ZDO_FUNC -D LCD_SUPPORTED=DEBUG -D            /
//                          ENDDEVICE_DHT11 -lC C:\Users\Administrator\Deskto /
//                          p\SmartHomeApp\Projects\zstack\Samples\SmartHomeA /
//                          pp\CC2530DB\EndDevice_DHT11\List\ -lA             /
//                          C:\Users\Administrator\Desktop\SmartHomeApp\Proje /
//                          cts\zstack\Samples\SmartHomeApp\CC2530DB\EndDevic /
//                          e_DHT11\List\ --diag_suppress Pe001,Pa010 -o      /
//                          C:\Users\Administrator\Desktop\SmartHomeApp\Proje /
//                          cts\zstack\Samples\SmartHomeApp\CC2530DB\EndDevic /
//                          e_DHT11\Obj\ -e --debug --core=plain --dptr=16,1  /
//                          --data_model=large --code_model=banked            /
//                          --calling_convention=xdata_reentrant              /
//                          --place_constants=data_rom --nr_virtual_regs 16   /
//                          -I C:\Users\Administrator\Desktop\SmartHomeApp\Pr /
//                          ojects\zstack\Samples\SmartHomeApp\CC2530DB\ -I   /
//                          C:\Users\Administrator\Desktop\SmartHomeApp\Proje /
//                          cts\zstack\Samples\SmartHomeApp\CC2530DB\..\SOURC /
//                          E\ -I C:\Users\Administrator\Desktop\SmartHomeApp /
//                          \Projects\zstack\Samples\SmartHomeApp\CC2530DB\.. /
//                          \..\..\ZMAIN\TI2530DB\ -I                         /
//                          C:\Users\Administrator\Desktop\SmartHomeApp\Proje /
//                          cts\zstack\Samples\SmartHomeApp\CC2530DB\..\..\.. /
//                          \..\..\COMPONENTS\MT\ -I                          /
//                          C:\Users\Administrator\Desktop\SmartHomeApp\Proje /
//                          cts\zstack\Samples\SmartHomeApp\CC2530DB\..\..\.. /
//                          \..\..\COMPONENTS\HAL\INCLUDE\ -I                 /
//                          C:\Users\Administrator\Desktop\SmartHomeApp\Proje /
//                          cts\zstack\Samples\SmartHomeApp\CC2530DB\..\..\.. /
//                          \..\..\COMPONENTS\HAL\TARGET\CC2530EB\ -I         /
//                          C:\Users\Administrator\Desktop\SmartHomeApp\Proje /
//                          cts\zstack\Samples\SmartHomeApp\CC2530DB\..\..\.. /
//                          \..\..\COMPONENTS\OSAL\MCU\CCSOC\ -I              /
//                          C:\Users\Administrator\Desktop\SmartHomeApp\Proje /
//                          cts\zstack\Samples\SmartHomeApp\CC2530DB\..\..\.. /
//                          \..\..\COMPONENTS\OSAL\INCLUDE\ -I                /
//                          C:\Users\Administrator\Desktop\SmartHomeApp\Proje /
//                          cts\zstack\Samples\SmartHomeApp\CC2530DB\..\..\.. /
//                          \..\..\COMPONENTS\STACK\AF\ -I                    /
//                          C:\Users\Administrator\Desktop\SmartHomeApp\Proje /
//                          cts\zstack\Samples\SmartHomeApp\CC2530DB\..\..\.. /
//                          \..\..\COMPONENTS\STACK\NWK\ -I                   /
//                          C:\Users\Administrator\Desktop\SmartHomeApp\Proje /
//                          cts\zstack\Samples\SmartHomeApp\CC2530DB\..\..\.. /
//                          \..\..\COMPONENTS\STACK\SEC\ -I                   /
//                          C:\Users\Administrator\Desktop\SmartHomeApp\Proje /
//                          cts\zstack\Samples\SmartHomeApp\CC2530DB\..\..\.. /
//                          \..\..\COMPONENTS\STACK\SAPI\ -I                  /
//                          C:\Users\Administrator\Desktop\SmartHomeApp\Proje /
//                          cts\zstack\Samples\SmartHomeApp\CC2530DB\..\..\.. /
//                          \..\..\COMPONENTS\STACK\SYS\ -I                   /
//                          C:\Users\Administrator\Desktop\SmartHomeApp\Proje /
//                          cts\zstack\Samples\SmartHomeApp\CC2530DB\..\..\.. /
//                          \..\..\COMPONENTS\STACK\ZDO\ -I                   /
//                          C:\Users\Administrator\Desktop\SmartHomeApp\Proje /
//                          cts\zstack\Samples\SmartHomeApp\CC2530DB\..\..\.. /
//                          \..\..\COMPONENTS\ZMAC\F8W\ -I                    /
//                          C:\Users\Administrator\Desktop\SmartHomeApp\Proje /
//                          cts\zstack\Samples\SmartHomeApp\CC2530DB\..\..\.. /
//                          \..\..\COMPONENTS\ZMAC\ -I                        /
//                          C:\Users\Administrator\Desktop\SmartHomeApp\Proje /
//                          cts\zstack\Samples\SmartHomeApp\CC2530DB\..\..\.. /
//                          \..\..\COMPONENTS\SERVICES\SADDR\ -I              /
//                          C:\Users\Administrator\Desktop\SmartHomeApp\Proje /
//                          cts\zstack\Samples\SmartHomeApp\CC2530DB\..\..\.. /
//                          \..\..\COMPONENTS\SERVICES\SDATA\ -I              /
//                          C:\Users\Administrator\Desktop\SmartHomeApp\Proje /
//                          cts\zstack\Samples\SmartHomeApp\CC2530DB\..\..\.. /
//                          \..\..\COMPONENTS\MAC\INCLUDE\ -I                 /
//                          C:\Users\Administrator\Desktop\SmartHomeApp\Proje /
//                          cts\zstack\Samples\SmartHomeApp\CC2530DB\..\..\.. /
//                          \..\..\COMPONENTS\MAC\HIGH_LEVEL\ -I              /
//                          C:\Users\Administrator\Desktop\SmartHomeApp\Proje /
//                          cts\zstack\Samples\SmartHomeApp\CC2530DB\..\..\.. /
//                          \..\..\COMPONENTS\MAC\LOW_LEVEL\srf04\ -I         /
//                          C:\Users\Administrator\Desktop\SmartHomeApp\Proje /
//                          cts\zstack\Samples\SmartHomeApp\CC2530DB\..\..\.. /
//                          \..\..\COMPONENTS\MAC\LOW_LEVEL\srf04\SINGLE_CHIP /
//                          \ -Ohz                                            /
//    List file          =  C:\Users\Administrator\Desktop\SmartHomeApp\Proje /
//                          cts\zstack\Samples\SmartHomeApp\CC2530DB\EndDevic /
//                          e_DHT11\List\hal_timer.s51                        /
//                                                                            /
//                                                                            /
///////////////////////////////////////////////////////////////////////////////

        NAME hal_timer

        RTMODEL "__SystemLibrary", "CLib"
        RTMODEL "__calling_convention", "xdata_reentrant"
        RTMODEL "__code_model", "banked"
        RTMODEL "__core", "plain"
        RTMODEL "__data_model", "large"
        RTMODEL "__dptr_size", "16"
        RTMODEL "__extended_stack", "disabled"
        RTMODEL "__location_for_constants", "data"
        RTMODEL "__number_of_dptrs", "1"
        RTMODEL "__rt_version", "1"

        RSEG DOVERLAY:DATA:NOROOT(0)
        RSEG IOVERLAY:IDATA:NOROOT(0)
        RSEG ISTACK:IDATA:NOROOT(0)
        RSEG PSTACK:XDATA:NOROOT(0)
        RSEG XSTACK:XDATA:NOROOT(0)

        EXTERN ?BANKED_ENTER_XDATA
        EXTERN ?BANKED_LEAVE_XDATA
        EXTERN ?BDISPATCH
        EXTERN ?BRET
        EXTERN ?CALL_IND
        EXTERN ?INTERRUPT_ENTER_XSP
        EXTERN ?INTERRUPT_LEAVE_XSP
        EXTERN ?L_MUL
        EXTERN ?UL_DIV_MOD
        EXTERN ?V0
        EXTERN ?XSTACK_DISP0_8
        EXTERN __INIT_XDATA_Z

        PUBLIC ??HalTimerConfig?relay
        FUNCTION ??HalTimerConfig?relay,0203H
        PUBLIC ??HalTimerInit?relay
        FUNCTION ??HalTimerInit?relay,0203H
        PUBLIC ??HalTimerInterruptEnable?relay
        FUNCTION ??HalTimerInterruptEnable?relay,0203H
        PUBLIC ??HalTimerStart?relay
        FUNCTION ??HalTimerStart?relay,0203H
        PUBLIC ??HalTimerStop?relay
        FUNCTION ??HalTimerStop?relay,0203H
        PUBLIC ??HalTimerTick?relay
        FUNCTION ??HalTimerTick?relay,0203H
        PUBLIC ??halProcessTimer1?relay
        FUNCTION ??halProcessTimer1?relay,0203H
        PUBLIC ??halProcessTimer3?relay
        FUNCTION ??halProcessTimer3?relay,0203H
        PUBLIC ??halProcessTimer4?relay
        FUNCTION ??halProcessTimer4?relay,0203H
        PUBWEAK `??halTimer1Isr??INTVEC 75`
        PUBWEAK `??halTimer3Isr??INTVEC 91`
        PUBWEAK `??halTimer4Isr??INTVEC 99`
        PUBLIC ??halTimerRemap?relay
        FUNCTION ??halTimerRemap?relay,0203H
        PUBLIC ??halTimerSendCallBack?relay
        FUNCTION ??halTimerSendCallBack?relay,0203H
        PUBLIC ??halTimerSetChannelMode?relay
        FUNCTION ??halTimerSetChannelMode?relay,0203H
        PUBLIC ??halTimerSetCount?relay
        FUNCTION ??halTimerSetCount?relay,0203H
        PUBLIC ??halTimerSetOpMode?relay
        FUNCTION ??halTimerSetOpMode?relay,0203H
        PUBLIC ??halTimerSetPrescale?relay
        FUNCTION ??halTimerSetPrescale?relay,0203H
        PUBLIC HalTimerConfig
        FUNCTION HalTimerConfig,021203H
        ARGFRAME XSTACK, 2, STACK
        LOCFRAME ISTACK, 1, STACK
        LOCFRAME XSTACK, 13, STACK
        PUBLIC HalTimerInit
        FUNCTION HalTimerInit,0203H
        ARGFRAME XSTACK, 0, STACK
        LOCFRAME ISTACK, 2, STACK
        PUBLIC HalTimerInterruptEnable
        FUNCTION HalTimerInterruptEnable,0203H
        ARGFRAME XSTACK, 16, STACK
        ARGFRAME IOVERLAY, 0, STATIC
        ARGFRAME DOVERLAY, 0, STATIC
        LOCFRAME XSTACK, 11, STACK
        PUBLIC HalTimerStart
        FUNCTION HalTimerStart,021203H
        ARGFRAME XSTACK, 0, STACK
        LOCFRAME XSTACK, 16, STACK
        PUBLIC HalTimerStop
        FUNCTION HalTimerStop,021203H
        ARGFRAME XSTACK, 0, STACK
        LOCFRAME XSTACK, 9, STACK
        PUBLIC HalTimerTick
        FUNCTION HalTimerTick,021203H
        ARGFRAME XSTACK, 0, STACK
        LOCFRAME ISTACK, 2, STACK
        PUBWEAK T1CCTL0
        PUBWEAK T1CCTL1
        PUBWEAK T1CCTL2
        PUBWEAK T1CTL
        PUBWEAK T3CCTL0
        PUBWEAK T3CCTL1
        PUBWEAK T3CTL
        PUBWEAK T4CCTL0
        PUBWEAK T4CCTL1
        PUBWEAK T4CTL
        PUBWEAK _A_IEN1
        PUBWEAK _A_P0
        PUBWEAK _A_TIMIF
        PUBLIC halProcessTimer1
        FUNCTION halProcessTimer1,021203H
        ARGFRAME XSTACK, 0, STACK
        ARGFRAME IOVERLAY, 0, STATIC
        ARGFRAME DOVERLAY, 0, STATIC
        LOCFRAME ISTACK, 2, STACK
        PUBLIC halProcessTimer3
        FUNCTION halProcessTimer3,021203H
        ARGFRAME XSTACK, 14, STACK
        ARGFRAME IOVERLAY, 0, STATIC
        ARGFRAME DOVERLAY, 0, STATIC
        LOCFRAME ISTACK, 2, STACK
        PUBLIC halProcessTimer4
        FUNCTION halProcessTimer4,021203H
        ARGFRAME XSTACK, 14, STACK
        ARGFRAME IOVERLAY, 0, STATIC
        ARGFRAME DOVERLAY, 0, STATIC
        LOCFRAME ISTACK, 2, STACK
        PUBLIC halTimer1Isr
        FUNCTION halTimer1Isr,0233H
        ARGFRAME XSTACK, 0, STACK
        LOCFRAME ISTACK, 2, STACK
        PUBLIC halTimer3Isr
        FUNCTION halTimer3Isr,021233H
        ARGFRAME XSTACK, 0, STACK
        LOCFRAME XSTACK, 14, STACK
        PUBLIC halTimer4Isr
        FUNCTION halTimer4Isr,021233H
        ARGFRAME XSTACK, 0, STACK
        LOCFRAME XSTACK, 14, STACK
        PUBLIC halTimerRemap
        FUNCTION halTimerRemap,0203H
        ARGFRAME XSTACK, 16, STACK
        ARGFRAME IOVERLAY, 0, STATIC
        ARGFRAME DOVERLAY, 0, STATIC
        PUBLIC halTimerSendCallBack
        FUNCTION halTimerSendCallBack,021203H
        ARGFRAME XSTACK, 0, STACK
        ARGFRAME IOVERLAY, 0, STATIC
        ARGFRAME DOVERLAY, 0, STATIC
        LOCFRAME XSTACK, 9, STACK
        PUBLIC halTimerSetChannelMode
        FUNCTION halTimerSetChannelMode,0203H
        ARGFRAME XSTACK, 16, STACK
        ARGFRAME IOVERLAY, 0, STATIC
        ARGFRAME DOVERLAY, 0, STATIC
        LOCFRAME ISTACK, 2, STACK
        PUBLIC halTimerSetCount
        FUNCTION halTimerSetCount,0203H
        ARGFRAME XSTACK, 16, STACK
        ARGFRAME IOVERLAY, 0, STATIC
        ARGFRAME DOVERLAY, 0, STATIC
        LOCFRAME ISTACK, 1, STACK
        LOCFRAME XSTACK, 16, STACK
        PUBLIC halTimerSetOpMode
        FUNCTION halTimerSetOpMode,0203H
        ARGFRAME XSTACK, 16, STACK
        ARGFRAME IOVERLAY, 0, STATIC
        ARGFRAME DOVERLAY, 0, STATIC
        PUBLIC halTimerSetPrescale
        FUNCTION halTimerSetPrescale,0203H
        ARGFRAME XSTACK, 16, STACK
        ARGFRAME IOVERLAY, 0, STATIC
        ARGFRAME DOVERLAY, 0, STATIC
        
        CFI Names cfiNames0
        CFI StackFrame CFA_SP SP IDATA
        CFI StackFrame CFA_PSP16 PSP16 XDATA
        CFI StackFrame CFA_XSP16 XSP16 XDATA
        CFI StaticOverlayFrame CFA_IOVERLAY IOVERLAY
        CFI StaticOverlayFrame CFA_DOVERLAY DOVERLAY
        CFI Resource `PSW.CY`:1, `B.BR0`:1, `B.BR1`:1, `B.BR2`:1, `B.BR3`:1
        CFI Resource `B.BR4`:1, `B.BR5`:1, `B.BR6`:1, `B.BR7`:1, `VB.BR8`:1
        CFI Resource `VB.BR9`:1, `VB.BR10`:1, `VB.BR11`:1, `VB.BR12`:1
        CFI Resource `VB.BR13`:1, `VB.BR14`:1, `VB.BR15`:1, VB:8, B:8, A:8
        CFI Resource PSW:8, DPL0:8, DPH0:8, R0:8, R1:8, R2:8, R3:8, R4:8, R5:8
        CFI Resource R6:8, R7:8, V0:8, V1:8, V2:8, V3:8, V4:8, V5:8, V6:8, V7:8
        CFI Resource V8:8, V9:8, V10:8, V11:8, V12:8, V13:8, V14:8, V15:8, SP:8
        CFI Resource PSPH:8, PSPL:8, PSP16:16, XSPH:8, XSPL:8, XSP16:16
        CFI VirtualResource ?RET:24
        CFI Resource ?BRET_EXT:8
        CFI VirtualResource ?RET_HIGH:8, ?RET_LOW:8
        CFI ResourceParts PSP16 PSPH, PSPL
        CFI ResourceParts XSP16 XSPH, XSPL
        CFI ResourceParts ?RET ?BRET_EXT, ?RET_HIGH, ?RET_LOW
        CFI EndNames cfiNames0
        
        CFI Common cfiCommon0 Using cfiNames0
        CFI CodeAlign 1
        CFI DataAlign -1
        CFI ReturnAddress ?RET CODE
        CFI CFA_DOVERLAY Used
        CFI CFA_IOVERLAY Used
        CFI CFA_SP SP+-3
        CFI CFA_PSP16 PSP16+0
        CFI CFA_XSP16 XSP16+0
        CFI `PSW.CY` SameValue
        CFI `B.BR0` SameValue
        CFI `B.BR1` SameValue
        CFI `B.BR2` SameValue
        CFI `B.BR3` SameValue
        CFI `B.BR4` SameValue
        CFI `B.BR5` SameValue
        CFI `B.BR6` SameValue
        CFI `B.BR7` SameValue
        CFI `VB.BR8` SameValue
        CFI `VB.BR9` SameValue
        CFI `VB.BR10` SameValue
        CFI `VB.BR11` SameValue
        CFI `VB.BR12` SameValue
        CFI `VB.BR13` SameValue
        CFI `VB.BR14` SameValue
        CFI `VB.BR15` SameValue
        CFI VB SameValue
        CFI B Undefined
        CFI A Undefined
        CFI PSW SameValue
        CFI DPL0 SameValue
        CFI DPH0 SameValue
        CFI R0 Undefined
        CFI R1 Undefined
        CFI R2 Undefined
        CFI R3 Undefined
        CFI R4 Undefined
        CFI R5 Undefined
        CFI R6 SameValue
        CFI R7 SameValue
        CFI V0 SameValue
        CFI V1 SameValue
        CFI V2 SameValue
        CFI V3 SameValue
        CFI V4 SameValue
        CFI V5 SameValue
        CFI V6 SameValue
        CFI V7 SameValue
        CFI V8 SameValue
        CFI V9 SameValue
        CFI V10 SameValue
        CFI V11 SameValue
        CFI V12 SameValue
        CFI V13 SameValue
        CFI V14 SameValue
        CFI V15 SameValue
        CFI PSPH Undefined
        CFI PSPL Undefined
        CFI XSPH Undefined
        CFI XSPL Undefined
        CFI ?RET Concat
        CFI ?BRET_EXT Frame(CFA_SP, 3)
        CFI ?RET_HIGH Frame(CFA_SP, 2)
        CFI ?RET_LOW Frame(CFA_SP, 1)
        CFI EndCommon cfiCommon0
        
        
        CFI Common cfiCommon1 Using cfiNames0
        CFI CodeAlign 1
        CFI DataAlign -1
        CFI ReturnAddress ?RET CODE
        CFI CFA_DOVERLAY Used
        CFI CFA_IOVERLAY Used
        CFI CFA_SP SP+-2
        CFI CFA_PSP16 PSP16+0
        CFI CFA_XSP16 XSP16+0
        CFI `PSW.CY` SameValue
        CFI `B.BR0` SameValue
        CFI `B.BR1` SameValue
        CFI `B.BR2` SameValue
        CFI `B.BR3` SameValue
        CFI `B.BR4` SameValue
        CFI `B.BR5` SameValue
        CFI `B.BR6` SameValue
        CFI `B.BR7` SameValue
        CFI `VB.BR8` SameValue
        CFI `VB.BR9` SameValue
        CFI `VB.BR10` SameValue
        CFI `VB.BR11` SameValue
        CFI `VB.BR12` SameValue
        CFI `VB.BR13` SameValue
        CFI `VB.BR14` SameValue
        CFI `VB.BR15` SameValue
        CFI VB SameValue
        CFI B SameValue
        CFI A SameValue
        CFI PSW SameValue
        CFI DPL0 SameValue
        CFI DPH0 SameValue
        CFI R0 SameValue
        CFI R1 SameValue
        CFI R2 SameValue
        CFI R3 SameValue
        CFI R4 SameValue
        CFI R5 SameValue
        CFI R6 SameValue
        CFI R7 SameValue
        CFI V0 SameValue
        CFI V1 SameValue
        CFI V2 SameValue
        CFI V3 SameValue
        CFI V4 SameValue
        CFI V5 SameValue
        CFI V6 SameValue
        CFI V7 SameValue
        CFI V8 SameValue
        CFI V9 SameValue
        CFI V10 SameValue
        CFI V11 SameValue
        CFI V12 SameValue
        CFI V13 SameValue
        CFI V14 SameValue
        CFI V15 SameValue
        CFI PSPH Undefined
        CFI PSPL Undefined
        CFI XSPH Undefined
        CFI XSPL Undefined
        CFI ?RET Concat
        CFI ?BRET_EXT SameValue
        CFI ?RET_HIGH Frame(CFA_SP, 2)
        CFI ?RET_LOW Frame(CFA_SP, 1)
        CFI EndCommon cfiCommon1
        
HalTimerConfig      SYMBOL "HalTimerConfig"
??HalTimerConfig?relay SYMBOL "?relay", HalTimerConfig
HalTimerInit        SYMBOL "HalTimerInit"
??HalTimerInit?relay SYMBOL "?relay", HalTimerInit
HalTimerInterruptEnable SYMBOL "HalTimerInterruptEnable"
??HalTimerInterruptEnable?relay SYMBOL "?relay", HalTimerInterruptEnable
HalTimerStart       SYMBOL "HalTimerStart"
??HalTimerStart?relay SYMBOL "?relay", HalTimerStart
HalTimerStop        SYMBOL "HalTimerStop"
??HalTimerStop?relay SYMBOL "?relay", HalTimerStop
HalTimerTick        SYMBOL "HalTimerTick"
??HalTimerTick?relay SYMBOL "?relay", HalTimerTick
halProcessTimer1    SYMBOL "halProcessTimer1"
??halProcessTimer1?relay SYMBOL "?relay", halProcessTimer1
halProcessTimer3    SYMBOL "halProcessTimer3"
??halProcessTimer3?relay SYMBOL "?relay", halProcessTimer3
halProcessTimer4    SYMBOL "halProcessTimer4"
??halProcessTimer4?relay SYMBOL "?relay", halProcessTimer4
halTimer1Isr        SYMBOL "halTimer1Isr"
`??halTimer1Isr??INTVEC 75` SYMBOL "??INTVEC 75", halTimer1Isr
halTimer3Isr        SYMBOL "halTimer3Isr"
`??halTimer3Isr??INTVEC 91` SYMBOL "??INTVEC 91", halTimer3Isr
halTimer4Isr        SYMBOL "halTimer4Isr"
`??halTimer4Isr??INTVEC 99` SYMBOL "??INTVEC 99", halTimer4Isr
halTimerRemap       SYMBOL "halTimerRemap"
??halTimerRemap?relay SYMBOL "?relay", halTimerRemap
halTimerSendCallBack SYMBOL "halTimerSendCallBack"
??halTimerSendCallBack?relay SYMBOL "?relay", halTimerSendCallBack
halTimerSetChannelMode SYMBOL "halTimerSetChannelMode"
??halTimerSetChannelMode?relay SYMBOL "?relay", halTimerSetChannelMode
halTimerSetCount    SYMBOL "halTimerSetCount"
??halTimerSetCount?relay SYMBOL "?relay", halTimerSetCount
halTimerSetOpMode   SYMBOL "halTimerSetOpMode"
??halTimerSetOpMode?relay SYMBOL "?relay", halTimerSetOpMode
halTimerSetPrescale SYMBOL "halTimerSetPrescale"
??halTimerSetPrescale?relay SYMBOL "?relay", halTimerSetPrescale

// C:\Users\Administrator\Desktop\SmartHomeApp\Components\hal\target\CC2530EB\hal_timer.c
//    1 /**************************************************************************************************
//    2   Filename:       hal_timer.c
//    3   Revised:        $Date: 2009-03-12 16:25:22 -0700 (Thu, 12 Mar 2009) $
//    4   Revision:       $Revision: 19404 $
//    5 
//    6   Description:   This file contains the interface to the Timer Service.
//    7 
//    8 
//    9   Copyright 2006-2007 Texas Instruments Incorporated. All rights reserved.
//   10 
//   11   IMPORTANT: Your use of this Software is limited to those specific rights
//   12   granted under the terms of a software license agreement between the user
//   13   who downloaded the software, his/her employer (which must be your employer)
//   14   and Texas Instruments Incorporated (the "License").  You may not use this
//   15   Software unless you agree to abide by the terms of the License. The License
//   16   limits your use, and you acknowledge, that the Software may not be modified,
//   17   copied or distributed unless embedded on a Texas Instruments microcontroller
//   18   or used solely and exclusively in conjunction with a Texas Instruments radio
//   19   frequency transceiver, which is integrated into your product.  Other than for
//   20   the foregoing purpose, you may not use, reproduce, copy, prepare derivative
//   21   works of, modify, distribute, perform, display or sell this Software and/or
//   22   its documentation for any purpose.
//   23 
//   24   YOU FURTHER ACKNOWLEDGE AND AGREE THAT THE SOFTWARE AND DOCUMENTATION ARE
//   25   PROVIDED “AS IS” WITHOUT WARRANTY OF ANY KIND, EITHER EXPRESS OR IMPLIED,
//   26   INCLUDING WITHOUT LIMITATION, ANY WARRANTY OF MERCHANTABILITY, TITLE,
//   27   NON-INFRINGEMENT AND FITNESS FOR A PARTICULAR PURPOSE. IN NO EVENT SHALL
//   28   TEXAS INSTRUMENTS OR ITS LICENSORS BE LIABLE OR OBLIGATED UNDER CONTRACT,
//   29   NEGLIGENCE, STRICT LIABILITY, CONTRIBUTION, BREACH OF WARRANTY, OR OTHER
//   30   LEGAL EQUITABLE THEORY ANY DIRECT OR INDIRECT DAMAGES OR EXPENSES
//   31   INCLUDING BUT NOT LIMITED TO ANY INCIDENTAL, SPECIAL, INDIRECT, PUNITIVE
//   32   OR CONSEQUENTIAL DAMAGES, LOST PROFITS OR LOST DATA, COST OF PROCUREMENT
//   33   OF SUBSTITUTE GOODS, TECHNOLOGY, SERVICES, OR ANY CLAIMS BY THIRD PARTIES
//   34   (INCLUDING BUT NOT LIMITED TO ANY DEFENSE THEREOF), OR OTHER SIMILAR COSTS.
//   35 
//   36   Should you have any questions regarding your right to use this Software,
//   37   contact Texas Instruments Incorporated at www.TI.com.
//   38 **************************************************************************************************/
//   39 /*********************************************************************
//   40  NOTE: The following mapping is done between the logical timer
//   41        names defined in HAL_TIMER.H and the physical HW timer.
//   42 
//   43        HAL_TIMER_0 --> HW Timer 3  (8-bits)
//   44        HAL_TIMER_2 --> HW Timer 4  (8-bits)
//   45        HAL_TIMER_3 --> HW Timer 1  (16-bits)
//   46 
//   47  NOTE: The timer code assumes only one channel, CHANNEL 0, is used
//   48        for each timer.  There is currently no support for other
//   49        channels.
//   50 
//   51  NOTE: Only Output Compare Mode is supported.  There is no provision
//   52        to support Input Capture Mode.
//   53 
//   54  NOTE: There is no support to map the output of the timers to a
//   55        physical I/O pin
//   56 
//   57 *********************************************************************/
//   58 /*********************************************************************
//   59  * INCLUDES
//   60  */
//   61 #include  "hal_mcu.h"

        ASEGN SFR_AN:DATA:NOROOT,080H
// union <unnamed> volatile __sfr _A_P0
_A_P0:
        DATA8
        DS 1

        ASEGN SFR_AN:DATA:NOROOT,0b8H
// union <unnamed> volatile __sfr _A_IEN1
_A_IEN1:
        DATA8
        DS 1

        ASEGN SFR_AN:DATA:NOROOT,0cbH
// unsigned char volatile __sfr T3CTL
T3CTL:
        DATA8
        DS 1

        ASEGN SFR_AN:DATA:NOROOT,0ccH
// unsigned char volatile __sfr T3CCTL0
T3CCTL0:
        DATA8
        DS 1

        ASEGN SFR_AN:DATA:NOROOT,0ceH
// unsigned char volatile __sfr T3CCTL1
T3CCTL1:
        DATA8
        DS 1

        ASEGN SFR_AN:DATA:NOROOT,0d8H
// union <unnamed> volatile __sfr _A_TIMIF
_A_TIMIF:
        DATA8
        DS 1

        ASEGN SFR_AN:DATA:NOROOT,0e4H
// unsigned char volatile __sfr T1CTL
T1CTL:
        DATA8
        DS 1

        ASEGN SFR_AN:DATA:NOROOT,0e5H
// unsigned char volatile __sfr T1CCTL0
T1CCTL0:
        DATA8
        DS 1

        ASEGN SFR_AN:DATA:NOROOT,0e6H
// unsigned char volatile __sfr T1CCTL1
T1CCTL1:
        DATA8
        DS 1

        ASEGN SFR_AN:DATA:NOROOT,0e7H
// unsigned char volatile __sfr T1CCTL2
T1CCTL2:
        DATA8
        DS 1

        ASEGN SFR_AN:DATA:NOROOT,0ebH
// unsigned char volatile __sfr T4CTL
T4CTL:
        DATA8
        DS 1

        ASEGN SFR_AN:DATA:NOROOT,0ecH
// unsigned char volatile __sfr T4CCTL0
T4CCTL0:
        DATA8
        DS 1

        ASEGN SFR_AN:DATA:NOROOT,0eeH
// unsigned char volatile __sfr T4CCTL1
T4CCTL1:
        DATA8
        DS 1
//   62 #include  "hal_defs.h"
//   63 #include  "hal_types.h"
//   64 #include  "hal_timer.h"
//   65 #include  "hal_uart.h"
//   66 
//   67 /*********************************************************************
//   68  * MACROS
//   69  */
//   70 
//   71 /*********************************************************************
//   72  * CONSTANTS
//   73  */
//   74 #define HW_TIMER_1        0x00
//   75 #define HW_TIMER_3        0x01
//   76 #define HW_TIMER_4        0x02
//   77 #define HW_TIMER_INVALID  0x03
//   78 #define HW_TIMER_MAX      0x03
//   79 
//   80 #define IEN1_T1IE     0x02    /* Timer1 Interrupt Enable */
//   81 #define IEN1_T3IE     0x08    /* Timer3 Interrupt Enable */
//   82 #define IEN1_T4IE     0x10    /* Timer4 Interrupt Enable */
//   83 
//   84 #define T1CTL_CH2IF   0x80
//   85 #define T1CTL_CH1IF   0x40
//   86 #define T1CTL_CH0IF   0x20
//   87 #define T1CTL_OVFIF   0x10
//   88 
//   89 #define TIMIF_T1OVFIM 0x40
//   90 #define TIMIF_T4CH1IF 0x20
//   91 #define TIMIF_T4CH0IF 0x10
//   92 #define TIMIF_T4OVFIF 0x08
//   93 #define TIMIF_T3CH1IF 0x04
//   94 #define TIMIF_T3CH0IF 0x02
//   95 #define TIMIF_T3OVFIF 0x01
//   96 
//   97 #define T34CTL_OVFIM  0x80
//   98 
//   99 #define T134CCTL_IM         0x40    /* Interrupt Mask */
//  100 #define T134CCTL_CMP_BITS   0x38    /* Bits[5:3] == CMP[2:0] */
//  101 #define T134CCTL_MODE       0x04    /* Capture(0)/Compare(1) mode */
//  102 #define T134CCTL_CAP_BITS   0x03    /* Bits[1:0] == CAP[1:0] */
//  103 
//  104 #define T134CCTL_CMP_OC     0x18    /* Set output on compare, clear at 0 */
//  105 #define T134CCTL_CAP_RE     0x01    /* Set input capture on rising edge */
//  106 
//  107 /* Timer clock pre-scaler definitions for 16bit timer1 */
//  108 #define HAL_TIMER1_16_TC_DIV1     0x00  /* No clock pre-scaling */
//  109 #define HAL_TIMER1_16_TC_DIV8     0x04  /* Clock pre-scaled by 8 */
//  110 #define HAL_TIMER1_16_TC_DIV32    0x08  /* Clock pre-scaled by 32 */
//  111 #define HAL_TIMER1_16_TC_DIV128   0x0c  /* Clock pre-scaled by 128 */
//  112 #define HAL_TIMER1_16_TC_BITS     0x0c  /* Bits 3:2 */
//  113 
//  114 /* Timer clock pre-scaler definitions for 8bit timer3 and timer4 */
//  115 #define HAL_TIMER34_8_TC_DIV1     0x00  /* No clock pre-scaling */
//  116 #define HAL_TIMER34_8_TC_DIV2     0x20  /* Clock pre-scaled by 2 */
//  117 #define HAL_TIMER34_8_TC_DIV4     0x40  /* Clock pre-scaled by 4 */
//  118 #define HAL_TIMER34_8_TC_DIV8     0x60  /* Clock pre-scaled by 8 */
//  119 #define HAL_TIMER34_8_TC_DIV16    0x80  /* Clock pre-scaled by 16 */
//  120 #define HAL_TIMER34_8_TC_DIV32    0xA0  /* Clock pre-scaled by 32 */
//  121 #define HAL_TIMER34_8_TC_DIV64    0xC0  /* Clock pre-scaled by 64 */
//  122 #define HAL_TIMER34_8_TC_DIV128   0xE0  /* Clock pre-scaled by 128 */
//  123 #define HAL_TIMER34_8_TC_BITS     0xE0  /* Bits 7:5 */
//  124 
//  125 /* Operation Mode definitions */
//  126 #define HAL_TIMER1_OPMODE_STOP      0x00  /* Free Running Mode, Count from 0 to Max */
//  127 #define HAL_TIMER1_OPMODE_FREERUN   0x01  /* Free Running Mode, Count from 0 to Max */
//  128 #define HAL_TIMER1_OPMODE_MODULO    0x02  /* Modulo Mode, Count from 0 to CompareValue */
//  129 #define HAL_TIMER1_OPMODE_BITS      0x03  /* Bits 1:0 */
//  130 
//  131 #define HAL_TIMER34_START           0x10  /* Timer3 and Timer4 have separate Start bit */
//  132 #define HAL_TIMER34_OPMODE_FREERUN  0x00  /* Free Running Mode, Count from 0 to Max */
//  133 #define HAL_TIMER34_OPMODE_MODULO   0x02  /* Modulo Mode, Count from 0 to CompareValue */
//  134 #define HAL_TIMER34_OPMODE_BITS     0x03  /* Bits 1:0 */
//  135 
//  136 #define HAL_TIMER_MODE_STOP         0x03
//  137 
//  138 /* Prescale settings */
//  139 #define HAL_TIMER1_16_PRESCALE      HAL_TIMER1_16_TC_DIV128
//  140 #define HAL_TIMER1_16_PRESCALE_VAL  128
//  141 
//  142 #define HAL_TIMER1_16_PRESCALE_8     HAL_TIMER1_16_TC_DIV8
//  143 #define HAL_TIMER1_16_PRESCALE_8_VAL  8
//  144 
//  145 #define HAL_TIMER3_8_PRESCALE       HAL_TIMER34_8_TC_DIV128
//  146 #define HAL_TIMER3_8_PRESCALE_VAL   128
//  147 #define HAL_TIMER4_8_PRESCALE       HAL_TIMER34_8_TC_DIV128
//  148 #define HAL_TIMER4_8_PRESCALE_VAL   128
//  149 
//  150 /* Clock settings */
//  151 #define HAL_TIMER_16MHZ           16
//  152 #define HAL_TIMER_32MHZ           32
//  153 
//  154 /* Default all timers to use channel 0 */
//  155 #define TCHN_T1CCTL   &(X_T1CCTL0)
//  156 #define TCHN_T1CCL    &(X_T1CC0L)
//  157 #define TCHN_T1CCH    &(X_T1CC0H)
//  158 #define TCNH_T1OVF    &(X_TIMIF)
//  159 #define TCHN_T1OVFBIT TIMIF_T1OVFIM
//  160 #define TCHN_T1INTBIT IEN1_T1IE
//  161 
//  162 #define TCHN_T3CCTL   &(X_T3CCTL0)
//  163 #define TCHN_T3CCL    &(X_T3CC0)
//  164 #define TCHN_T3CCH    &(X_T3CC0)
//  165 #define TCNH_T3OVF    &(X_T3CTL)
//  166 #define TCHN_T3OVFBIT T34CTL_OVFIM
//  167 #define TCHN_T3INTBIT IEN1_T3IE
//  168 
//  169 #define TCHN_T4CCTL   &(X_T4CCTL0)
//  170 #define TCHN_T4CCL    &(X_T4CC0)
//  171 #define TCHN_T4CCH    &(X_T4CC0)
//  172 #define TCNH_T4OVF    &(X_T4CTL)
//  173 #define TCHN_T4OVFBIT T34CTL_OVFIM
//  174 #define TCHN_T4INTBIT IEN1_T4IE
//  175 
//  176  #define SHIRSendPin P0_7
//  177 /*********************************************************************
//  178  * TYPEDEFS
//  179  */
//  180 typedef struct
//  181 {
//  182   bool configured;
//  183   bool intEnable;
//  184   uint8 opMode;
//  185   uint8 channel;
//  186   uint8 channelMode;
//  187   uint8 prescale;
//  188   uint8 prescaleVal;
//  189   uint8 clock;
//  190   halTimerCBack_t callBackFunc;
//  191 } halTimerSettings_t;
//  192 
//  193 typedef struct
//  194 {
//  195   uint8 volatile XDATA *TxCCTL;
//  196   uint8 volatile XDATA *TxCCH;
//  197   uint8 volatile XDATA *TxCCL;
//  198   uint8 volatile XDATA *TxOVF;
//  199   uint8 ovfbit;
//  200   uint8 intbit;
//  201 } halTimerChannel_t;
//  202 
//  203 /*********************************************************************
//  204  * GLOBAL VARIABLES
//  205  */

        RSEG XDATA_Z:XDATA:NOROOT(0)
        DATA8
//  206 static halTimerSettings_t halTimerRecord[HW_TIMER_MAX];
halTimerRecord:
        DS 30
        REQUIRE __INIT_XDATA_Z

        RSEG XDATA_Z:XDATA:NOROOT(0)
        DATA8
//  207 static halTimerChannel_t  halTimerChannel[HW_TIMER_MAX];
halTimerChannel:
        DS 30
        REQUIRE __INIT_XDATA_Z
//  208 
//  209 /*********************************************************************
//  210  * FUNCTIONS - External
//  211  */
//  212 
//  213 /*********************************************************************
//  214  * FUNCTIONS - Local
//  215  */
//  216 uint8 halTimerSetCount (uint8 cc2430id, uint32 timePerTick);
//  217 uint8 halTimerSetPrescale (uint8 cc2430id, uint8 prescale);
//  218 uint8 halTimerSetOpMode (uint8 cc2430id, uint8 opMode);
//  219 uint8 halTimerSetChannelMode (uint8 cc2430id, uint8 channelMode);
//  220 void halTimerSendCallBack (uint8 timerId, uint8 channel, uint8 channelMode);
//  221 uint8 halTimerRemap (uint8 timerId);
//  222 void halProcessTimer1 (void);
//  223 void halProcessTimer3 (void);
//  224 void halProcessTimer4 (void);
//  225 
//  226 
//  227 /*********************************************************************
//  228  * FUNCTIONS - API
//  229  */
//  230 
//  231 /*********************************************************************
//  232  * @fn      HalTimerInit
//  233  *
//  234  * @brief   Initialize Timer Service
//  235  *
//  236  * @param   None
//  237  *
//  238  * @return  None
//  239  */

        RSEG BANKED_CODE:CODE:NOROOT(0)
//  240 void HalTimerInit (void)
HalTimerInit:
        CFI Block cfiBlock0 Using cfiCommon0
        CFI Function HalTimerInit
        CODE
//  241 {
        PUSH    DPL
        CFI DPL0 Frame(CFA_SP, 4)
        CFI CFA_SP SP+-4
        PUSH    DPH
        CFI DPH0 Frame(CFA_SP, 5)
        CFI CFA_SP SP+-5
        ; Saved register size: 2
        ; Auto size: 0
//  242   T1CCTL0 = 0;    /* Make sure interrupts are disabled */
        MOV     0xe5,#0x0
//  243   T1CCTL1 = 0;    /* Make sure interrupts are disabled */
        MOV     0xe6,#0x0
//  244   T1CCTL2 = 0;    /* Make sure interrupts are disabled */
        MOV     0xe7,#0x0
//  245   T3CCTL0 = 0;    /* Make sure interrupts are disabled */
        MOV     0xcc,#0x0
//  246   T3CCTL1 = 0;    /* Make sure interrupts are disabled */
        MOV     0xce,#0x0
//  247   T4CCTL0 = 0;    /* Make sure interrupts are disabled */
        MOV     0xec,#0x0
//  248   T4CCTL1 = 0;    /* Make sure interrupts are disabled */
        MOV     0xee,#0x0
//  249 
//  250   /* Setup prescale & clock for timer0 */
//  251   halTimerRecord[HW_TIMER_1].prescale    = 0x04;
        MOV     DPTR,#halTimerRecord + 5
        MOV     A,#0x4
        MOVX    @DPTR,A
//  252   halTimerRecord[HW_TIMER_1].clock       = HAL_TIMER_32MHZ;
        MOV     DPTR,#halTimerRecord + 7
        MOV     A,#0x20
        MOVX    @DPTR,A
//  253   halTimerRecord[HW_TIMER_1].prescaleVal = 8;
        MOV     DPTR,#halTimerRecord + 6
        MOV     A,#0x8
        MOVX    @DPTR,A
//  254 
//  255   /* Setup prescale & clock for timer2 */
//  256   halTimerRecord[HW_TIMER_3].prescale    = HAL_TIMER3_8_PRESCALE;
        MOV     DPTR,#halTimerRecord + 15
        MOV     A,#-0x20
        MOVX    @DPTR,A
//  257   halTimerRecord[HW_TIMER_3].clock       = HAL_TIMER_32MHZ;
        MOV     DPTR,#halTimerRecord + 17
        MOV     A,#0x20
        MOVX    @DPTR,A
//  258   halTimerRecord[HW_TIMER_3].prescaleVal = HAL_TIMER3_8_PRESCALE_VAL;
        MOV     DPTR,#halTimerRecord + 16
        MOV     A,#-0x80
        MOVX    @DPTR,A
//  259 
//  260   /* Setup prescale & clock for timer3 */
//  261   halTimerRecord[HW_TIMER_4].prescale    = HAL_TIMER4_8_PRESCALE;
        MOV     DPTR,#halTimerRecord + 25
        MOV     A,#-0x20
        MOVX    @DPTR,A
//  262   halTimerRecord[HW_TIMER_4].clock       = HAL_TIMER_32MHZ;
        MOV     DPTR,#halTimerRecord + 27
        MOV     A,#0x20
        MOVX    @DPTR,A
//  263   halTimerRecord[HW_TIMER_4].prescaleVal = HAL_TIMER4_8_PRESCALE_VAL;
        MOV     DPTR,#halTimerRecord + 26
        MOV     A,#-0x80
        MOVX    @DPTR,A
//  264 
//  265   /* Setup Timer1 Channel structure */
//  266   halTimerChannel[HW_TIMER_1].TxCCTL =  TCHN_T1CCTL;
        MOV     DPTR,#halTimerChannel
        MOV     A,#-0x1b
        LCALL   ??Subroutine15_0 & 0xFFFF
//  267   halTimerChannel[HW_TIMER_1].TxCCL =   TCHN_T1CCL;
??CrossCallReturnLabel_18:
        MOV     DPTR,#halTimerChannel + 4
        MOV     A,#-0x26
        LCALL   ??Subroutine15_0 & 0xFFFF
//  268   halTimerChannel[HW_TIMER_1].TxCCH =   TCHN_T1CCH;
??CrossCallReturnLabel_19:
        MOV     DPTR,#halTimerChannel + 2
        MOV     A,#-0x25
        LCALL   ??Subroutine15_0 & 0xFFFF
//  269   halTimerChannel[HW_TIMER_1].TxOVF =   TCNH_T1OVF;
??CrossCallReturnLabel_20:
        MOV     DPTR,#halTimerChannel + 6
        MOV     A,#-0x28
        LCALL   ??Subroutine15_0 & 0xFFFF
//  270   halTimerChannel[HW_TIMER_1].ovfbit =  TCHN_T1OVFBIT;
??CrossCallReturnLabel_21:
        INC     DPTR
        MOV     A,#0x40
        MOVX    @DPTR,A
//  271   halTimerChannel[HW_TIMER_1].intbit =  TCHN_T1INTBIT;
        INC     DPTR
        MOV     A,#0x2
        MOVX    @DPTR,A
//  272 
//  273   /* Setup Timer3 Channel structure */
//  274   halTimerChannel[HW_TIMER_3].TxCCTL =  TCHN_T3CCTL;
        INC     DPTR
        MOV     A,#-0x34
        LCALL   ??Subroutine15_0 & 0xFFFF
//  275   halTimerChannel[HW_TIMER_3].TxCCL =   TCHN_T3CCL;
??CrossCallReturnLabel_22:
        MOV     DPTR,#halTimerChannel + 14
        LCALL   ?Subroutine6 & 0xFFFF
//  276   halTimerChannel[HW_TIMER_3].TxCCH =   TCHN_T3CCH;
??CrossCallReturnLabel_26:
        MOV     DPTR,#halTimerChannel + 12
        LCALL   ?Subroutine6 & 0xFFFF
//  277   halTimerChannel[HW_TIMER_3].TxOVF =   TCNH_T3OVF;
??CrossCallReturnLabel_27:
        MOV     DPTR,#halTimerChannel + 16
        MOV     A,#-0x35
        LCALL   ?Subroutine5 & 0xFFFF
//  278   halTimerChannel[HW_TIMER_3].ovfbit =  TCHN_T3OVFBIT;
//  279   halTimerChannel[HW_TIMER_3].intbit =  TCHN_T3INTBIT;
??CrossCallReturnLabel_0:
        MOV     A,#0x8
        MOVX    @DPTR,A
//  280 
//  281   /* Setup Timer4 Channel structure */
//  282   halTimerChannel[HW_TIMER_4].TxCCTL =  TCHN_T4CCTL;
        INC     DPTR
        MOV     A,#-0x14
        LCALL   ??Subroutine15_0 & 0xFFFF
//  283   halTimerChannel[HW_TIMER_4].TxCCL =   TCHN_T4CCL;
??CrossCallReturnLabel_23:
        MOV     DPTR,#halTimerChannel + 24
        MOV     A,#-0x13
        LCALL   ??Subroutine15_0 & 0xFFFF
//  284   halTimerChannel[HW_TIMER_4].TxCCH =   TCHN_T4CCH;
??CrossCallReturnLabel_24:
        MOV     DPTR,#halTimerChannel + 22
        MOV     A,#-0x13
        LCALL   ??Subroutine15_0 & 0xFFFF
//  285   halTimerChannel[HW_TIMER_4].TxOVF =   TCNH_T4OVF;
??CrossCallReturnLabel_25:
        MOV     DPTR,#halTimerChannel + 26
        MOV     A,#-0x15
        LCALL   ?Subroutine5 & 0xFFFF
//  286   halTimerChannel[HW_TIMER_4].ovfbit =  TCHN_T4OVFBIT;
//  287   halTimerChannel[HW_TIMER_4].intbit =  TCHN_T4INTBIT;
??CrossCallReturnLabel_1:
        MOV     A,#0x10
        MOVX    @DPTR,A
//  288 }
        LJMP    ?Subroutine0 & 0xFFFF
        CFI EndBlock cfiBlock0
        REQUIRE T1CCTL0
        REQUIRE T1CCTL1
        REQUIRE T1CCTL2
        REQUIRE T3CCTL0
        REQUIRE T3CCTL1
        REQUIRE T4CCTL0
        REQUIRE T4CCTL1

        RSEG BANKED_CODE:CODE:NOROOT(0)
?Subroutine6:
        CFI Block cfiCond1 Using cfiCommon0
        CFI NoFunction
        CFI Conditional ??CrossCallReturnLabel_26
        CFI DPL0 Frame(CFA_SP, 4)
        CFI DPH0 Frame(CFA_SP, 5)
        CFI CFA_SP SP+-5
        CFI Block cfiCond2 Using cfiCommon0
        CFI (cfiCond2) NoFunction
        CFI (cfiCond2) Conditional ??CrossCallReturnLabel_27
        CFI (cfiCond2) DPL0 Frame(CFA_SP, 4)
        CFI (cfiCond2) DPH0 Frame(CFA_SP, 5)
        CFI (cfiCond2) CFA_SP SP+-5
        CFI Block cfiPicker3 Using cfiCommon1
        CFI (cfiPicker3) NoFunction
        CFI (cfiPicker3) Picker
        MOV     A,#-0x33
        CFI EndBlock cfiCond1
        CFI EndBlock cfiCond2
        CFI EndBlock cfiPicker3
        REQUIRE ??Subroutine15_0
        ; // Fall through to label ??Subroutine15_0

        RSEG BANKED_CODE:CODE:NOROOT(0)
??Subroutine15_0:
        CFI Block cfiCond4 Using cfiCommon0
        CFI NoFunction
        CFI Conditional ??CrossCallReturnLabel_18
        CFI DPL0 Frame(CFA_SP, 4)
        CFI DPH0 Frame(CFA_SP, 5)
        CFI CFA_SP SP+-5
        CFI Block cfiCond5 Using cfiCommon0
        CFI (cfiCond5) NoFunction
        CFI (cfiCond5) Conditional ??CrossCallReturnLabel_19
        CFI (cfiCond5) DPL0 Frame(CFA_SP, 4)
        CFI (cfiCond5) DPH0 Frame(CFA_SP, 5)
        CFI (cfiCond5) CFA_SP SP+-5
        CFI Block cfiCond6 Using cfiCommon0
        CFI (cfiCond6) NoFunction
        CFI (cfiCond6) Conditional ??CrossCallReturnLabel_20
        CFI (cfiCond6) DPL0 Frame(CFA_SP, 4)
        CFI (cfiCond6) DPH0 Frame(CFA_SP, 5)
        CFI (cfiCond6) CFA_SP SP+-5
        CFI Block cfiCond7 Using cfiCommon0
        CFI (cfiCond7) NoFunction
        CFI (cfiCond7) Conditional ??CrossCallReturnLabel_21
        CFI (cfiCond7) DPL0 Frame(CFA_SP, 4)
        CFI (cfiCond7) DPH0 Frame(CFA_SP, 5)
        CFI (cfiCond7) CFA_SP SP+-5
        CFI Block cfiCond8 Using cfiCommon0
        CFI (cfiCond8) NoFunction
        CFI (cfiCond8) Conditional ??CrossCallReturnLabel_22
        CFI (cfiCond8) DPL0 Frame(CFA_SP, 4)
        CFI (cfiCond8) DPH0 Frame(CFA_SP, 5)
        CFI (cfiCond8) CFA_SP SP+-5
        CFI Block cfiCond9 Using cfiCommon0
        CFI (cfiCond9) NoFunction
        CFI (cfiCond9) Conditional ??CrossCallReturnLabel_23
        CFI (cfiCond9) DPL0 Frame(CFA_SP, 4)
        CFI (cfiCond9) DPH0 Frame(CFA_SP, 5)
        CFI (cfiCond9) CFA_SP SP+-5
        CFI Block cfiCond10 Using cfiCommon0
        CFI (cfiCond10) NoFunction
        CFI (cfiCond10) Conditional ??CrossCallReturnLabel_24
        CFI (cfiCond10) DPL0 Frame(CFA_SP, 4)
        CFI (cfiCond10) DPH0 Frame(CFA_SP, 5)
        CFI (cfiCond10) CFA_SP SP+-5
        CFI Block cfiCond11 Using cfiCommon0
        CFI (cfiCond11) NoFunction
        CFI (cfiCond11) Conditional ??CrossCallReturnLabel_25
        CFI (cfiCond11) DPL0 Frame(CFA_SP, 4)
        CFI (cfiCond11) DPH0 Frame(CFA_SP, 5)
        CFI (cfiCond11) CFA_SP SP+-5
        CFI Block cfiCond12 Using cfiCommon0
        CFI (cfiCond12) NoFunction
        CFI (cfiCond12) Conditional ??CrossCallReturnLabel_26
        CFI (cfiCond12) DPL0 Frame(CFA_SP, 4)
        CFI (cfiCond12) DPH0 Frame(CFA_SP, 5)
        CFI (cfiCond12) CFA_SP SP+-5
        CFI Block cfiCond13 Using cfiCommon0
        CFI (cfiCond13) NoFunction
        CFI (cfiCond13) Conditional ??CrossCallReturnLabel_27
        CFI (cfiCond13) DPL0 Frame(CFA_SP, 4)
        CFI (cfiCond13) DPH0 Frame(CFA_SP, 5)
        CFI (cfiCond13) CFA_SP SP+-5
        CFI Block cfiPicker14 Using cfiCommon1
        CFI (cfiPicker14) NoFunction
        CFI (cfiPicker14) Picker
        MOVX    @DPTR,A
        INC     DPTR
        MOV     A,#0x70
        MOVX    @DPTR,A
        RET
        CFI EndBlock cfiCond4
        CFI EndBlock cfiCond5
        CFI EndBlock cfiCond6
        CFI EndBlock cfiCond7
        CFI EndBlock cfiCond8
        CFI EndBlock cfiCond9
        CFI EndBlock cfiCond10
        CFI EndBlock cfiCond11
        CFI EndBlock cfiCond12
        CFI EndBlock cfiCond13
        CFI EndBlock cfiPicker14

        RSEG BANKED_CODE:CODE:NOROOT(0)
?Subroutine5:
        CFI Block cfiCond15 Using cfiCommon0
        CFI NoFunction
        CFI Conditional ??CrossCallReturnLabel_0
        CFI DPL0 Frame(CFA_SP, 4)
        CFI DPH0 Frame(CFA_SP, 5)
        CFI CFA_SP SP+-5
        CFI Block cfiCond16 Using cfiCommon0
        CFI (cfiCond16) NoFunction
        CFI (cfiCond16) Conditional ??CrossCallReturnLabel_1
        CFI (cfiCond16) DPL0 Frame(CFA_SP, 4)
        CFI (cfiCond16) DPH0 Frame(CFA_SP, 5)
        CFI (cfiCond16) CFA_SP SP+-5
        CFI Block cfiPicker17 Using cfiCommon1
        CFI (cfiPicker17) NoFunction
        CFI (cfiPicker17) Picker
        MOVX    @DPTR,A
        INC     DPTR
        MOV     A,#0x70
        MOVX    @DPTR,A
        INC     DPTR
        MOV     A,#-0x80
        MOVX    @DPTR,A
        INC     DPTR
        RET
        CFI EndBlock cfiCond15
        CFI EndBlock cfiCond16
        CFI EndBlock cfiPicker17
//  289 
//  290 /***************************************************************************************************
//  291  * @fn      HalTimerConfig
//  292  *
//  293  * @brief   Configure the Timer Serivce
//  294  *
//  295  * @param   timerId - Id of the timer
//  296  *          opMode  - Operation mode
//  297  *          channel - Channel where the counter operates on
//  298  *          channelMode - Mode of that channel
//  299  *          prescale - Prescale of the clock
//  300  *          cBack - Pointer to the callback function
//  301  *
//  302  * @return  Status of the configuration
//  303  ***************************************************************************************************/

        RSEG BANKED_CODE:CODE:NOROOT(0)
//  304 uint8 HalTimerConfig (uint8 timerId, uint8 opMode, uint8 channel, uint8 channelMode,
HalTimerConfig:
        CFI Block cfiBlock18 Using cfiCommon0
        CFI Function HalTimerConfig
        CODE
//  305                       bool intEnable, halTimerCBack_t cBack)
//  306 {
        FUNCALL HalTimerConfig, halTimerRemap
        LOCFRAME ISTACK, 0, STACK
        LOCFRAME PSTACK, 0, STACK
        LOCFRAME XSTACK, 13, STACK
        LOCFRAME IOVERLAY, 0, STATIC
        LOCFRAME DOVERLAY, 0, STATIC
        ARGFRAME ISTACK, 0, STACK
        ARGFRAME PSTACK, 0, STACK
        ARGFRAME XSTACK, 13, STACK
        ARGFRAME IOVERLAY, 0, STATIC
        ARGFRAME DOVERLAY, 0, STATIC
        MOV     A,#-0xd
        LCALL   ?BANKED_ENTER_XDATA
        CFI DPH0 load(1, XDATA, add(CFA_XSP16, literal(-1)))
        CFI DPL0 load(1, XDATA, add(CFA_XSP16, literal(-2)))
        CFI ?BRET_EXT load(1, XDATA, add(CFA_XSP16, literal(-3)))
        CFI ?RET_HIGH load(1, XDATA, add(CFA_XSP16, literal(-4)))
        CFI ?RET_LOW load(1, XDATA, add(CFA_XSP16, literal(-5)))
        CFI R7 load(1, XDATA, add(CFA_XSP16, literal(-6)))
        CFI V4 load(1, XDATA, add(CFA_XSP16, literal(-7)))
        CFI V3 load(1, XDATA, add(CFA_XSP16, literal(-8)))
        CFI V2 load(1, XDATA, add(CFA_XSP16, literal(-9)))
        CFI V1 load(1, XDATA, add(CFA_XSP16, literal(-10)))
        CFI V0 load(1, XDATA, add(CFA_XSP16, literal(-11)))
        CFI VB load(1, XDATA, add(CFA_XSP16, literal(-12)))
        CFI R6 load(1, XDATA, add(CFA_XSP16, literal(-13)))
        CFI CFA_SP SP+0
        CFI CFA_XSP16 add(XSP16, 13)
        ; Saved register size: 13
        ; Auto size: 0
        MOV     ?V0 + 0,R1
        MOV     ?V0 + 1,R2
        MOV     ?V0 + 2,R3
        MOV     ?V0 + 3,R4
        MOV     ?V0 + 4,R5
        MOV     A,#0xd
        LCALL   ?XSTACK_DISP0_8
        MOVX    A,@DPTR
        MOV     R6,A
        INC     DPTR
        MOVX    A,@DPTR
        MOV     R7,A
//  307   uint8 hwtimerid;
//  308 
//  309   hwtimerid = halTimerRemap (timerId);
        ; Setup parameters for call to function halTimerRemap
        LCALL   ??halTimerRemap?relay
        MOV     A,R1
        MOV     R0,A
//  310 
//  311   if ((opMode & HAL_TIMER_MODE_MASK) && (timerId < HAL_TIMER_MAX) &&
//  312       (channelMode & HAL_TIMER_CHANNEL_MASK) && (channel & HAL_TIMER_CHANNEL_MASK))
        MOV     A,#0x3
        ANL     A,?V0 + 1
        JZ      ??HalTimerConfig_0
        MOV     A,?V0 + 0
        CLR     C
        SUBB    A,#0x4
        JNC     ??HalTimerConfig_0
        MOV     A,#0xf
        ANL     A,?V0 + 3
        JZ      ??HalTimerConfig_0
        MOV     A,#0xf
        ANL     A,?V0 + 2
        JZ      ??HalTimerConfig_0
//  313   {
//  314     halTimerRecord[hwtimerid].configured    = TRUE;
        MOV     A,R0
        MOV     B,#0xa
        MUL     AB
        MOV     R0,A
        MOV     R1,B
        MOV     A,#halTimerRecord & 0xff
        ADD     A,R0
        MOV     R0,A
        MOV     A,#(halTimerRecord >> 8) & 0xff
        ADDC    A,R1
        MOV     R1,A
        MOV     A,R0
        MOV     R2,A
        MOV     A,R1
        MOV     R3,A
        MOV     DPL,R2
        MOV     DPH,R3
        MOV     A,#0x1
        MOVX    @DPTR,A
//  315     halTimerRecord[hwtimerid].opMode        = opMode;
        INC     DPTR
        INC     DPTR
        MOV     A,?V0 + 1
        LCALL   ?Subroutine12 & 0xFFFF
//  316     halTimerRecord[hwtimerid].channel       = channel;
??CrossCallReturnLabel_14:
        MOV     A,?V0 + 2
        LCALL   ?Subroutine7 & 0xFFFF
//  317     halTimerRecord[hwtimerid].channelMode   = channelMode;
??CrossCallReturnLabel_2:
        MOV     A,?V0 + 3
        MOVX    @DPTR,A
//  318     halTimerRecord[hwtimerid].intEnable     = intEnable;
        MOV     DPL,R2
        MOV     DPH,R3
        INC     DPTR
        MOV     A,?V0 + 4
        MOVX    @DPTR,A
//  319     halTimerRecord[hwtimerid].callBackFunc  = cBack;
        MOV     A,R6
        MOV     R0,A
        MOV     A,R7
        MOV     R1,A
        MOV     DPL,R2
        MOV     DPH,R3
        INC     DPTR
        INC     DPTR
        INC     DPTR
        INC     DPTR
        INC     DPTR
        INC     DPTR
        INC     DPTR
        INC     DPTR
        MOV     A,R0
        MOVX    @DPTR,A
        INC     DPTR
        MOV     A,R1
        MOVX    @DPTR,A
//  320   }
//  321   else
//  322   {
//  323     return HAL_TIMER_PARAMS_ERROR;
//  324   }
//  325   return HAL_TIMER_OK;
        MOV     R1,#0x0
        SJMP    ??HalTimerConfig_1
??HalTimerConfig_0:
        MOV     R1,#0x2
??HalTimerConfig_1:
        MOV     R7,#0x5
        LJMP    ?BANKED_LEAVE_XDATA
        CFI EndBlock cfiBlock18
//  326 }
//  327 
//  328 
//  329 /***************************************************************************************************
//  330  * @fn      HalTimerStart
//  331  *
//  332  * @brief   Start the Timer Service
//  333  *
//  334  * @param   timerId      - ID of the timer
//  335  *          timerPerTick - number of micro sec per tick, (ticks x prescale) / clock = usec/tick
//  336  *
//  337  * @return  Status - OK or Not OK
//  338  ***************************************************************************************************/

        RSEG BANKED_CODE:CODE:NOROOT(0)
//  339 uint8 HalTimerStart (uint8 timerId, uint32 timePerTick)
HalTimerStart:
        CFI Block cfiBlock19 Using cfiCommon0
        CFI Function HalTimerStart
        CODE
//  340 {
        FUNCALL HalTimerStart, halTimerRemap
        LOCFRAME ISTACK, 0, STACK
        LOCFRAME PSTACK, 0, STACK
        LOCFRAME XSTACK, 16, STACK
        LOCFRAME IOVERLAY, 0, STATIC
        LOCFRAME DOVERLAY, 0, STATIC
        ARGFRAME ISTACK, 0, STACK
        ARGFRAME PSTACK, 0, STACK
        ARGFRAME XSTACK, 16, STACK
        ARGFRAME IOVERLAY, 0, STATIC
        ARGFRAME DOVERLAY, 0, STATIC
        FUNCALL HalTimerStart, halTimerSetCount
        LOCFRAME ISTACK, 0, STACK
        LOCFRAME PSTACK, 0, STACK
        LOCFRAME XSTACK, 16, STACK
        LOCFRAME IOVERLAY, 0, STATIC
        LOCFRAME DOVERLAY, 0, STATIC
        ARGFRAME ISTACK, 0, STACK
        ARGFRAME PSTACK, 0, STACK
        ARGFRAME XSTACK, 16, STACK
        ARGFRAME IOVERLAY, 0, STATIC
        ARGFRAME DOVERLAY, 0, STATIC
        FUNCALL HalTimerStart, halTimerSetPrescale
        LOCFRAME ISTACK, 0, STACK
        LOCFRAME PSTACK, 0, STACK
        LOCFRAME XSTACK, 16, STACK
        LOCFRAME IOVERLAY, 0, STATIC
        LOCFRAME DOVERLAY, 0, STATIC
        ARGFRAME ISTACK, 0, STACK
        ARGFRAME PSTACK, 0, STACK
        ARGFRAME XSTACK, 16, STACK
        ARGFRAME IOVERLAY, 0, STATIC
        ARGFRAME DOVERLAY, 0, STATIC
        FUNCALL HalTimerStart, halTimerSetOpMode
        LOCFRAME ISTACK, 0, STACK
        LOCFRAME PSTACK, 0, STACK
        LOCFRAME XSTACK, 16, STACK
        LOCFRAME IOVERLAY, 0, STATIC
        LOCFRAME DOVERLAY, 0, STATIC
        ARGFRAME ISTACK, 0, STACK
        ARGFRAME PSTACK, 0, STACK
        ARGFRAME XSTACK, 16, STACK
        ARGFRAME IOVERLAY, 0, STATIC
        ARGFRAME DOVERLAY, 0, STATIC
        FUNCALL HalTimerStart, halTimerSetChannelMode
        LOCFRAME ISTACK, 0, STACK
        LOCFRAME PSTACK, 0, STACK
        LOCFRAME XSTACK, 16, STACK
        LOCFRAME IOVERLAY, 0, STATIC
        LOCFRAME DOVERLAY, 0, STATIC
        ARGFRAME ISTACK, 0, STACK
        ARGFRAME PSTACK, 0, STACK
        ARGFRAME XSTACK, 16, STACK
        ARGFRAME IOVERLAY, 0, STATIC
        ARGFRAME DOVERLAY, 0, STATIC
        FUNCALL HalTimerStart, HalTimerInterruptEnable
        LOCFRAME ISTACK, 0, STACK
        LOCFRAME PSTACK, 0, STACK
        LOCFRAME XSTACK, 16, STACK
        LOCFRAME IOVERLAY, 0, STATIC
        LOCFRAME DOVERLAY, 0, STATIC
        ARGFRAME ISTACK, 0, STACK
        ARGFRAME PSTACK, 0, STACK
        ARGFRAME XSTACK, 16, STACK
        ARGFRAME IOVERLAY, 0, STATIC
        ARGFRAME DOVERLAY, 0, STATIC
        MOV     A,#-0x10
        LCALL   ?BANKED_ENTER_XDATA
        CFI DPH0 load(1, XDATA, add(CFA_XSP16, literal(-1)))
        CFI DPL0 load(1, XDATA, add(CFA_XSP16, literal(-2)))
        CFI ?BRET_EXT load(1, XDATA, add(CFA_XSP16, literal(-3)))
        CFI ?RET_HIGH load(1, XDATA, add(CFA_XSP16, literal(-4)))
        CFI ?RET_LOW load(1, XDATA, add(CFA_XSP16, literal(-5)))
        CFI R7 load(1, XDATA, add(CFA_XSP16, literal(-6)))
        CFI V7 load(1, XDATA, add(CFA_XSP16, literal(-7)))
        CFI V6 load(1, XDATA, add(CFA_XSP16, literal(-8)))
        CFI V5 load(1, XDATA, add(CFA_XSP16, literal(-9)))
        CFI V4 load(1, XDATA, add(CFA_XSP16, literal(-10)))
        CFI V3 load(1, XDATA, add(CFA_XSP16, literal(-11)))
        CFI V2 load(1, XDATA, add(CFA_XSP16, literal(-12)))
        CFI V1 load(1, XDATA, add(CFA_XSP16, literal(-13)))
        CFI V0 load(1, XDATA, add(CFA_XSP16, literal(-14)))
        CFI VB load(1, XDATA, add(CFA_XSP16, literal(-15)))
        CFI R6 load(1, XDATA, add(CFA_XSP16, literal(-16)))
        CFI CFA_SP SP+0
        CFI CFA_XSP16 add(XSP16, 16)
        ; Saved register size: 16
        ; Auto size: 0
        MOV     ?V0 + 4,R2
        MOV     ?V0 + 5,R3
        MOV     ?V0 + 6,R4
        MOV     ?V0 + 7,R5
//  341   uint8 hwtimerid;
//  342 
//  343   hwtimerid = halTimerRemap (timerId);
        ; Setup parameters for call to function halTimerRemap
        LCALL   ??halTimerRemap?relay
        MOV     A,R1
        MOV     ?V0 + 0,A
//  344 
//  345   if (halTimerRecord[hwtimerid].configured)
        MOV     B,#0xa
        MUL     AB
        MOV     R0,A
        MOV     R1,B
        MOV     A,#halTimerRecord & 0xff
        ADD     A,R0
        MOV     R0,A
        MOV     A,#(halTimerRecord >> 8) & 0xff
        ADDC    A,R1
        MOV     R1,A
        MOV     A,R0
        MOV     R6,A
        MOV     A,R1
        MOV     R7,A
        MOV     DPL,R6
        MOV     DPH,R7
        MOVX    A,@DPTR
        JZ      ??HalTimerStart_0
//  346   {
//  347     halTimerSetCount (hwtimerid, timePerTick);
        ; Setup parameters for call to function halTimerSetCount
        MOV     R2,?V0 + 4
        MOV     R3,?V0 + 5
        MOV     R4,?V0 + 6
        MOV     R5,?V0 + 7
        MOV     R1,?V0 + 0
        LCALL   ??halTimerSetCount?relay
//  348     halTimerSetPrescale (hwtimerid, halTimerRecord[hwtimerid].prescale);
        ; Setup parameters for call to function halTimerSetPrescale
        MOV     DPL,R6
        MOV     DPH,R7
        INC     DPTR
        INC     DPTR
        INC     DPTR
        INC     DPTR
        INC     DPTR
        MOVX    A,@DPTR
        MOV     R2,A
        MOV     R1,?V0 + 0
        LCALL   ??halTimerSetPrescale?relay
//  349     halTimerSetOpMode (hwtimerid, halTimerRecord[hwtimerid].opMode);
        ; Setup parameters for call to function halTimerSetOpMode
        MOV     DPL,R6
        MOV     DPH,R7
        INC     DPTR
        INC     DPTR
        MOVX    A,@DPTR
        MOV     R2,A
        MOV     R1,?V0 + 0
        LCALL   ??halTimerSetOpMode?relay
//  350     halTimerSetChannelMode (hwtimerid, halTimerRecord[hwtimerid].channelMode);
        MOV     A,R6
        ADD     A,#0x4
        MOV     R0,A
        MOV     A,R7
        ADDC    A,#0x0
        MOV     R1,A
        MOV     ?V0 + 2,R0
        MOV     ?V0 + 3,R1
        ; Setup parameters for call to function halTimerSetChannelMode
        MOV     DPL,R0
        MOV     DPH,A
        MOVX    A,@DPTR
        MOV     R2,A
        MOV     R1,?V0 + 0
        LCALL   ??halTimerSetChannelMode?relay
//  351 
//  352     if (hwtimerid == HW_TIMER_3)
        MOV     A,#0x1
        XRL     A,?V0 + 0
        JNZ     ??HalTimerStart_1
//  353     {
//  354       T3CTL |= HAL_TIMER34_START;
        ORL     0xcb,#0x10
        SJMP    ??HalTimerStart_2
//  355     }
//  356     if (hwtimerid == HW_TIMER_4)
??HalTimerStart_1:
        MOV     A,#0x2
        XRL     A,?V0 + 0
        JNZ     ??HalTimerStart_2
//  357     {
//  358       T4CTL |= HAL_TIMER34_START;
        ORL     0xeb,#0x10
//  359     }
//  360     HalTimerInterruptEnable (hwtimerid, halTimerRecord[hwtimerid].channelMode,
//  361                              halTimerRecord[hwtimerid].intEnable);
??HalTimerStart_2:
        ; Setup parameters for call to function HalTimerInterruptEnable
        MOV     DPL,R6
        MOV     DPH,R7
        INC     DPTR
        MOVX    A,@DPTR
        MOV     R3,A
        MOV     DPL,?V0 + 2
        MOV     DPH,?V0 + 3
        MOVX    A,@DPTR
        MOV     R2,A
        MOV     R1,?V0 + 0
        LCALL   ??HalTimerInterruptEnable?relay
//  362   }
//  363   else
//  364   {
//  365     return HAL_TIMER_NOT_CONFIGURED;
//  366   }
//  367   return HAL_TIMER_OK;
        MOV     R1,#0x0
        SJMP    ??HalTimerStart_3
??HalTimerStart_0:
        MOV     R1,#0x3
        CFI EndBlock cfiBlock19
??HalTimerStart_3:
        REQUIRE ?Subroutine1
        REQUIRE T3CTL
        REQUIRE T4CTL
        ; // Fall through to label ?Subroutine1
//  368 }

        RSEG BANKED_CODE:CODE:NOROOT(0)
?Subroutine1:
        CFI Block cfiBlock20 Using cfiCommon0
        CFI NoFunction
        CFI CFA_SP SP+0
        CFI CFA_XSP16 add(XSP16, 16)
        CFI VB load(1, XDATA, add(CFA_XSP16, literal(-15)))
        CFI DPL0 load(1, XDATA, add(CFA_XSP16, literal(-2)))
        CFI DPH0 load(1, XDATA, add(CFA_XSP16, literal(-1)))
        CFI R6 load(1, XDATA, add(CFA_XSP16, literal(-16)))
        CFI R7 load(1, XDATA, add(CFA_XSP16, literal(-6)))
        CFI V0 load(1, XDATA, add(CFA_XSP16, literal(-14)))
        CFI V1 load(1, XDATA, add(CFA_XSP16, literal(-13)))
        CFI V2 load(1, XDATA, add(CFA_XSP16, literal(-12)))
        CFI V3 load(1, XDATA, add(CFA_XSP16, literal(-11)))
        CFI V4 load(1, XDATA, add(CFA_XSP16, literal(-10)))
        CFI V5 load(1, XDATA, add(CFA_XSP16, literal(-9)))
        CFI V6 load(1, XDATA, add(CFA_XSP16, literal(-8)))
        CFI V7 load(1, XDATA, add(CFA_XSP16, literal(-7)))
        CFI ?BRET_EXT load(1, XDATA, add(CFA_XSP16, literal(-3)))
        CFI ?RET_HIGH load(1, XDATA, add(CFA_XSP16, literal(-4)))
        CFI ?RET_LOW load(1, XDATA, add(CFA_XSP16, literal(-5)))
        MOV     R7,#0x8
        LJMP    ?BANKED_LEAVE_XDATA
        CFI EndBlock cfiBlock20
//  369 
//  370 /***************************************************************************************************
//  371  * @fn      HalTimerTick
//  372  *
//  373  * @brief   Check the counter for expired counter.
//  374  *
//  375  * @param   None
//  376  *
//  377  * @return  None
//  378  ***************************************************************************************************/

        RSEG BANKED_CODE:CODE:NOROOT(0)
//  379 void HalTimerTick (void)
HalTimerTick:
        CFI Block cfiBlock21 Using cfiCommon0
        CFI Function HalTimerTick
        CODE
//  380 {
        FUNCALL HalTimerTick, halProcessTimer1
        LOCFRAME ISTACK, 2, STACK
        LOCFRAME PSTACK, 0, STACK
        LOCFRAME XSTACK, 0, STACK
        LOCFRAME IOVERLAY, 0, STATIC
        LOCFRAME DOVERLAY, 0, STATIC
        ARGFRAME ISTACK, 2, STACK
        ARGFRAME PSTACK, 0, STACK
        ARGFRAME XSTACK, 0, STACK
        ARGFRAME IOVERLAY, 0, STATIC
        ARGFRAME DOVERLAY, 0, STATIC
        FUNCALL HalTimerTick, halProcessTimer3
        LOCFRAME ISTACK, 2, STACK
        LOCFRAME PSTACK, 0, STACK
        LOCFRAME XSTACK, 0, STACK
        LOCFRAME IOVERLAY, 0, STATIC
        LOCFRAME DOVERLAY, 0, STATIC
        ARGFRAME ISTACK, 2, STACK
        ARGFRAME PSTACK, 0, STACK
        ARGFRAME XSTACK, 0, STACK
        ARGFRAME IOVERLAY, 0, STATIC
        ARGFRAME DOVERLAY, 0, STATIC
        FUNCALL HalTimerTick, halProcessTimer4
        LOCFRAME ISTACK, 2, STACK
        LOCFRAME PSTACK, 0, STACK
        LOCFRAME XSTACK, 0, STACK
        LOCFRAME IOVERLAY, 0, STATIC
        LOCFRAME DOVERLAY, 0, STATIC
        ARGFRAME ISTACK, 2, STACK
        ARGFRAME PSTACK, 0, STACK
        ARGFRAME XSTACK, 0, STACK
        ARGFRAME IOVERLAY, 0, STATIC
        ARGFRAME DOVERLAY, 0, STATIC
        PUSH    DPL
        CFI DPL0 Frame(CFA_SP, 4)
        CFI CFA_SP SP+-4
        PUSH    DPH
        CFI DPH0 Frame(CFA_SP, 5)
        CFI CFA_SP SP+-5
        ; Saved register size: 2
        ; Auto size: 0
//  381   if (!halTimerRecord[HW_TIMER_1].intEnable)
        MOV     DPTR,#halTimerRecord + 1
        MOVX    A,@DPTR
        JNZ     ??HalTimerTick_0
//  382   {
//  383     halProcessTimer1 ();
        ; Setup parameters for call to function halProcessTimer1
        LCALL   ??halProcessTimer1?relay
//  384   }
//  385 
//  386   if (!halTimerRecord[HW_TIMER_3].intEnable)
??HalTimerTick_0:
        MOV     DPTR,#halTimerRecord + 11
        MOVX    A,@DPTR
        JNZ     ??HalTimerTick_1
//  387   {
//  388     halProcessTimer3 ();
        ; Setup parameters for call to function halProcessTimer3
        LCALL   ??halProcessTimer3?relay
//  389   }
//  390 
//  391   if (!halTimerRecord[HW_TIMER_4].intEnable)
??HalTimerTick_1:
        MOV     DPTR,#halTimerRecord + 21
        MOVX    A,@DPTR
        JNZ     ??HalTimerTick_2
//  392   {
//  393     halProcessTimer4 ();
        ; Setup parameters for call to function halProcessTimer4
        LCALL   ??halProcessTimer4?relay
//  394   }
//  395 }
??HalTimerTick_2:
        LJMP    ?Subroutine0 & 0xFFFF
        CFI EndBlock cfiBlock21
//  396 
//  397 /***************************************************************************************************
//  398  * @fn      HalTimerStop
//  399  *
//  400  * @brief   Stop the Timer Service
//  401  *
//  402  * @param   timerId - ID of the timer
//  403  *
//  404  * @return  Status - OK or Not OK
//  405  ***************************************************************************************************/

        RSEG BANKED_CODE:CODE:NOROOT(0)
//  406 uint8 HalTimerStop (uint8 timerId)
HalTimerStop:
        CFI Block cfiBlock22 Using cfiCommon0
        CFI Function HalTimerStop
        CODE
//  407 {
        FUNCALL HalTimerStop, halTimerRemap
        LOCFRAME ISTACK, 0, STACK
        LOCFRAME PSTACK, 0, STACK
        LOCFRAME XSTACK, 9, STACK
        LOCFRAME IOVERLAY, 0, STATIC
        LOCFRAME DOVERLAY, 0, STATIC
        ARGFRAME ISTACK, 0, STACK
        ARGFRAME PSTACK, 0, STACK
        ARGFRAME XSTACK, 9, STACK
        ARGFRAME IOVERLAY, 0, STATIC
        ARGFRAME DOVERLAY, 0, STATIC
        FUNCALL HalTimerStop, halTimerSetOpMode
        LOCFRAME ISTACK, 0, STACK
        LOCFRAME PSTACK, 0, STACK
        LOCFRAME XSTACK, 9, STACK
        LOCFRAME IOVERLAY, 0, STATIC
        LOCFRAME DOVERLAY, 0, STATIC
        ARGFRAME ISTACK, 0, STACK
        ARGFRAME PSTACK, 0, STACK
        ARGFRAME XSTACK, 9, STACK
        ARGFRAME IOVERLAY, 0, STATIC
        ARGFRAME DOVERLAY, 0, STATIC
        MOV     A,#-0x9
        LCALL   ?BANKED_ENTER_XDATA
        CFI DPH0 load(1, XDATA, add(CFA_XSP16, literal(-1)))
        CFI DPL0 load(1, XDATA, add(CFA_XSP16, literal(-2)))
        CFI ?BRET_EXT load(1, XDATA, add(CFA_XSP16, literal(-3)))
        CFI ?RET_HIGH load(1, XDATA, add(CFA_XSP16, literal(-4)))
        CFI ?RET_LOW load(1, XDATA, add(CFA_XSP16, literal(-5)))
        CFI R7 load(1, XDATA, add(CFA_XSP16, literal(-6)))
        CFI V0 load(1, XDATA, add(CFA_XSP16, literal(-7)))
        CFI VB load(1, XDATA, add(CFA_XSP16, literal(-8)))
        CFI R6 load(1, XDATA, add(CFA_XSP16, literal(-9)))
        CFI CFA_SP SP+0
        CFI CFA_XSP16 add(XSP16, 9)
        ; Saved register size: 9
        ; Auto size: 0
//  408   uint8 hwtimerid;
//  409 
//  410   hwtimerid = halTimerRemap (timerId);
//  411 
//  412   switch (hwtimerid)
        ; Setup parameters for call to function halTimerRemap
        LCALL   ??halTimerRemap?relay
        MOV     A,R1
        JZ      ??HalTimerStop_0
        DEC     A
        JZ      ??HalTimerStop_1
        DEC     A
        JZ      ??HalTimerStop_2
        SJMP    ??HalTimerStop_3
//  413   {
//  414     case HW_TIMER_1:
//  415       halTimerSetOpMode(HW_TIMER_1, HAL_TIMER_MODE_STOP);
??HalTimerStop_0:
        ; Setup parameters for call to function halTimerSetOpMode
        MOV     R2,#0x3
        MOV     R1,#0x0
        LCALL   ??halTimerSetOpMode?relay
//  416       break;
//  417     case HW_TIMER_3:
//  418       T3CTL &= ~(HAL_TIMER34_START);
//  419       break;
//  420     case HW_TIMER_4:
//  421       T4CTL &= ~(HAL_TIMER34_START);
//  422       break;
//  423     default:
//  424       return HAL_TIMER_INVALID_ID;
//  425   }
//  426   return HAL_TIMER_OK;
??HalTimerStop_4:
        MOV     R1,#0x0
??HalTimerStop_5:
        LJMP    ?Subroutine2 & 0xFFFF
??HalTimerStop_1:
        ANL     0xcb,#0xef
        SJMP    ??HalTimerStop_4
??HalTimerStop_2:
        ANL     0xeb,#0xef
        SJMP    ??HalTimerStop_4
??HalTimerStop_3:
        MOV     R1,#0x4
        SJMP    ??HalTimerStop_5
        CFI EndBlock cfiBlock22
        REQUIRE T3CTL
        REQUIRE T4CTL
//  427 }
//  428 
//  429 /***************************************************************************************************
//  430  * @fn      halTimerSetCount
//  431  *
//  432  * @brief   Stop the Timer Service
//  433  *
//  434  * @param   hwtimerid - ID of the timer
//  435  *          timerPerTick - Number micro sec per ticks
//  436  *
//  437  * @return  Status - OK or Not OK
//  438  ***************************************************************************************************/

        RSEG BANKED_CODE:CODE:NOROOT(0)
//  439 uint8 halTimerSetCount (uint8 hwtimerid, uint32 timePerTick)
halTimerSetCount:
        CFI Block cfiBlock23 Using cfiCommon0
        CFI Function halTimerSetCount
        CODE
//  440 {
        MOV     A,#-0x10
        LCALL   ?BANKED_ENTER_XDATA
        CFI DPH0 load(1, XDATA, add(CFA_XSP16, literal(-1)))
        CFI DPL0 load(1, XDATA, add(CFA_XSP16, literal(-2)))
        CFI ?BRET_EXT load(1, XDATA, add(CFA_XSP16, literal(-3)))
        CFI ?RET_HIGH load(1, XDATA, add(CFA_XSP16, literal(-4)))
        CFI ?RET_LOW load(1, XDATA, add(CFA_XSP16, literal(-5)))
        CFI R7 load(1, XDATA, add(CFA_XSP16, literal(-6)))
        CFI V7 load(1, XDATA, add(CFA_XSP16, literal(-7)))
        CFI V6 load(1, XDATA, add(CFA_XSP16, literal(-8)))
        CFI V5 load(1, XDATA, add(CFA_XSP16, literal(-9)))
        CFI V4 load(1, XDATA, add(CFA_XSP16, literal(-10)))
        CFI V3 load(1, XDATA, add(CFA_XSP16, literal(-11)))
        CFI V2 load(1, XDATA, add(CFA_XSP16, literal(-12)))
        CFI V1 load(1, XDATA, add(CFA_XSP16, literal(-13)))
        CFI V0 load(1, XDATA, add(CFA_XSP16, literal(-14)))
        CFI VB load(1, XDATA, add(CFA_XSP16, literal(-15)))
        CFI R6 load(1, XDATA, add(CFA_XSP16, literal(-16)))
        CFI CFA_SP SP+0
        CFI CFA_XSP16 add(XSP16, 16)
        ; Saved register size: 16
        ; Auto size: 0
        MOV     A,R1
        MOV     ?V0 + 0,R2
        MOV     ?V0 + 1,R3
        MOV     ?V0 + 2,R4
        MOV     ?V0 + 3,R5
//  441   uint16  count;
//  442   uint8   high, low;
//  443 
//  444   /* Load count = ((sec/tick) x clock) / prescale */
//  445   count = (uint16)((timePerTick * halTimerRecord[hwtimerid].clock) / halTimerRecord[hwtimerid].prescaleVal);
        MOV     B,#0xa
        MUL     AB
        MOV     R2,A
        MOV     R3,B
        MOV     A,#halTimerRecord & 0xff
        ADD     A,R2
        MOV     R0,A
        MOV     A,#(halTimerRecord >> 8) & 0xff
        ADDC    A,R3
        MOV     R1,A
        MOV     A,R0
        MOV     R4,A
        MOV     A,R1
        MOV     R5,A
        MOV     DPL,R4
        MOV     DPH,R5
        INC     DPTR
        INC     DPTR
        INC     DPTR
        INC     DPTR
        INC     DPTR
        INC     DPTR
        INC     DPTR
        MOVX    A,@DPTR
        MOV     ?V0 + 4,A
        CLR     A
        MOV     ?V0 + 5,A
        MOV     ?V0 + 6,A
        MOV     ?V0 + 7,A
        MOV     R0,#?V0 + 0
        MOV     R1,#?V0 + 4
        LCALL   ?L_MUL
        MOV     DPL,R4
        MOV     DPH,R5
        INC     DPTR
        INC     DPTR
        INC     DPTR
        INC     DPTR
        INC     DPTR
        INC     DPTR
        MOVX    A,@DPTR
        MOV     ?V0 + 4,A
        MOV     R0,#?V0 + 0
        MOV     R1,#?V0 + 4
        LCALL   ?UL_DIV_MOD
//  446   high = (uint8) (count >> 8);
//  447   low = (uint8) count;
//  448 
//  449   *(halTimerChannel[hwtimerid].TxCCH) = high;
        MOV     A,#halTimerChannel & 0xff
        ADD     A,R2
        MOV     R0,A
        MOV     A,#(halTimerChannel >> 8) & 0xff
        ADDC    A,R3
        MOV     R1,A
        MOV     DPL,R0
        MOV     DPH,R1
        INC     DPTR
        INC     DPTR
        MOVX    A,@DPTR
        MOV     R2,A
        INC     DPTR
        MOVX    A,@DPTR
        MOV     DPH,A
        MOV     DPL,R2
        MOV     A,?V0 + 1
        MOVX    @DPTR,A
//  450   *(halTimerChannel[hwtimerid].TxCCL) = low;
        MOV     DPL,R0
        MOV     DPH,R1
        INC     DPTR
        INC     DPTR
        INC     DPTR
        INC     DPTR
        LCALL   ?Subroutine13 & 0xFFFF
??CrossCallReturnLabel_31:
        MOV     A,?V0 + 0
        MOVX    @DPTR,A
//  451 
//  452   return HAL_TIMER_OK;
        MOV     R1,#0x0
        LJMP    ?Subroutine1 & 0xFFFF
        CFI EndBlock cfiBlock23
//  453 }
//  454 
//  455 /***************************************************************************************************
//  456  * @fn      halTimerSetPrescale
//  457  *
//  458  * @brief   Stop the Timer Service
//  459  *
//  460  * @param   hwtimerid - ID of the timer
//  461  *          prescale - Prescale of the clock
//  462  *
//  463  * @return  Status - OK or Not OK
//  464  ***************************************************************************************************/

        RSEG BANKED_CODE:CODE:NOROOT(0)
//  465 uint8 halTimerSetPrescale (uint8 hwtimerid, uint8 prescale)
halTimerSetPrescale:
        CFI Block cfiBlock24 Using cfiCommon0
        CFI Function halTimerSetPrescale
        CODE
//  466 {
        ; Saved register size: 0
        ; Auto size: 0
        MOV     A,R1
//  467   switch (hwtimerid)
        JZ      ??halTimerSetPrescale_0
        DEC     A
        JZ      ??halTimerSetPrescale_1
        DEC     A
        JZ      ??halTimerSetPrescale_2
        SJMP    ??halTimerSetPrescale_3
//  468   {
//  469     case HW_TIMER_1:
//  470       T1CTL &= ~(HAL_TIMER1_16_TC_BITS);
??halTimerSetPrescale_0:
        ANL     0xe4,#0xf3
//  471       T1CTL |= prescale;
        MOV     A,R2
        ORL     0xe4,A
//  472       break;
//  473     case HW_TIMER_3:
//  474       T3CTL &= ~(HAL_TIMER34_8_TC_BITS);
//  475       T3CTL |= prescale;
//  476       break;
//  477     case HW_TIMER_4:
//  478       T4CTL &= ~(HAL_TIMER34_8_TC_BITS);
//  479       T4CTL |= prescale;
//  480       break;
//  481     default:
//  482       return HAL_TIMER_INVALID_ID;
//  483   }
//  484   return HAL_TIMER_OK;
??halTimerSetPrescale_4:
        MOV     R1,#0x0
??halTimerSetPrescale_5:
        LJMP    ?BRET
??halTimerSetPrescale_1:
        ANL     0xcb,#0x1f
        MOV     A,R2
        ORL     0xcb,A
        SJMP    ??halTimerSetPrescale_4
??halTimerSetPrescale_2:
        ANL     0xeb,#0x1f
        MOV     A,R2
        ORL     0xeb,A
        SJMP    ??halTimerSetPrescale_4
??halTimerSetPrescale_3:
        MOV     R1,#0x4
        SJMP    ??halTimerSetPrescale_5
        CFI EndBlock cfiBlock24
        REQUIRE T1CTL
        REQUIRE T3CTL
        REQUIRE T4CTL
//  485 }
//  486 
//  487 /***************************************************************************************************
//  488  * @fn      halTimerSetOpMode
//  489  *
//  490  * @brief   Setup operate modes
//  491  *
//  492  * @param   hwtimerid - ID of the timer
//  493  *          opMode - operation mode of the timer
//  494  *
//  495  * @return  Status - OK or Not OK
//  496  ***************************************************************************************************/

        RSEG BANKED_CODE:CODE:NOROOT(0)
//  497 uint8 halTimerSetOpMode (uint8 hwtimerid, uint8 opMode)
halTimerSetOpMode:
        CFI Block cfiBlock25 Using cfiCommon0
        CFI Function halTimerSetOpMode
        CODE
//  498 {
        ; Saved register size: 0
        ; Auto size: 0
        MOV     A,R1
        MOV     R0,A
//  499   /* Load Waveform Generation Mode */
//  500   switch (opMode)
        MOV     A,R2
        DEC     A
        JZ      ??halTimerSetOpMode_0
        DEC     A
        JZ      ??halTimerSetOpMode_1
        DEC     A
        JZ      ??halTimerSetOpMode_2
        SJMP    ??halTimerSetOpMode_3
//  501   {
//  502     case HAL_TIMER_MODE_NORMAL:
//  503       switch (hwtimerid)
??halTimerSetOpMode_0:
        MOV     A,R0
        JZ      ??halTimerSetOpMode_4
        DEC     A
        JZ      ??halTimerSetOpMode_5
        DEC     A
        JZ      ??halTimerSetOpMode_6
        SJMP    ??halTimerSetOpMode_7
//  504       {
//  505         case HW_TIMER_1:
//  506           T1CTL &= ~(HAL_TIMER1_OPMODE_BITS);
??halTimerSetOpMode_4:
        ANL     0xe4,#0xfc
//  507           T1CTL |= HAL_TIMER1_OPMODE_FREERUN;
        ORL     0xe4,#0x1
//  508           break;
//  509         case HW_TIMER_3:
//  510           T3CTL &= ~(HAL_TIMER34_OPMODE_BITS);
//  511           T3CTL |= HAL_TIMER34_OPMODE_FREERUN;
//  512           break;
//  513         case HW_TIMER_4:
//  514           T4CTL &= ~(HAL_TIMER34_OPMODE_BITS);
//  515           T4CTL |= HAL_TIMER34_OPMODE_FREERUN;
//  516           break;
//  517         default:
//  518           return HAL_TIMER_INVALID_ID;
//  519       }
//  520       break;
//  521 
//  522     case HAL_TIMER_MODE_CTC:
//  523       switch (hwtimerid)
//  524       {
//  525         case HW_TIMER_1:
//  526           T1CTL &= ~(HAL_TIMER1_OPMODE_BITS);
//  527           T1CTL |= HAL_TIMER1_OPMODE_MODULO;
//  528           break;
//  529         case HW_TIMER_3:
//  530           T3CTL &= ~(HAL_TIMER34_OPMODE_BITS);
//  531           T3CTL |= HAL_TIMER34_OPMODE_MODULO;
//  532           break;
//  533         case HW_TIMER_4:
//  534           T4CTL &= ~(HAL_TIMER34_OPMODE_BITS);
//  535           T4CTL |= HAL_TIMER34_OPMODE_MODULO;
//  536           break;
//  537         default:
//  538           return HAL_TIMER_INVALID_ID;
//  539       }
//  540       break;
//  541 
//  542     case HAL_TIMER_MODE_STOP:
//  543       if (hwtimerid == HW_TIMER_1)
//  544       {
//  545         T1CTL &= ~(HAL_TIMER1_OPMODE_BITS);
//  546         T1CTL |= HAL_TIMER1_OPMODE_STOP;
//  547       }
//  548       break;
//  549 
//  550     default:
//  551       return HAL_TIMER_INVALID_OP_MODE;
//  552   }
//  553   return HAL_TIMER_OK;
??halTimerSetOpMode_8:
        MOV     R1,#0x0
??halTimerSetOpMode_9:
        LJMP    ?BRET
??halTimerSetOpMode_5:
        ANL     0xcb,#0xfc
        MOV     0xcb,0xcb
        SJMP    ??halTimerSetOpMode_8
??halTimerSetOpMode_6:
        ANL     0xeb,#0xfc
        MOV     0xeb,0xeb
        SJMP    ??halTimerSetOpMode_8
??halTimerSetOpMode_7:
        MOV     R1,#0x4
        SJMP    ??halTimerSetOpMode_9
??halTimerSetOpMode_1:
        MOV     A,R0
        JZ      ??halTimerSetOpMode_10
        DEC     A
        JZ      ??halTimerSetOpMode_11
        DEC     A
        JZ      ??halTimerSetOpMode_12
        SJMP    ??halTimerSetOpMode_7
??halTimerSetOpMode_10:
        ANL     0xe4,#0xfc
        ORL     0xe4,#0x2
        SJMP    ??halTimerSetOpMode_8
??halTimerSetOpMode_11:
        ANL     0xcb,#0xfc
        ORL     0xcb,#0x2
        SJMP    ??halTimerSetOpMode_8
??halTimerSetOpMode_12:
        ANL     0xeb,#0xfc
        ORL     0xeb,#0x2
        SJMP    ??halTimerSetOpMode_8
??halTimerSetOpMode_2:
        MOV     A,R0
        JNZ     ??halTimerSetOpMode_8
        ANL     0xe4,#0xfc
        MOV     0xe4,0xe4
        SJMP    ??halTimerSetOpMode_8
??halTimerSetOpMode_3:
        MOV     R1,#0x6
        SJMP    ??halTimerSetOpMode_9
        CFI EndBlock cfiBlock25
        REQUIRE T1CTL
        REQUIRE T3CTL
        REQUIRE T4CTL
//  554 }
//  555 
//  556 /***************************************************************************************************
//  557  * @fn      halTimerSetChannelMode
//  558  *
//  559  * @brief   Setup channel modes.  Currently, only output compare mode is supported.  Input capture
//  560  *          mode is NOT supported.  Additionally, mapping timer channel inputs/outputs to I/O pins
//  561  *          is NOT supported.
//  562  *
//  563  * @param   hwtimerid - ID of the timer
//  564  *          channelMode - channel mode of the timer
//  565  *
//  566  * @return  Status - OK or Not OK
//  567  ***************************************************************************************************/

        RSEG BANKED_CODE:CODE:NOROOT(0)
//  568 uint8 halTimerSetChannelMode (uint8 hwtimerid, uint8 channelMode)
halTimerSetChannelMode:
        CFI Block cfiBlock26 Using cfiCommon0
        CFI Function halTimerSetChannelMode
        CODE
//  569 {
        PUSH    DPL
        CFI DPL0 Frame(CFA_SP, 4)
        CFI CFA_SP SP+-4
        PUSH    DPH
        CFI DPH0 Frame(CFA_SP, 5)
        CFI CFA_SP SP+-5
        ; Saved register size: 2
        ; Auto size: 0
        MOV     A,R1
        MOV     R4,A
//  570   switch (channelMode)
        MOV     A,R2
        DEC     A
        JZ      ??halTimerSetChannelMode_0
        DEC     A
        JNZ     ??halTimerSetChannelMode_1
//  571   {
//  572     case HAL_TIMER_CH_MODE_OUTPUT_COMPARE:
//  573       *(halTimerChannel[hwtimerid].TxCCTL) &= ~(T134CCTL_CMP_BITS);
        MOV     A,R4
        MOV     B,#0xa
        MUL     AB
        MOV     R0,A
        MOV     R1,B
        MOV     A,#halTimerChannel & 0xff
        ADD     A,R0
        MOV     R0,A
        MOV     A,#(halTimerChannel >> 8) & 0xff
        ADDC    A,R1
        MOV     R1,A
        MOV     DPL,R0
        MOV     DPH,R1
        MOVX    A,@DPTR
        MOV     R3,A
        INC     DPTR
        MOVX    A,@DPTR
        MOV     DPH,A
        MOV     DPL,R3
        MOVX    A,@DPTR
        ANL     A,#0xc7
        MOVX    @DPTR,A
//  574       *(halTimerChannel[hwtimerid].TxCCTL) |= (T134CCTL_CMP_OC | T134CCTL_MODE);
        LCALL   ??Subroutine16_0 & 0xFFFF
??CrossCallReturnLabel_28:
        ORL     A,#0x1c
        MOVX    @DPTR,A
//  575       break;
//  576 
//  577     case HAL_TIMER_CH_MODE_INPUT_CAPTURE:       /* Not Supported */
//  578 /*
//  579       *(halTimerChannel[hwtimerid].TxCCTL) &= ~(T134CCTL_CAP_BITS | T134CCTL_MODE);
//  580       *(halTimerChannel[hwtimerid].TxCCTL) |= T134CCTL_CAP_RE;
//  581 */
//  582       break;
//  583 
//  584     default:
//  585       return HAL_TIMER_INVALID_CH_MODE;
//  586   }
//  587   return HAL_TIMER_OK;
??halTimerSetChannelMode_0:
        MOV     R1,#0x0
??halTimerSetChannelMode_2:
        LJMP    ?Subroutine0 & 0xFFFF
??halTimerSetChannelMode_1:
        MOV     R1,#0x5
        SJMP    ??halTimerSetChannelMode_2
        CFI EndBlock cfiBlock26
//  588 }
//  589 
//  590 /***************************************************************************************************
//  591  * @fn      HalTimerInterruptEnable
//  592  *
//  593  * @brief   Setup operate modes
//  594  *
//  595  * @param   hwtimerid - ID of the timer
//  596  *          channelMode - channel mode
//  597  *          enable - TRUE or FALSE
//  598  *
//  599  * @return  Status - OK or Not OK
//  600  ***************************************************************************************************/

        RSEG BANKED_CODE:CODE:NOROOT(0)
//  601 uint8 HalTimerInterruptEnable (uint8 hwtimerid, uint8 channelMode, bool enable)
HalTimerInterruptEnable:
        CFI Block cfiBlock27 Using cfiCommon0
        CFI Function HalTimerInterruptEnable
        CODE
//  602 {
        MOV     A,#-0xb
        LCALL   ?BANKED_ENTER_XDATA
        CFI DPH0 load(1, XDATA, add(CFA_XSP16, literal(-1)))
        CFI DPL0 load(1, XDATA, add(CFA_XSP16, literal(-2)))
        CFI ?BRET_EXT load(1, XDATA, add(CFA_XSP16, literal(-3)))
        CFI ?RET_HIGH load(1, XDATA, add(CFA_XSP16, literal(-4)))
        CFI ?RET_LOW load(1, XDATA, add(CFA_XSP16, literal(-5)))
        CFI R7 load(1, XDATA, add(CFA_XSP16, literal(-6)))
        CFI V2 load(1, XDATA, add(CFA_XSP16, literal(-7)))
        CFI V1 load(1, XDATA, add(CFA_XSP16, literal(-8)))
        CFI V0 load(1, XDATA, add(CFA_XSP16, literal(-9)))
        CFI VB load(1, XDATA, add(CFA_XSP16, literal(-10)))
        CFI R6 load(1, XDATA, add(CFA_XSP16, literal(-11)))
        CFI CFA_SP SP+0
        CFI CFA_XSP16 add(XSP16, 11)
        ; Saved register size: 11
        ; Auto size: 0
        MOV     A,R2
        MOV     R6,A
        MOV     A,R3
        MOV     R7,A
//  603   switch (channelMode)
        MOV     A,R1
        MOV     B,#0xa
        MUL     AB
        MOV     R4,A
        MOV     R5,B
        MOV     A,#halTimerChannel & 0xff
        ADD     A,R4
        MOV     R2,A
        MOV     A,#(halTimerChannel >> 8) & 0xff
        ADDC    A,R5
        MOV     R3,A
        MOV     A,R6
        DEC     A
        JZ      ??HalTimerInterruptEnable_0
        DEC     A
        JZ      ??HalTimerInterruptEnable_0
        ADD     A,#-0x2
        JNZ     ??HalTimerInterruptEnable_1
//  604   {
//  605     case HAL_TIMER_CH_MODE_OVERFLOW:
//  606 
//  607       if (enable)
        MOV     A,R2
        ADD     A,#0x8
        MOV     DPL,A
        MOV     A,R3
        ADDC    A,#0x0
        MOV     DPH,A
        MOV     A,R2
        ADD     A,#0x6
        MOV     R0,A
        MOV     A,R3
        ADDC    A,#0x0
        MOV     R1,A
        MOV     A,R7
        JZ      ??HalTimerInterruptEnable_2
//  608       {
//  609         *(halTimerChannel[hwtimerid].TxOVF) |= halTimerChannel[hwtimerid].ovfbit;
        MOVX    A,@DPTR
        LCALL   ?Subroutine4 & 0xFFFF
//  610       }
??CrossCallReturnLabel_29:
        ORL     A,?V0 + 1
??HalTimerInterruptEnable_3:
        LCALL   ?Subroutine7 & 0xFFFF
??CrossCallReturnLabel_3:
        INC     DPTR
        INC     DPTR
        INC     DPTR
        INC     DPTR
        INC     DPTR
        MOVX    A,@DPTR
        MOV     R0,A
        MOV     A,#(halTimerRecord + 1) & 0xff
        ADD     A,R4
        MOV     DPL,A
        MOV     A,#((halTimerRecord + 1) >> 8) & 0xff
        ADDC    A,R5
        MOV     DPH,A
        MOVX    A,@DPTR
        JZ      ??HalTimerInterruptEnable_4
//  611       else
//  612       {
//  613         *(halTimerChannel[hwtimerid].TxOVF) &= ((halTimerChannel[hwtimerid].ovfbit) ^ 0xFF);
//  614       }
//  615       break;
//  616 
//  617     case HAL_TIMER_CH_MODE_OUTPUT_COMPARE:
//  618     case HAL_TIMER_CH_MODE_INPUT_CAPTURE:
//  619 
//  620       if (enable)
//  621       {
//  622         *(halTimerChannel[hwtimerid].TxCCTL) |= T134CCTL_IM;
//  623       }
//  624       else
//  625       {
//  626         *(halTimerChannel[hwtimerid].TxCCTL) &= ~(T134CCTL_IM);
//  627       }
//  628       break;
//  629 
//  630     default:
//  631       return HAL_TIMER_INVALID_CH_MODE;
//  632   }
//  633 
//  634   if (halTimerRecord[hwtimerid].intEnable)
//  635   {
//  636     IEN1 |= halTimerChannel[hwtimerid].intbit;
        MOV     A,R0
        ORL     0xb8,A
        SJMP    ??HalTimerInterruptEnable_5
//  637   }
??HalTimerInterruptEnable_2:
        MOVX    A,@DPTR
        CPL     A
        LCALL   ?Subroutine4 & 0xFFFF
??CrossCallReturnLabel_30:
        ANL     A,?V0 + 1
        SJMP    ??HalTimerInterruptEnable_3
??HalTimerInterruptEnable_0:
        MOV     DPL,R2
        MOV     DPH,R3
        LCALL   ?Subroutine8 & 0xFFFF
??CrossCallReturnLabel_4:
        MOV     A,R7
        JZ      ??HalTimerInterruptEnable_6
        MOVX    A,@DPTR
        SETB    0xE0 /* A   */.6
        SJMP    ??HalTimerInterruptEnable_3
??HalTimerInterruptEnable_6:
        MOVX    A,@DPTR
        CLR     0xE0 /* A   */.6
        SJMP    ??HalTimerInterruptEnable_3
??HalTimerInterruptEnable_1:
        MOV     R1,#0x5
        SJMP    ??HalTimerInterruptEnable_7
//  638   else
//  639   {
//  640     IEN1 &= ((halTimerChannel[hwtimerid].intbit) ^ 0xFF);
??HalTimerInterruptEnable_4:
        MOV     A,#-0x1
        XRL     A,R0
        ANL     0xb8,A
//  641   }
//  642   return HAL_TIMER_OK;
??HalTimerInterruptEnable_5:
        MOV     R1,#0x0
??HalTimerInterruptEnable_7:
        MOV     R7,#0x3
        LJMP    ?BANKED_LEAVE_XDATA
        CFI EndBlock cfiBlock27
        REQUIRE _A_IEN1
//  643 }

        RSEG BANKED_CODE:CODE:NOROOT(0)
?Subroutine7:
        CFI Block cfiCond28 Using cfiCommon0
        CFI NoFunction
        CFI Conditional ??CrossCallReturnLabel_2
        CFI R6 load(1, XDATA, add(CFA_XSP16, literal(-13)))
        CFI VB load(1, XDATA, add(CFA_XSP16, literal(-12)))
        CFI V0 load(1, XDATA, add(CFA_XSP16, literal(-11)))
        CFI V1 load(1, XDATA, add(CFA_XSP16, literal(-10)))
        CFI V2 load(1, XDATA, add(CFA_XSP16, literal(-9)))
        CFI V3 load(1, XDATA, add(CFA_XSP16, literal(-8)))
        CFI V4 load(1, XDATA, add(CFA_XSP16, literal(-7)))
        CFI R7 load(1, XDATA, add(CFA_XSP16, literal(-6)))
        CFI ?RET_LOW load(1, XDATA, add(CFA_XSP16, literal(-5)))
        CFI ?RET_HIGH load(1, XDATA, add(CFA_XSP16, literal(-4)))
        CFI ?BRET_EXT load(1, XDATA, add(CFA_XSP16, literal(-3)))
        CFI DPL0 load(1, XDATA, add(CFA_XSP16, literal(-2)))
        CFI DPH0 load(1, XDATA, add(CFA_XSP16, literal(-1)))
        CFI CFA_SP SP+0
        CFI CFA_XSP16 add(XSP16, 13)
        CFI Block cfiCond29 Using cfiCommon0
        CFI (cfiCond29) NoFunction
        CFI (cfiCond29) Conditional ??CrossCallReturnLabel_3
        CFI (cfiCond29) R6 load(1, XDATA, add(CFA_XSP16, literal(-11)))
        CFI (cfiCond29) VB load(1, XDATA, add(CFA_XSP16, literal(-10)))
        CFI (cfiCond29) V0 load(1, XDATA, add(CFA_XSP16, literal(-9)))
        CFI (cfiCond29) V1 load(1, XDATA, add(CFA_XSP16, literal(-8)))
        CFI (cfiCond29) V2 load(1, XDATA, add(CFA_XSP16, literal(-7)))
        CFI (cfiCond29) R7 load(1, XDATA, add(CFA_XSP16, literal(-6)))
        CFI (cfiCond29) ?RET_LOW load(1, XDATA, add(CFA_XSP16, literal(-5)))
        CFI (cfiCond29) ?RET_HIGH load(1, XDATA, add(CFA_XSP16, literal(-4)))
        CFI (cfiCond29) ?BRET_EXT load(1, XDATA, add(CFA_XSP16, literal(-3)))
        CFI (cfiCond29) DPL0 load(1, XDATA, add(CFA_XSP16, literal(-2)))
        CFI (cfiCond29) DPH0 load(1, XDATA, add(CFA_XSP16, literal(-1)))
        CFI (cfiCond29) CFA_SP SP+0
        CFI (cfiCond29) CFA_XSP16 add(XSP16, 11)
        CFI Block cfiPicker30 Using cfiCommon1
        CFI (cfiPicker30) NoFunction
        CFI (cfiPicker30) Picker
        LCALL   ?Subroutine12 & 0xFFFF
??CrossCallReturnLabel_15:
        INC     DPTR
        RET
        CFI EndBlock cfiCond28
        CFI EndBlock cfiCond29
        CFI EndBlock cfiPicker30

        RSEG BANKED_CODE:CODE:NOROOT(0)
?Subroutine12:
        CFI Block cfiCond31 Using cfiCommon0
        CFI NoFunction
        CFI Conditional ??CrossCallReturnLabel_14
        CFI R6 load(1, XDATA, add(CFA_XSP16, literal(-13)))
        CFI VB load(1, XDATA, add(CFA_XSP16, literal(-12)))
        CFI V0 load(1, XDATA, add(CFA_XSP16, literal(-11)))
        CFI V1 load(1, XDATA, add(CFA_XSP16, literal(-10)))
        CFI V2 load(1, XDATA, add(CFA_XSP16, literal(-9)))
        CFI V3 load(1, XDATA, add(CFA_XSP16, literal(-8)))
        CFI V4 load(1, XDATA, add(CFA_XSP16, literal(-7)))
        CFI R7 load(1, XDATA, add(CFA_XSP16, literal(-6)))
        CFI ?RET_LOW load(1, XDATA, add(CFA_XSP16, literal(-5)))
        CFI ?RET_HIGH load(1, XDATA, add(CFA_XSP16, literal(-4)))
        CFI ?BRET_EXT load(1, XDATA, add(CFA_XSP16, literal(-3)))
        CFI DPL0 load(1, XDATA, add(CFA_XSP16, literal(-2)))
        CFI DPH0 load(1, XDATA, add(CFA_XSP16, literal(-1)))
        CFI CFA_SP SP+0
        CFI CFA_XSP16 add(XSP16, 13)
        CFI Block cfiCond32 Using cfiCommon0
        CFI (cfiCond32) NoFunction
        CFI (cfiCond32) Conditional ??CrossCallReturnLabel_15, ??CrossCallReturnLabel_2
        CFI (cfiCond32) R6 load(1, XDATA, add(CFA_XSP16, literal(-13)))
        CFI (cfiCond32) VB load(1, XDATA, add(CFA_XSP16, literal(-12)))
        CFI (cfiCond32) V0 load(1, XDATA, add(CFA_XSP16, literal(-11)))
        CFI (cfiCond32) V1 load(1, XDATA, add(CFA_XSP16, literal(-10)))
        CFI (cfiCond32) V2 load(1, XDATA, add(CFA_XSP16, literal(-9)))
        CFI (cfiCond32) V3 load(1, XDATA, add(CFA_XSP16, literal(-8)))
        CFI (cfiCond32) V4 load(1, XDATA, add(CFA_XSP16, literal(-7)))
        CFI (cfiCond32) R7 load(1, XDATA, add(CFA_XSP16, literal(-6)))
        CFI (cfiCond32) ?RET_LOW load(1, XDATA, add(CFA_XSP16, literal(-5)))
        CFI (cfiCond32) ?RET_HIGH load(1, XDATA, add(CFA_XSP16, literal(-4)))
        CFI (cfiCond32) ?BRET_EXT load(1, XDATA, add(CFA_XSP16, literal(-3)))
        CFI (cfiCond32) DPL0 load(1, XDATA, add(CFA_XSP16, literal(-2)))
        CFI (cfiCond32) DPH0 load(1, XDATA, add(CFA_XSP16, literal(-1)))
        CFI (cfiCond32) CFA_SP SP+0
        CFI (cfiCond32) CFA_XSP16 add(XSP16, 13)
        CFI Block cfiCond33 Using cfiCommon0
        CFI (cfiCond33) NoFunction
        CFI (cfiCond33) Conditional ??CrossCallReturnLabel_15, ??CrossCallReturnLabel_3
        CFI (cfiCond33) R6 load(1, XDATA, add(CFA_XSP16, literal(-11)))
        CFI (cfiCond33) VB load(1, XDATA, add(CFA_XSP16, literal(-10)))
        CFI (cfiCond33) V0 load(1, XDATA, add(CFA_XSP16, literal(-9)))
        CFI (cfiCond33) V1 load(1, XDATA, add(CFA_XSP16, literal(-8)))
        CFI (cfiCond33) V2 load(1, XDATA, add(CFA_XSP16, literal(-7)))
        CFI (cfiCond33) R7 load(1, XDATA, add(CFA_XSP16, literal(-6)))
        CFI (cfiCond33) ?RET_LOW load(1, XDATA, add(CFA_XSP16, literal(-5)))
        CFI (cfiCond33) ?RET_HIGH load(1, XDATA, add(CFA_XSP16, literal(-4)))
        CFI (cfiCond33) ?BRET_EXT load(1, XDATA, add(CFA_XSP16, literal(-3)))
        CFI (cfiCond33) DPL0 load(1, XDATA, add(CFA_XSP16, literal(-2)))
        CFI (cfiCond33) DPH0 load(1, XDATA, add(CFA_XSP16, literal(-1)))
        CFI (cfiCond33) CFA_SP SP+0
        CFI (cfiCond33) CFA_XSP16 add(XSP16, 11)
        CFI Block cfiPicker34 Using cfiCommon1
        CFI (cfiPicker34) NoFunction
        CFI (cfiPicker34) Picker
        MOVX    @DPTR,A
        MOV     DPL,R2
        MOV     DPH,R3
        INC     DPTR
        INC     DPTR
        INC     DPTR
        RET
        CFI EndBlock cfiCond31
        CFI EndBlock cfiCond32
        CFI EndBlock cfiCond33
        CFI EndBlock cfiPicker34

        RSEG BANKED_CODE:CODE:NOROOT(0)
?Subroutine4:
        CFI Block cfiCond35 Using cfiCommon0
        CFI NoFunction
        CFI Conditional ??CrossCallReturnLabel_29
        CFI R6 load(1, XDATA, add(CFA_XSP16, literal(-11)))
        CFI VB load(1, XDATA, add(CFA_XSP16, literal(-10)))
        CFI V0 load(1, XDATA, add(CFA_XSP16, literal(-9)))
        CFI V1 load(1, XDATA, add(CFA_XSP16, literal(-8)))
        CFI V2 load(1, XDATA, add(CFA_XSP16, literal(-7)))
        CFI R7 load(1, XDATA, add(CFA_XSP16, literal(-6)))
        CFI ?RET_LOW load(1, XDATA, add(CFA_XSP16, literal(-5)))
        CFI ?RET_HIGH load(1, XDATA, add(CFA_XSP16, literal(-4)))
        CFI ?BRET_EXT load(1, XDATA, add(CFA_XSP16, literal(-3)))
        CFI DPL0 load(1, XDATA, add(CFA_XSP16, literal(-2)))
        CFI DPH0 load(1, XDATA, add(CFA_XSP16, literal(-1)))
        CFI CFA_SP SP+0
        CFI CFA_XSP16 add(XSP16, 11)
        CFI Block cfiCond36 Using cfiCommon0
        CFI (cfiCond36) NoFunction
        CFI (cfiCond36) Conditional ??CrossCallReturnLabel_30
        CFI (cfiCond36) R6 load(1, XDATA, add(CFA_XSP16, literal(-11)))
        CFI (cfiCond36) VB load(1, XDATA, add(CFA_XSP16, literal(-10)))
        CFI (cfiCond36) V0 load(1, XDATA, add(CFA_XSP16, literal(-9)))
        CFI (cfiCond36) V1 load(1, XDATA, add(CFA_XSP16, literal(-8)))
        CFI (cfiCond36) V2 load(1, XDATA, add(CFA_XSP16, literal(-7)))
        CFI (cfiCond36) R7 load(1, XDATA, add(CFA_XSP16, literal(-6)))
        CFI (cfiCond36) ?RET_LOW load(1, XDATA, add(CFA_XSP16, literal(-5)))
        CFI (cfiCond36) ?RET_HIGH load(1, XDATA, add(CFA_XSP16, literal(-4)))
        CFI (cfiCond36) ?BRET_EXT load(1, XDATA, add(CFA_XSP16, literal(-3)))
        CFI (cfiCond36) DPL0 load(1, XDATA, add(CFA_XSP16, literal(-2)))
        CFI (cfiCond36) DPH0 load(1, XDATA, add(CFA_XSP16, literal(-1)))
        CFI (cfiCond36) CFA_SP SP+0
        CFI (cfiCond36) CFA_XSP16 add(XSP16, 11)
        CFI Block cfiPicker37 Using cfiCommon1
        CFI (cfiPicker37) NoFunction
        CFI (cfiPicker37) Picker
        MOV     ?V0 + 1,A
        CFI EndBlock cfiCond35
        CFI EndBlock cfiCond36
        CFI EndBlock cfiPicker37
        REQUIRE ??Subroutine16_0
        ; // Fall through to label ??Subroutine16_0

        RSEG BANKED_CODE:CODE:NOROOT(0)
??Subroutine16_0:
        CFI Block cfiCond38 Using cfiCommon0
        CFI NoFunction
        CFI Conditional ??CrossCallReturnLabel_28
        CFI DPL0 Frame(CFA_SP, 4)
        CFI DPH0 Frame(CFA_SP, 5)
        CFI CFA_SP SP+-5
        CFI Block cfiCond39 Using cfiCommon0
        CFI (cfiCond39) NoFunction
        CFI (cfiCond39) Conditional ??CrossCallReturnLabel_29
        CFI (cfiCond39) R6 load(1, XDATA, add(CFA_XSP16, literal(-11)))
        CFI (cfiCond39) VB load(1, XDATA, add(CFA_XSP16, literal(-10)))
        CFI (cfiCond39) V0 load(1, XDATA, add(CFA_XSP16, literal(-9)))
        CFI (cfiCond39) V1 load(1, XDATA, add(CFA_XSP16, literal(-8)))
        CFI (cfiCond39) V2 load(1, XDATA, add(CFA_XSP16, literal(-7)))
        CFI (cfiCond39) R7 load(1, XDATA, add(CFA_XSP16, literal(-6)))
        CFI (cfiCond39) ?RET_LOW load(1, XDATA, add(CFA_XSP16, literal(-5)))
        CFI (cfiCond39) ?RET_HIGH load(1, XDATA, add(CFA_XSP16, literal(-4)))
        CFI (cfiCond39) ?BRET_EXT load(1, XDATA, add(CFA_XSP16, literal(-3)))
        CFI (cfiCond39) DPL0 load(1, XDATA, add(CFA_XSP16, literal(-2)))
        CFI (cfiCond39) DPH0 load(1, XDATA, add(CFA_XSP16, literal(-1)))
        CFI (cfiCond39) CFA_SP SP+0
        CFI (cfiCond39) CFA_XSP16 add(XSP16, 11)
        CFI Block cfiCond40 Using cfiCommon0
        CFI (cfiCond40) NoFunction
        CFI (cfiCond40) Conditional ??CrossCallReturnLabel_30
        CFI (cfiCond40) R6 load(1, XDATA, add(CFA_XSP16, literal(-11)))
        CFI (cfiCond40) VB load(1, XDATA, add(CFA_XSP16, literal(-10)))
        CFI (cfiCond40) V0 load(1, XDATA, add(CFA_XSP16, literal(-9)))
        CFI (cfiCond40) V1 load(1, XDATA, add(CFA_XSP16, literal(-8)))
        CFI (cfiCond40) V2 load(1, XDATA, add(CFA_XSP16, literal(-7)))
        CFI (cfiCond40) R7 load(1, XDATA, add(CFA_XSP16, literal(-6)))
        CFI (cfiCond40) ?RET_LOW load(1, XDATA, add(CFA_XSP16, literal(-5)))
        CFI (cfiCond40) ?RET_HIGH load(1, XDATA, add(CFA_XSP16, literal(-4)))
        CFI (cfiCond40) ?BRET_EXT load(1, XDATA, add(CFA_XSP16, literal(-3)))
        CFI (cfiCond40) DPL0 load(1, XDATA, add(CFA_XSP16, literal(-2)))
        CFI (cfiCond40) DPH0 load(1, XDATA, add(CFA_XSP16, literal(-1)))
        CFI (cfiCond40) CFA_SP SP+0
        CFI (cfiCond40) CFA_XSP16 add(XSP16, 11)
        CFI Block cfiPicker41 Using cfiCommon1
        CFI (cfiPicker41) NoFunction
        CFI (cfiPicker41) Picker
        MOV     DPL,R0
        MOV     DPH,R1
        LCALL   ?Subroutine13 & 0xFFFF
??CrossCallReturnLabel_32:
        MOVX    A,@DPTR
        RET
        CFI EndBlock cfiCond38
        CFI EndBlock cfiCond39
        CFI EndBlock cfiCond40
        CFI EndBlock cfiPicker41

        RSEG BANKED_CODE:CODE:NOROOT(0)
?Subroutine13:
        CFI Block cfiCond42 Using cfiCommon0
        CFI NoFunction
        CFI Conditional ??CrossCallReturnLabel_31
        CFI R6 load(1, XDATA, add(CFA_XSP16, literal(-16)))
        CFI VB load(1, XDATA, add(CFA_XSP16, literal(-15)))
        CFI V0 load(1, XDATA, add(CFA_XSP16, literal(-14)))
        CFI V1 load(1, XDATA, add(CFA_XSP16, literal(-13)))
        CFI V2 load(1, XDATA, add(CFA_XSP16, literal(-12)))
        CFI V3 load(1, XDATA, add(CFA_XSP16, literal(-11)))
        CFI V4 load(1, XDATA, add(CFA_XSP16, literal(-10)))
        CFI V5 load(1, XDATA, add(CFA_XSP16, literal(-9)))
        CFI V6 load(1, XDATA, add(CFA_XSP16, literal(-8)))
        CFI V7 load(1, XDATA, add(CFA_XSP16, literal(-7)))
        CFI R7 load(1, XDATA, add(CFA_XSP16, literal(-6)))
        CFI ?RET_LOW load(1, XDATA, add(CFA_XSP16, literal(-5)))
        CFI ?RET_HIGH load(1, XDATA, add(CFA_XSP16, literal(-4)))
        CFI ?BRET_EXT load(1, XDATA, add(CFA_XSP16, literal(-3)))
        CFI DPL0 load(1, XDATA, add(CFA_XSP16, literal(-2)))
        CFI DPH0 load(1, XDATA, add(CFA_XSP16, literal(-1)))
        CFI CFA_SP SP+0
        CFI CFA_XSP16 add(XSP16, 16)
        CFI Block cfiCond43 Using cfiCommon0
        CFI (cfiCond43) NoFunction
        CFI (cfiCond43) Conditional ??CrossCallReturnLabel_32, ??CrossCallReturnLabel_29
        CFI (cfiCond43) R6 load(1, XDATA, add(CFA_XSP16, literal(-11)))
        CFI (cfiCond43) VB load(1, XDATA, add(CFA_XSP16, literal(-10)))
        CFI (cfiCond43) V0 load(1, XDATA, add(CFA_XSP16, literal(-9)))
        CFI (cfiCond43) V1 load(1, XDATA, add(CFA_XSP16, literal(-8)))
        CFI (cfiCond43) V2 load(1, XDATA, add(CFA_XSP16, literal(-7)))
        CFI (cfiCond43) R7 load(1, XDATA, add(CFA_XSP16, literal(-6)))
        CFI (cfiCond43) ?RET_LOW load(1, XDATA, add(CFA_XSP16, literal(-5)))
        CFI (cfiCond43) ?RET_HIGH load(1, XDATA, add(CFA_XSP16, literal(-4)))
        CFI (cfiCond43) ?BRET_EXT load(1, XDATA, add(CFA_XSP16, literal(-3)))
        CFI (cfiCond43) DPL0 load(1, XDATA, add(CFA_XSP16, literal(-2)))
        CFI (cfiCond43) DPH0 load(1, XDATA, add(CFA_XSP16, literal(-1)))
        CFI (cfiCond43) CFA_SP SP+0
        CFI (cfiCond43) CFA_XSP16 add(XSP16, 11)
        CFI Block cfiCond44 Using cfiCommon0
        CFI (cfiCond44) NoFunction
        CFI (cfiCond44) Conditional ??CrossCallReturnLabel_32, ??CrossCallReturnLabel_30
        CFI (cfiCond44) R6 load(1, XDATA, add(CFA_XSP16, literal(-11)))
        CFI (cfiCond44) VB load(1, XDATA, add(CFA_XSP16, literal(-10)))
        CFI (cfiCond44) V0 load(1, XDATA, add(CFA_XSP16, literal(-9)))
        CFI (cfiCond44) V1 load(1, XDATA, add(CFA_XSP16, literal(-8)))
        CFI (cfiCond44) V2 load(1, XDATA, add(CFA_XSP16, literal(-7)))
        CFI (cfiCond44) R7 load(1, XDATA, add(CFA_XSP16, literal(-6)))
        CFI (cfiCond44) ?RET_LOW load(1, XDATA, add(CFA_XSP16, literal(-5)))
        CFI (cfiCond44) ?RET_HIGH load(1, XDATA, add(CFA_XSP16, literal(-4)))
        CFI (cfiCond44) ?BRET_EXT load(1, XDATA, add(CFA_XSP16, literal(-3)))
        CFI (cfiCond44) DPL0 load(1, XDATA, add(CFA_XSP16, literal(-2)))
        CFI (cfiCond44) DPH0 load(1, XDATA, add(CFA_XSP16, literal(-1)))
        CFI (cfiCond44) CFA_SP SP+0
        CFI (cfiCond44) CFA_XSP16 add(XSP16, 11)
        CFI Block cfiCond45 Using cfiCommon0
        CFI (cfiCond45) NoFunction
        CFI (cfiCond45) Conditional ??CrossCallReturnLabel_32, ??CrossCallReturnLabel_28
        CFI (cfiCond45) DPL0 Frame(CFA_SP, 4)
        CFI (cfiCond45) DPH0 Frame(CFA_SP, 5)
        CFI (cfiCond45) CFA_SP SP+-5
        CFI Block cfiPicker46 Using cfiCommon1
        CFI (cfiPicker46) NoFunction
        CFI (cfiPicker46) Picker
        MOVX    A,@DPTR
        MOV     R0,A
        INC     DPTR
        MOVX    A,@DPTR
        MOV     DPH,A
        MOV     DPL,R0
        RET
        CFI EndBlock cfiCond42
        CFI EndBlock cfiCond43
        CFI EndBlock cfiCond44
        CFI EndBlock cfiCond45
        CFI EndBlock cfiPicker46
//  644 
//  645 /***************************************************************************************************
//  646  * @fn      halTimerSendCallBack
//  647  *
//  648  * @brief   Send Callback back to the caller
//  649  *
//  650  * @param   timerId - ID of the timer
//  651  *          channel - channel where the interrupt occurs
//  652  *          channelMode - channel mode
//  653  *
//  654  *
//  655  * @return  None
//  656  ***************************************************************************************************/

        RSEG BANKED_CODE:CODE:NOROOT(0)
//  657 void halTimerSendCallBack (uint8 timerId, uint8 channel, uint8 channelMode)
halTimerSendCallBack:
        CFI Block cfiBlock47 Using cfiCommon0
        CFI Function halTimerSendCallBack
        CODE
//  658 {
        FUNCALL halTimerSendCallBack, halTimerRemap
        LOCFRAME ISTACK, 0, STACK
        LOCFRAME PSTACK, 0, STACK
        LOCFRAME XSTACK, 9, STACK
        LOCFRAME IOVERLAY, 0, STATIC
        LOCFRAME DOVERLAY, 0, STATIC
        ARGFRAME ISTACK, 0, STACK
        ARGFRAME PSTACK, 0, STACK
        ARGFRAME XSTACK, 9, STACK
        ARGFRAME IOVERLAY, 0, STATIC
        ARGFRAME DOVERLAY, 0, STATIC
        MOV     A,#-0x9
        LCALL   ?BANKED_ENTER_XDATA
        CFI DPH0 load(1, XDATA, add(CFA_XSP16, literal(-1)))
        CFI DPL0 load(1, XDATA, add(CFA_XSP16, literal(-2)))
        CFI ?BRET_EXT load(1, XDATA, add(CFA_XSP16, literal(-3)))
        CFI ?RET_HIGH load(1, XDATA, add(CFA_XSP16, literal(-4)))
        CFI ?RET_LOW load(1, XDATA, add(CFA_XSP16, literal(-5)))
        CFI R7 load(1, XDATA, add(CFA_XSP16, literal(-6)))
        CFI V0 load(1, XDATA, add(CFA_XSP16, literal(-7)))
        CFI VB load(1, XDATA, add(CFA_XSP16, literal(-8)))
        CFI R6 load(1, XDATA, add(CFA_XSP16, literal(-9)))
        CFI CFA_SP SP+0
        CFI CFA_XSP16 add(XSP16, 9)
        ; Saved register size: 9
        ; Auto size: 0
        MOV     A,R1
        MOV     R6,A
        MOV     ?V0 + 0,R2
        MOV     A,R3
        MOV     R7,A
//  659   uint8 hwtimerid;
//  660 
//  661   hwtimerid = halTimerRemap (timerId);
        ; Setup parameters for call to function halTimerRemap
        LCALL   ?Subroutine14 & 0xFFFF
??CrossCallReturnLabel_16:
        MOV     A,#(halTimerRecord + 8) & 0xff
        ADD     A,R0
        MOV     DPL,A
        MOV     A,#((halTimerRecord + 8) >> 8) & 0xff
        ADDC    A,R1
        MOV     DPH,A
        LCALL   ?Subroutine8 & 0xFFFF
??CrossCallReturnLabel_5:
        MOV     A,DPL
        ORL     A,DPH
        JZ      ??halTimerSendCallBack_0
//  662 
//  663   if (halTimerRecord[hwtimerid].callBackFunc)
//  664     (halTimerRecord[hwtimerid].callBackFunc) (timerId, channel, channelMode);
        ; Setup parameters for indirect call
        MOV     A,R7
        MOV     R3,A
        MOV     R2,?V0 + 0
        MOV     A,R6
        MOV     R1,A
        LCALL   ?CALL_IND
        CFI EndBlock cfiBlock47
//  665 }
??halTimerSendCallBack_0:
        REQUIRE ?Subroutine2
        ; // Fall through to label ?Subroutine2

        RSEG BANKED_CODE:CODE:NOROOT(0)
?Subroutine2:
        CFI Block cfiBlock48 Using cfiCommon0
        CFI NoFunction
        CFI CFA_SP SP+0
        CFI CFA_XSP16 add(XSP16, 9)
        CFI VB load(1, XDATA, add(CFA_XSP16, literal(-8)))
        CFI DPL0 load(1, XDATA, add(CFA_XSP16, literal(-2)))
        CFI DPH0 load(1, XDATA, add(CFA_XSP16, literal(-1)))
        CFI R6 load(1, XDATA, add(CFA_XSP16, literal(-9)))
        CFI R7 load(1, XDATA, add(CFA_XSP16, literal(-6)))
        CFI V0 load(1, XDATA, add(CFA_XSP16, literal(-7)))
        CFI ?BRET_EXT load(1, XDATA, add(CFA_XSP16, literal(-3)))
        CFI ?RET_HIGH load(1, XDATA, add(CFA_XSP16, literal(-4)))
        CFI ?RET_LOW load(1, XDATA, add(CFA_XSP16, literal(-5)))
        MOV     R7,#0x1
        LJMP    ?BANKED_LEAVE_XDATA
        CFI EndBlock cfiBlock48

        RSEG BANKED_CODE:CODE:NOROOT(0)
?Subroutine8:
        CFI Block cfiCond49 Using cfiCommon0
        CFI NoFunction
        CFI Conditional ??CrossCallReturnLabel_4
        CFI R6 load(1, XDATA, add(CFA_XSP16, literal(-11)))
        CFI VB load(1, XDATA, add(CFA_XSP16, literal(-10)))
        CFI V0 load(1, XDATA, add(CFA_XSP16, literal(-9)))
        CFI V1 load(1, XDATA, add(CFA_XSP16, literal(-8)))
        CFI V2 load(1, XDATA, add(CFA_XSP16, literal(-7)))
        CFI R7 load(1, XDATA, add(CFA_XSP16, literal(-6)))
        CFI ?RET_LOW load(1, XDATA, add(CFA_XSP16, literal(-5)))
        CFI ?RET_HIGH load(1, XDATA, add(CFA_XSP16, literal(-4)))
        CFI ?BRET_EXT load(1, XDATA, add(CFA_XSP16, literal(-3)))
        CFI DPL0 load(1, XDATA, add(CFA_XSP16, literal(-2)))
        CFI DPH0 load(1, XDATA, add(CFA_XSP16, literal(-1)))
        CFI CFA_SP SP+0
        CFI CFA_XSP16 add(XSP16, 11)
        CFI Block cfiCond50 Using cfiCommon0
        CFI (cfiCond50) NoFunction
        CFI (cfiCond50) Conditional ??CrossCallReturnLabel_5
        CFI (cfiCond50) R6 load(1, XDATA, add(CFA_XSP16, literal(-9)))
        CFI (cfiCond50) VB load(1, XDATA, add(CFA_XSP16, literal(-8)))
        CFI (cfiCond50) V0 load(1, XDATA, add(CFA_XSP16, literal(-7)))
        CFI (cfiCond50) R7 load(1, XDATA, add(CFA_XSP16, literal(-6)))
        CFI (cfiCond50) ?RET_LOW load(1, XDATA, add(CFA_XSP16, literal(-5)))
        CFI (cfiCond50) ?RET_HIGH load(1, XDATA, add(CFA_XSP16, literal(-4)))
        CFI (cfiCond50) ?BRET_EXT load(1, XDATA, add(CFA_XSP16, literal(-3)))
        CFI (cfiCond50) DPL0 load(1, XDATA, add(CFA_XSP16, literal(-2)))
        CFI (cfiCond50) DPH0 load(1, XDATA, add(CFA_XSP16, literal(-1)))
        CFI (cfiCond50) CFA_SP SP+0
        CFI (cfiCond50) CFA_XSP16 add(XSP16, 9)
        CFI Block cfiPicker51 Using cfiCommon1
        CFI (cfiPicker51) NoFunction
        CFI (cfiPicker51) Picker
        MOVX    A,@DPTR
        MOV     R0,A
        INC     DPTR
        MOVX    A,@DPTR
        MOV     R1,A
        MOV     DPL,R0
        MOV     DPH,R1
        RET
        CFI EndBlock cfiCond49
        CFI EndBlock cfiCond50
        CFI EndBlock cfiPicker51
//  666 
//  667 /***************************************************************************************************
//  668  * @fn      halTimerRemap
//  669  *
//  670  * @brief   Maps API HAL_TIMER_ID to HW Timer ID.
//  671  *          HAL_TIMER_0 --> HW Timer 3 8bit
//  672  *          HAL_TIMER_2 --> HW Timer 4 8bit
//  673  *          HAL_TIMER_3 --> HW Timer 1 16bit
//  674  *
//  675  * @param   timerId - ID of the timer
//  676  *
//  677  * @return  HW timer ID
//  678  ***************************************************************************************************/

        RSEG BANKED_CODE:CODE:NOROOT(0)
//  679 uint8 halTimerRemap (uint8 timerId)
halTimerRemap:
        CFI Block cfiBlock52 Using cfiCommon0
        CFI Function halTimerRemap
        CODE
//  680 {
        ; Saved register size: 0
        ; Auto size: 0
        MOV     A,R1
//  681   switch (timerId)
        JZ      ??halTimerRemap_0
        ADD     A,#-0x2
        JZ      ??halTimerRemap_1
        DEC     A
        JZ      ??halTimerRemap_2
        SJMP    ??halTimerRemap_3
//  682   {
//  683     case HAL_TIMER_0:
//  684       return HW_TIMER_3;
??halTimerRemap_0:
        MOV     R1,#0x1
        SJMP    ??halTimerRemap_4
//  685     case HAL_TIMER_2:
//  686       return HW_TIMER_4;
??halTimerRemap_1:
        MOV     R1,#0x2
        SJMP    ??halTimerRemap_4
//  687     case HAL_TIMER_3:
//  688       return HW_TIMER_1;
??halTimerRemap_2:
        MOV     R1,#0x0
        SJMP    ??halTimerRemap_4
//  689     default:
//  690       return HW_TIMER_INVALID;
??halTimerRemap_3:
        MOV     R1,#0x3
??halTimerRemap_4:
        LJMP    ?BRET
        CFI EndBlock cfiBlock52
//  691   }
//  692 }
//  693 
//  694 /***************************************************************************************************
//  695  * @fn      halProcessTimer1
//  696  *
//  697  * @brief   Processes Timer 1 Events.
//  698  *
//  699  * @param
//  700  *
//  701  * @return
//  702  ***************************************************************************************************/

        RSEG BANKED_CODE:CODE:NOROOT(0)
//  703 void halProcessTimer1 (void)
halProcessTimer1:
        CFI Block cfiBlock53 Using cfiCommon0
        CFI Function halProcessTimer1
        CODE
//  704 {
        FUNCALL halProcessTimer1, halTimerRemap
        LOCFRAME ISTACK, 2, STACK
        LOCFRAME PSTACK, 0, STACK
        LOCFRAME XSTACK, 0, STACK
        LOCFRAME IOVERLAY, 0, STATIC
        LOCFRAME DOVERLAY, 0, STATIC
        ARGFRAME ISTACK, 2, STACK
        ARGFRAME PSTACK, 0, STACK
        ARGFRAME XSTACK, 0, STACK
        ARGFRAME IOVERLAY, 0, STATIC
        ARGFRAME DOVERLAY, 0, STATIC
        FUNCALL halProcessTimer1, halTimerSendCallBack
        LOCFRAME ISTACK, 2, STACK
        LOCFRAME PSTACK, 0, STACK
        LOCFRAME XSTACK, 0, STACK
        LOCFRAME IOVERLAY, 0, STATIC
        LOCFRAME DOVERLAY, 0, STATIC
        ARGFRAME ISTACK, 2, STACK
        ARGFRAME PSTACK, 0, STACK
        ARGFRAME XSTACK, 0, STACK
        ARGFRAME IOVERLAY, 0, STATIC
        ARGFRAME DOVERLAY, 0, STATIC
        FUNCALL halProcessTimer1, halTimerSendCallBack
        LOCFRAME ISTACK, 2, STACK
        LOCFRAME PSTACK, 0, STACK
        LOCFRAME XSTACK, 0, STACK
        LOCFRAME IOVERLAY, 0, STATIC
        LOCFRAME DOVERLAY, 0, STATIC
        ARGFRAME ISTACK, 2, STACK
        ARGFRAME PSTACK, 0, STACK
        ARGFRAME XSTACK, 0, STACK
        ARGFRAME IOVERLAY, 0, STATIC
        ARGFRAME DOVERLAY, 0, STATIC
        FUNCALL halProcessTimer1, halTimerSendCallBack
        LOCFRAME ISTACK, 2, STACK
        LOCFRAME PSTACK, 0, STACK
        LOCFRAME XSTACK, 0, STACK
        LOCFRAME IOVERLAY, 0, STATIC
        LOCFRAME DOVERLAY, 0, STATIC
        ARGFRAME ISTACK, 2, STACK
        ARGFRAME PSTACK, 0, STACK
        ARGFRAME XSTACK, 0, STACK
        ARGFRAME IOVERLAY, 0, STATIC
        ARGFRAME DOVERLAY, 0, STATIC
        FUNCALL halProcessTimer1, halTimerRemap
        LOCFRAME ISTACK, 2, STACK
        LOCFRAME PSTACK, 0, STACK
        LOCFRAME XSTACK, 0, STACK
        LOCFRAME IOVERLAY, 0, STATIC
        LOCFRAME DOVERLAY, 0, STATIC
        ARGFRAME ISTACK, 2, STACK
        ARGFRAME PSTACK, 0, STACK
        ARGFRAME XSTACK, 0, STACK
        ARGFRAME IOVERLAY, 0, STATIC
        ARGFRAME DOVERLAY, 0, STATIC
        FUNCALL halProcessTimer1, halTimerSendCallBack
        LOCFRAME ISTACK, 2, STACK
        LOCFRAME PSTACK, 0, STACK
        LOCFRAME XSTACK, 0, STACK
        LOCFRAME IOVERLAY, 0, STATIC
        LOCFRAME DOVERLAY, 0, STATIC
        ARGFRAME ISTACK, 2, STACK
        ARGFRAME PSTACK, 0, STACK
        ARGFRAME XSTACK, 0, STACK
        ARGFRAME IOVERLAY, 0, STATIC
        ARGFRAME DOVERLAY, 0, STATIC
        PUSH    DPL
        CFI DPL0 Frame(CFA_SP, 4)
        CFI CFA_SP SP+-4
        PUSH    DPH
        CFI DPH0 Frame(CFA_SP, 5)
        CFI CFA_SP SP+-5
        ; Saved register size: 2
        ; Auto size: 0
//  705   if (halTimerRecord[halTimerRemap(HAL_TIMER_3)].channelMode == HAL_TIMER_CH_MODE_OUTPUT_COMPARE)
        ; Setup parameters for call to function halTimerRemap
        MOV     R1,#0x3
        LCALL   ?Subroutine9 & 0xFFFF
??CrossCallReturnLabel_6:
        JNZ     ??halProcessTimer1_0
//  706   {
//  707     if (T1CTL & T1CTL_CH0IF)
        MOV     A,0xe4
        MOV     C,0xE0 /* A   */.5
        JNC     ??halProcessTimer1_1
//  708     {
//  709       T1CTL &= ~(T1CTL_CH0IF);
        ANL     0xe4,#0xdf
//  710       halTimerSendCallBack (HAL_TIMER_3, HAL_TIMER_CHANNEL_A, HAL_TIMER_CH_MODE_OUTPUT_COMPARE);
        ; Setup parameters for call to function halTimerSendCallBack
        MOV     R3,#0x2
        MOV     R2,#0x2
        MOV     R1,#0x3
        LCALL   ??halTimerSendCallBack?relay
//  711     }
//  712     if (T1CTL & T1CTL_CH1IF)
??halProcessTimer1_1:
        MOV     A,0xe4
        MOV     C,0xE0 /* A   */.6
        JNC     ??halProcessTimer1_2
//  713     {
//  714       T1CTL &= ~(T1CTL_CH1IF);
        ANL     0xe4,#0xbf
//  715       halTimerSendCallBack (HAL_TIMER_3, HAL_TIMER_CHANNEL_B, HAL_TIMER_CH_MODE_OUTPUT_COMPARE);
        ; Setup parameters for call to function halTimerSendCallBack
        MOV     R3,#0x2
        MOV     R2,#0x4
        MOV     R1,#0x3
        LCALL   ??halTimerSendCallBack?relay
//  716     }
//  717     if (T1CTL & T1CTL_CH2IF)
??halProcessTimer1_2:
        MOV     A,0xe4
        MOV     C,0xE0 /* A   */.7
        JNC     ??halProcessTimer1_3
//  718     {
//  719       T1CTL &= ~(T1CTL_CH2IF);
        ANL     0xe4,#0x7f
//  720       halTimerSendCallBack (HAL_TIMER_3, HAL_TIMER_CHANNEL_C, HAL_TIMER_CH_MODE_OUTPUT_COMPARE);
        ; Setup parameters for call to function halTimerSendCallBack
        MOV     R3,#0x2
        MOV     R2,#0x8
        SJMP    ??halProcessTimer1_4
//  721     }
//  722   }
//  723   else if (halTimerRecord[halTimerRemap(HAL_TIMER_3)].channelMode == HAL_TIMER_CH_MODE_OVERFLOW)
??halProcessTimer1_0:
        ; Setup parameters for call to function halTimerRemap
        MOV     R1,#0x3
        LCALL   ?Subroutine10 & 0xFFFF
??CrossCallReturnLabel_9:
        JNZ     ??halProcessTimer1_3
//  724   {
//  725     if (T1CTL & T1CTL_OVFIF)
        MOV     A,0xe4
        MOV     C,0xE0 /* A   */.4
        JNC     ??halProcessTimer1_3
//  726     {
//  727       T1CTL &= ~(T1CTL_OVFIF);
        ANL     0xe4,#0xef
//  728       halTimerSendCallBack (HAL_TIMER_3, HAL_TIMER_CHANNEL_SINGLE, HAL_TIMER_CH_MODE_OVERFLOW);
        ; Setup parameters for call to function halTimerSendCallBack
        MOV     R3,#0x4
        MOV     R2,#0x1
??halProcessTimer1_4:
        MOV     R1,#0x3
        LCALL   ??halTimerSendCallBack?relay
        CFI EndBlock cfiBlock53
//  729     }
//  730   }
//  731 }
??halProcessTimer1_3:
        REQUIRE ?Subroutine0
        REQUIRE T1CTL
        ; // Fall through to label ?Subroutine0

        RSEG BANKED_CODE:CODE:NOROOT(0)
?Subroutine0:
        CFI Block cfiBlock54 Using cfiCommon0
        CFI NoFunction
        CFI CFA_SP SP+-5
        CFI DPL0 Frame(CFA_SP, 4)
        CFI DPH0 Frame(CFA_SP, 5)
        POP     DPH
        CFI CFA_SP SP+-4
        CFI DPH0 SameValue
        POP     DPL
        CFI CFA_SP SP+-3
        CFI DPL0 SameValue
        LJMP    ?BRET
        CFI EndBlock cfiBlock54
//  732 
//  733 /***************************************************************************************************
//  734  * @fn      halProcessTimer3
//  735  *
//  736  * @brief   Processes Timer 3 Events.
//  737  *
//  738  * @param
//  739  *
//  740  * @return
//  741  ***************************************************************************************************/

        RSEG BANKED_CODE:CODE:NOROOT(0)
//  742 void halProcessTimer3 (void)
halProcessTimer3:
        CFI Block cfiBlock55 Using cfiCommon0
        CFI Function halProcessTimer3
        CODE
//  743 {
        FUNCALL halProcessTimer3, halTimerRemap
        LOCFRAME ISTACK, 2, STACK
        LOCFRAME PSTACK, 0, STACK
        LOCFRAME XSTACK, 0, STACK
        LOCFRAME IOVERLAY, 0, STATIC
        LOCFRAME DOVERLAY, 0, STATIC
        ARGFRAME ISTACK, 2, STACK
        ARGFRAME PSTACK, 0, STACK
        ARGFRAME XSTACK, 0, STACK
        ARGFRAME IOVERLAY, 0, STATIC
        ARGFRAME DOVERLAY, 0, STATIC
        FUNCALL halProcessTimer3, halTimerSendCallBack
        LOCFRAME ISTACK, 2, STACK
        LOCFRAME PSTACK, 0, STACK
        LOCFRAME XSTACK, 0, STACK
        LOCFRAME IOVERLAY, 0, STATIC
        LOCFRAME DOVERLAY, 0, STATIC
        ARGFRAME ISTACK, 2, STACK
        ARGFRAME PSTACK, 0, STACK
        ARGFRAME XSTACK, 0, STACK
        ARGFRAME IOVERLAY, 0, STATIC
        ARGFRAME DOVERLAY, 0, STATIC
        FUNCALL halProcessTimer3, halTimerSendCallBack
        LOCFRAME ISTACK, 2, STACK
        LOCFRAME PSTACK, 0, STACK
        LOCFRAME XSTACK, 0, STACK
        LOCFRAME IOVERLAY, 0, STATIC
        LOCFRAME DOVERLAY, 0, STATIC
        ARGFRAME ISTACK, 2, STACK
        ARGFRAME PSTACK, 0, STACK
        ARGFRAME XSTACK, 0, STACK
        ARGFRAME IOVERLAY, 0, STATIC
        ARGFRAME DOVERLAY, 0, STATIC
        FUNCALL halProcessTimer3, halTimerRemap
        LOCFRAME ISTACK, 2, STACK
        LOCFRAME PSTACK, 0, STACK
        LOCFRAME XSTACK, 0, STACK
        LOCFRAME IOVERLAY, 0, STATIC
        LOCFRAME DOVERLAY, 0, STATIC
        ARGFRAME ISTACK, 2, STACK
        ARGFRAME PSTACK, 0, STACK
        ARGFRAME XSTACK, 0, STACK
        ARGFRAME IOVERLAY, 0, STATIC
        ARGFRAME DOVERLAY, 0, STATIC
        FUNCALL halProcessTimer3, halTimerSendCallBack
        LOCFRAME ISTACK, 2, STACK
        LOCFRAME PSTACK, 0, STACK
        LOCFRAME XSTACK, 0, STACK
        LOCFRAME IOVERLAY, 0, STATIC
        LOCFRAME DOVERLAY, 0, STATIC
        ARGFRAME ISTACK, 2, STACK
        ARGFRAME PSTACK, 0, STACK
        ARGFRAME XSTACK, 0, STACK
        ARGFRAME IOVERLAY, 0, STATIC
        ARGFRAME DOVERLAY, 0, STATIC
        PUSH    DPL
        CFI DPL0 Frame(CFA_SP, 4)
        CFI CFA_SP SP+-4
        PUSH    DPH
        CFI DPH0 Frame(CFA_SP, 5)
        CFI CFA_SP SP+-5
        ; Saved register size: 2
        ; Auto size: 0
//  744   if (halTimerRecord[halTimerRemap(HAL_TIMER_0)].channelMode == HAL_TIMER_CH_MODE_OUTPUT_COMPARE)
        ; Setup parameters for call to function halTimerRemap
        MOV     R1,#0x0
        LCALL   ?Subroutine9 & 0xFFFF
??CrossCallReturnLabel_7:
        JNZ     ??halProcessTimer3_0
//  745   {
//  746     if (TIMIF & TIMIF_T3CH0IF)
        MOV     C,0xd8.1
        JNC     ??halProcessTimer3_1
//  747     {
//  748       TIMIF &= ~(TIMIF_T3CH0IF);
        CLR     0xd8.1
//  749       halTimerSendCallBack (HAL_TIMER_0, HAL_TIMER_CHANNEL_A, HAL_TIMER_CH_MODE_OUTPUT_COMPARE);
        ; Setup parameters for call to function halTimerSendCallBack
        MOV     R3,#0x2
        MOV     R2,#0x2
        MOV     R1,#0x0
        LCALL   ??halTimerSendCallBack?relay
//  750     }
//  751     if (TIMIF & TIMIF_T3CH1IF)
??halProcessTimer3_1:
        MOV     C,0xd8.2
        JNC     ??halProcessTimer3_2
//  752     {
//  753       TIMIF &= ~(TIMIF_T3CH1IF);
        CLR     0xd8.2
//  754       halTimerSendCallBack (HAL_TIMER_0, HAL_TIMER_CHANNEL_B, HAL_TIMER_CH_MODE_OUTPUT_COMPARE);
        ; Setup parameters for call to function halTimerSendCallBack
        MOV     R3,#0x2
        MOV     R2,#0x4
        SJMP    ??halProcessTimer3_3
//  755     }
//  756   }
//  757   else if (halTimerRecord[halTimerRemap(HAL_TIMER_0)].channelMode == HAL_TIMER_CH_MODE_OVERFLOW)
??halProcessTimer3_0:
        ; Setup parameters for call to function halTimerRemap
        MOV     R1,#0x0
        LCALL   ?Subroutine10 & 0xFFFF
??CrossCallReturnLabel_10:
        JNZ     ??halProcessTimer3_2
//  758   {
//  759     if (TIMIF & TIMIF_T3OVFIF)
        MOV     C,0xd8.0
        JNC     ??halProcessTimer3_2
//  760     {
//  761       TIMIF &= ~(TIMIF_T3OVFIF);
        CLR     0xd8.0
//  762       halTimerSendCallBack (HAL_TIMER_0, HAL_TIMER_CHANNEL_SINGLE, HAL_TIMER_CH_MODE_OVERFLOW);
        ; Setup parameters for call to function halTimerSendCallBack
        MOV     R3,#0x4
        MOV     R2,#0x1
??halProcessTimer3_3:
        MOV     R1,#0x0
        LCALL   ??halTimerSendCallBack?relay
//  763     }
//  764   }
//  765 }
??halProcessTimer3_2:
        SJMP    ?Subroutine0
        CFI EndBlock cfiBlock55
        REQUIRE _A_TIMIF

        RSEG BANKED_CODE:CODE:NOROOT(0)
?Subroutine10:
        CFI Block cfiCond56 Using cfiCommon0
        CFI NoFunction
        CFI Conditional ??CrossCallReturnLabel_9
        CFI DPL0 Frame(CFA_SP, 4)
        CFI DPH0 Frame(CFA_SP, 5)
        CFI CFA_SP SP+-5
        CFI Block cfiCond57 Using cfiCommon0
        CFI (cfiCond57) NoFunction
        CFI (cfiCond57) Conditional ??CrossCallReturnLabel_10
        CFI (cfiCond57) DPL0 Frame(CFA_SP, 4)
        CFI (cfiCond57) DPH0 Frame(CFA_SP, 5)
        CFI (cfiCond57) CFA_SP SP+-5
        CFI Block cfiCond58 Using cfiCommon0
        CFI (cfiCond58) NoFunction
        CFI (cfiCond58) Conditional ??CrossCallReturnLabel_11
        CFI (cfiCond58) DPL0 Frame(CFA_SP, 4)
        CFI (cfiCond58) DPH0 Frame(CFA_SP, 5)
        CFI (cfiCond58) CFA_SP SP+-5
        CFI Block cfiPicker59 Using cfiCommon1
        CFI (cfiPicker59) NoFunction
        CFI (cfiPicker59) Picker
        LCALL   ?Subroutine11 & 0xFFFF
??CrossCallReturnLabel_12:
        XRL     A,#0x4
        RET
        CFI EndBlock cfiCond56
        CFI EndBlock cfiCond57
        CFI EndBlock cfiCond58
        CFI EndBlock cfiPicker59

        RSEG BANKED_CODE:CODE:NOROOT(0)
?Subroutine9:
        CFI Block cfiCond60 Using cfiCommon0
        CFI NoFunction
        CFI Conditional ??CrossCallReturnLabel_6
        CFI DPL0 Frame(CFA_SP, 4)
        CFI DPH0 Frame(CFA_SP, 5)
        CFI CFA_SP SP+-5
        CFI Block cfiCond61 Using cfiCommon0
        CFI (cfiCond61) NoFunction
        CFI (cfiCond61) Conditional ??CrossCallReturnLabel_7
        CFI (cfiCond61) DPL0 Frame(CFA_SP, 4)
        CFI (cfiCond61) DPH0 Frame(CFA_SP, 5)
        CFI (cfiCond61) CFA_SP SP+-5
        CFI Block cfiCond62 Using cfiCommon0
        CFI (cfiCond62) NoFunction
        CFI (cfiCond62) Conditional ??CrossCallReturnLabel_8
        CFI (cfiCond62) DPL0 Frame(CFA_SP, 4)
        CFI (cfiCond62) DPH0 Frame(CFA_SP, 5)
        CFI (cfiCond62) CFA_SP SP+-5
        CFI Block cfiPicker63 Using cfiCommon1
        CFI (cfiPicker63) NoFunction
        CFI (cfiPicker63) Picker
        LCALL   ?Subroutine11 & 0xFFFF
??CrossCallReturnLabel_13:
        XRL     A,#0x2
        RET
        CFI EndBlock cfiCond60
        CFI EndBlock cfiCond61
        CFI EndBlock cfiCond62
        CFI EndBlock cfiPicker63

        RSEG BANKED_CODE:CODE:NOROOT(0)
?Subroutine11:
        CFI Block cfiCond64 Using cfiCommon0
        CFI NoFunction
        CFI Conditional ??CrossCallReturnLabel_12, ??CrossCallReturnLabel_9
        CFI DPL0 Frame(CFA_SP, 4)
        CFI DPH0 Frame(CFA_SP, 5)
        CFI CFA_SP SP+-5
        CFI Block cfiCond65 Using cfiCommon0
        CFI (cfiCond65) NoFunction
        CFI (cfiCond65) Conditional ??CrossCallReturnLabel_12, ??CrossCallReturnLabel_10
        CFI (cfiCond65) DPL0 Frame(CFA_SP, 4)
        CFI (cfiCond65) DPH0 Frame(CFA_SP, 5)
        CFI (cfiCond65) CFA_SP SP+-5
        CFI Block cfiCond66 Using cfiCommon0
        CFI (cfiCond66) NoFunction
        CFI (cfiCond66) Conditional ??CrossCallReturnLabel_12, ??CrossCallReturnLabel_11
        CFI (cfiCond66) DPL0 Frame(CFA_SP, 4)
        CFI (cfiCond66) DPH0 Frame(CFA_SP, 5)
        CFI (cfiCond66) CFA_SP SP+-5
        CFI Block cfiCond67 Using cfiCommon0
        CFI (cfiCond67) NoFunction
        CFI (cfiCond67) Conditional ??CrossCallReturnLabel_13, ??CrossCallReturnLabel_6
        CFI (cfiCond67) DPL0 Frame(CFA_SP, 4)
        CFI (cfiCond67) DPH0 Frame(CFA_SP, 5)
        CFI (cfiCond67) CFA_SP SP+-5
        CFI Block cfiCond68 Using cfiCommon0
        CFI (cfiCond68) NoFunction
        CFI (cfiCond68) Conditional ??CrossCallReturnLabel_13, ??CrossCallReturnLabel_7
        CFI (cfiCond68) DPL0 Frame(CFA_SP, 4)
        CFI (cfiCond68) DPH0 Frame(CFA_SP, 5)
        CFI (cfiCond68) CFA_SP SP+-5
        CFI Block cfiCond69 Using cfiCommon0
        CFI (cfiCond69) NoFunction
        CFI (cfiCond69) Conditional ??CrossCallReturnLabel_13, ??CrossCallReturnLabel_8
        CFI (cfiCond69) DPL0 Frame(CFA_SP, 4)
        CFI (cfiCond69) DPH0 Frame(CFA_SP, 5)
        CFI (cfiCond69) CFA_SP SP+-5
        CFI Block cfiPicker70 Using cfiCommon1
        CFI (cfiPicker70) NoFunction
        CFI (cfiPicker70) Picker
        LCALL   ?Subroutine14 & 0xFFFF
??CrossCallReturnLabel_17:
        MOV     A,#(halTimerRecord + 4) & 0xff
        ADD     A,R0
        MOV     DPL,A
        MOV     A,#((halTimerRecord + 4) >> 8) & 0xff
        ADDC    A,R1
        MOV     DPH,A
        MOVX    A,@DPTR
        RET
        CFI EndBlock cfiCond64
        CFI EndBlock cfiCond65
        CFI EndBlock cfiCond66
        CFI EndBlock cfiCond67
        CFI EndBlock cfiCond68
        CFI EndBlock cfiCond69
        CFI EndBlock cfiPicker70

        RSEG BANKED_CODE:CODE:NOROOT(0)
?Subroutine14:
        CFI Block cfiCond71 Using cfiCommon0
        CFI NoFunction
        CFI Conditional ??CrossCallReturnLabel_16
        CFI R6 load(1, XDATA, add(CFA_XSP16, literal(-9)))
        CFI VB load(1, XDATA, add(CFA_XSP16, literal(-8)))
        CFI V0 load(1, XDATA, add(CFA_XSP16, literal(-7)))
        CFI R7 load(1, XDATA, add(CFA_XSP16, literal(-6)))
        CFI ?RET_LOW load(1, XDATA, add(CFA_XSP16, literal(-5)))
        CFI ?RET_HIGH load(1, XDATA, add(CFA_XSP16, literal(-4)))
        CFI ?BRET_EXT load(1, XDATA, add(CFA_XSP16, literal(-3)))
        CFI DPL0 load(1, XDATA, add(CFA_XSP16, literal(-2)))
        CFI DPH0 load(1, XDATA, add(CFA_XSP16, literal(-1)))
        CFI CFA_SP SP+0
        CFI CFA_XSP16 add(XSP16, 9)
        CFI Block cfiCond72 Using cfiCommon0
        CFI (cfiCond72) NoFunction
        CFI (cfiCond72) Conditional ??CrossCallReturnLabel_17, ??CrossCallReturnLabel_12, ??CrossCallReturnLabel_9
        CFI (cfiCond72) DPL0 Frame(CFA_SP, 4)
        CFI (cfiCond72) DPH0 Frame(CFA_SP, 5)
        CFI (cfiCond72) CFA_SP SP+-5
        CFI Block cfiCond73 Using cfiCommon0
        CFI (cfiCond73) NoFunction
        CFI (cfiCond73) Conditional ??CrossCallReturnLabel_17, ??CrossCallReturnLabel_12, ??CrossCallReturnLabel_10
        CFI (cfiCond73) DPL0 Frame(CFA_SP, 4)
        CFI (cfiCond73) DPH0 Frame(CFA_SP, 5)
        CFI (cfiCond73) CFA_SP SP+-5
        CFI Block cfiCond74 Using cfiCommon0
        CFI (cfiCond74) NoFunction
        CFI (cfiCond74) Conditional ??CrossCallReturnLabel_17, ??CrossCallReturnLabel_12, ??CrossCallReturnLabel_11
        CFI (cfiCond74) DPL0 Frame(CFA_SP, 4)
        CFI (cfiCond74) DPH0 Frame(CFA_SP, 5)
        CFI (cfiCond74) CFA_SP SP+-5
        CFI Block cfiCond75 Using cfiCommon0
        CFI (cfiCond75) NoFunction
        CFI (cfiCond75) Conditional ??CrossCallReturnLabel_17, ??CrossCallReturnLabel_13, ??CrossCallReturnLabel_6
        CFI (cfiCond75) DPL0 Frame(CFA_SP, 4)
        CFI (cfiCond75) DPH0 Frame(CFA_SP, 5)
        CFI (cfiCond75) CFA_SP SP+-5
        CFI Block cfiCond76 Using cfiCommon0
        CFI (cfiCond76) NoFunction
        CFI (cfiCond76) Conditional ??CrossCallReturnLabel_17, ??CrossCallReturnLabel_13, ??CrossCallReturnLabel_7
        CFI (cfiCond76) DPL0 Frame(CFA_SP, 4)
        CFI (cfiCond76) DPH0 Frame(CFA_SP, 5)
        CFI (cfiCond76) CFA_SP SP+-5
        CFI Block cfiCond77 Using cfiCommon0
        CFI (cfiCond77) NoFunction
        CFI (cfiCond77) Conditional ??CrossCallReturnLabel_17, ??CrossCallReturnLabel_13, ??CrossCallReturnLabel_8
        CFI (cfiCond77) DPL0 Frame(CFA_SP, 4)
        CFI (cfiCond77) DPH0 Frame(CFA_SP, 5)
        CFI (cfiCond77) CFA_SP SP+-5
        CFI Block cfiPicker78 Using cfiCommon1
        CFI (cfiPicker78) NoFunction
        CFI (cfiPicker78) Picker
        LCALL   ??halTimerRemap?relay
        MOV     A,R1
        MOV     B,#0xa
        MUL     AB
        MOV     R0,A
        MOV     R1,B
        RET
        CFI EndBlock cfiCond71
        CFI EndBlock cfiCond72
        CFI EndBlock cfiCond73
        CFI EndBlock cfiCond74
        CFI EndBlock cfiCond75
        CFI EndBlock cfiCond76
        CFI EndBlock cfiCond77
        CFI EndBlock cfiPicker78
//  766 
//  767 /***************************************************************************************************
//  768  * @fn      halProcessTimer4
//  769  *
//  770  * @brief   Processes Timer 4 Events.
//  771  *
//  772  * @param
//  773  *
//  774  * @return
//  775  ***************************************************************************************************/

        RSEG BANKED_CODE:CODE:NOROOT(0)
//  776 void halProcessTimer4 (void)
halProcessTimer4:
        CFI Block cfiBlock79 Using cfiCommon0
        CFI Function halProcessTimer4
        CODE
//  777 {
        FUNCALL halProcessTimer4, halTimerRemap
        LOCFRAME ISTACK, 2, STACK
        LOCFRAME PSTACK, 0, STACK
        LOCFRAME XSTACK, 0, STACK
        LOCFRAME IOVERLAY, 0, STATIC
        LOCFRAME DOVERLAY, 0, STATIC
        ARGFRAME ISTACK, 2, STACK
        ARGFRAME PSTACK, 0, STACK
        ARGFRAME XSTACK, 0, STACK
        ARGFRAME IOVERLAY, 0, STATIC
        ARGFRAME DOVERLAY, 0, STATIC
        FUNCALL halProcessTimer4, halTimerSendCallBack
        LOCFRAME ISTACK, 2, STACK
        LOCFRAME PSTACK, 0, STACK
        LOCFRAME XSTACK, 0, STACK
        LOCFRAME IOVERLAY, 0, STATIC
        LOCFRAME DOVERLAY, 0, STATIC
        ARGFRAME ISTACK, 2, STACK
        ARGFRAME PSTACK, 0, STACK
        ARGFRAME XSTACK, 0, STACK
        ARGFRAME IOVERLAY, 0, STATIC
        ARGFRAME DOVERLAY, 0, STATIC
        FUNCALL halProcessTimer4, halTimerSendCallBack
        LOCFRAME ISTACK, 2, STACK
        LOCFRAME PSTACK, 0, STACK
        LOCFRAME XSTACK, 0, STACK
        LOCFRAME IOVERLAY, 0, STATIC
        LOCFRAME DOVERLAY, 0, STATIC
        ARGFRAME ISTACK, 2, STACK
        ARGFRAME PSTACK, 0, STACK
        ARGFRAME XSTACK, 0, STACK
        ARGFRAME IOVERLAY, 0, STATIC
        ARGFRAME DOVERLAY, 0, STATIC
        FUNCALL halProcessTimer4, halTimerRemap
        LOCFRAME ISTACK, 2, STACK
        LOCFRAME PSTACK, 0, STACK
        LOCFRAME XSTACK, 0, STACK
        LOCFRAME IOVERLAY, 0, STATIC
        LOCFRAME DOVERLAY, 0, STATIC
        ARGFRAME ISTACK, 2, STACK
        ARGFRAME PSTACK, 0, STACK
        ARGFRAME XSTACK, 0, STACK
        ARGFRAME IOVERLAY, 0, STATIC
        ARGFRAME DOVERLAY, 0, STATIC
        FUNCALL halProcessTimer4, halTimerSendCallBack
        LOCFRAME ISTACK, 2, STACK
        LOCFRAME PSTACK, 0, STACK
        LOCFRAME XSTACK, 0, STACK
        LOCFRAME IOVERLAY, 0, STATIC
        LOCFRAME DOVERLAY, 0, STATIC
        ARGFRAME ISTACK, 2, STACK
        ARGFRAME PSTACK, 0, STACK
        ARGFRAME XSTACK, 0, STACK
        ARGFRAME IOVERLAY, 0, STATIC
        ARGFRAME DOVERLAY, 0, STATIC
        PUSH    DPL
        CFI DPL0 Frame(CFA_SP, 4)
        CFI CFA_SP SP+-4
        PUSH    DPH
        CFI DPH0 Frame(CFA_SP, 5)
        CFI CFA_SP SP+-5
        ; Saved register size: 2
        ; Auto size: 0
//  778   if (halTimerRecord[halTimerRemap(HAL_TIMER_2)].channelMode == HAL_TIMER_CH_MODE_OUTPUT_COMPARE)
        ; Setup parameters for call to function halTimerRemap
        MOV     R1,#0x2
        LCALL   ?Subroutine9 & 0xFFFF
??CrossCallReturnLabel_8:
        JNZ     ??halProcessTimer4_0
//  779   {
//  780     if (TIMIF & TIMIF_T4CH0IF)
        MOV     C,0xd8.4
        JNC     ??halProcessTimer4_1
//  781     {
//  782       TIMIF &= ~(TIMIF_T4CH0IF);
        CLR     0xd8.4
//  783       halTimerSendCallBack (HAL_TIMER_2, HAL_TIMER_CHANNEL_A, HAL_TIMER_CH_MODE_OUTPUT_COMPARE);
        ; Setup parameters for call to function halTimerSendCallBack
        MOV     R3,#0x2
        MOV     R2,#0x2
        MOV     R1,#0x2
        LCALL   ??halTimerSendCallBack?relay
//  784     }
//  785     if (TIMIF & TIMIF_T4CH1IF)
??halProcessTimer4_1:
        MOV     C,0xd8.5
        JNC     ??halProcessTimer4_2
//  786     {
//  787       TIMIF &= ~(TIMIF_T4CH1IF);
        CLR     0xd8.5
//  788       halTimerSendCallBack (HAL_TIMER_2, HAL_TIMER_CHANNEL_B, HAL_TIMER_CH_MODE_OUTPUT_COMPARE);
        ; Setup parameters for call to function halTimerSendCallBack
        MOV     R3,#0x2
        MOV     R2,#0x4
        SJMP    ??halProcessTimer4_3
//  789     }
//  790   }
//  791   else if (halTimerRecord[halTimerRemap(HAL_TIMER_2)].channelMode == HAL_TIMER_CH_MODE_OVERFLOW)
??halProcessTimer4_0:
        ; Setup parameters for call to function halTimerRemap
        MOV     R1,#0x2
        LCALL   ?Subroutine10 & 0xFFFF
??CrossCallReturnLabel_11:
        JNZ     ??halProcessTimer4_2
//  792   if (TIMIF & TIMIF_T4OVFIF)
        MOV     C,0xd8.3
        JNC     ??halProcessTimer4_2
//  793   {
//  794     TIMIF &= ~(TIMIF_T4OVFIF);
        CLR     0xd8.3
//  795     halTimerSendCallBack (HAL_TIMER_2, HAL_TIMER_CHANNEL_SINGLE, HAL_TIMER_CH_MODE_OVERFLOW);
        ; Setup parameters for call to function halTimerSendCallBack
        MOV     R3,#0x4
        MOV     R2,#0x1
??halProcessTimer4_3:
        MOV     R1,#0x2
        LCALL   ??halTimerSendCallBack?relay
//  796   }
//  797 }
??halProcessTimer4_2:
        LJMP    ?Subroutine0 & 0xFFFF
        CFI EndBlock cfiBlock79
        REQUIRE _A_TIMIF
//  798 
//  799 /***************************************************************************************************
//  800  *                                    INTERRUPT SERVICE ROUTINE
//  801  ***************************************************************************************************/
//  802 
//  803 /**************************************************************************************************
//  804  * @fn      halTimer1Isr
//  805  *
//  806  * @brief   Timer 1 ISR
//  807  *
//  808  * @param
//  809  *
//  810  * @return
//  811  **************************************************************************************************/

        RSEG NEAR_CODE:CODE:NOROOT(0)
//  812 HAL_ISR_FUNCTION( halTimer1Isr, T1_VECTOR )
halTimer1Isr:
        CFI Block cfiBlock80 Using cfiCommon1
        CFI Function halTimer1Isr
        CODE
//  813 { 
        PUSH    PSW
        CFI PSW Frame(CFA_SP, 3)
        CFI CFA_SP SP+-3
        PUSH    B
        CFI B Frame(CFA_SP, 4)
        CFI CFA_SP SP+-4
        ; Saved register size: 2
        ; Auto size: 0
//  814     SHIRSendPin=~SHIRSendPin;
        SETB    B.0
        MOV     C,0x80.7
        JNB     B.0,??halTimer1Isr_0
        CPL     C
??halTimer1Isr_0:
        MOV     0x80.7,C
//  815   //halProcessTimer1 ();
//  816 }
        POP     B
        CFI B SameValue
        CFI CFA_SP SP+-3
        POP     PSW
        CFI PSW SameValue
        CFI CFA_SP SP+-2
        RETI
        CFI EndBlock cfiBlock80
        REQUIRE _A_P0
//  817 
//  818 /**************************************************************************************************
//  819  * @fn      halTimer3Isr
//  820  *
//  821  * @brief   Timer 3 ISR
//  822  *
//  823  * @param
//  824  *
//  825  * @return
//  826  **************************************************************************************************/

        RSEG NEAR_CODE:CODE:NOROOT(0)
//  827 HAL_ISR_FUNCTION( halTimer3Isr, T3_VECTOR )
halTimer3Isr:
        CFI Block cfiBlock81 Using cfiCommon1
        CFI Function halTimer3Isr
        CODE
//  828 {
        FUNCALL halTimer3Isr, halProcessTimer3
        LOCFRAME ISTACK, 0, STACK
        LOCFRAME PSTACK, 0, STACK
        LOCFRAME XSTACK, 14, STACK
        LOCFRAME IOVERLAY, 0, STATIC
        LOCFRAME DOVERLAY, 0, STATIC
        ARGFRAME ISTACK, 0, STACK
        ARGFRAME PSTACK, 0, STACK
        ARGFRAME XSTACK, 14, STACK
        ARGFRAME IOVERLAY, 0, STATIC
        ARGFRAME DOVERLAY, 0, STATIC
        PUSH    A
        CFI A Frame(CFA_SP, 3)
        CFI CFA_SP SP+-3
        MOV     A,#-0xe
        LCALL   ?INTERRUPT_ENTER_XSP
        CFI B load(1, XDATA, add(CFA_XSP16, literal(-1)))
        CFI VB load(1, XDATA, add(CFA_XSP16, literal(-2)))
        CFI PSW load(1, XDATA, add(CFA_XSP16, literal(-3)))
        CFI DPL0 load(1, XDATA, add(CFA_XSP16, literal(-4)))
        CFI DPH0 load(1, XDATA, add(CFA_XSP16, literal(-5)))
        CFI R7 load(1, XDATA, add(CFA_XSP16, literal(-6)))
        CFI R6 load(1, XDATA, add(CFA_XSP16, literal(-7)))
        CFI R5 load(1, XDATA, add(CFA_XSP16, literal(-8)))
        CFI R4 load(1, XDATA, add(CFA_XSP16, literal(-9)))
        CFI V0 load(1, XDATA, add(CFA_XSP16, literal(-10)))
        CFI R3 load(1, XDATA, add(CFA_XSP16, literal(-11)))
        CFI R2 load(1, XDATA, add(CFA_XSP16, literal(-12)))
        CFI R1 load(1, XDATA, add(CFA_XSP16, literal(-13)))
        CFI R0 load(1, XDATA, add(CFA_XSP16, literal(-14)))
        CFI CFA_XSP16 add(XSP16, 14)
        ; Saved register size: 14
        ; Auto size: 0
//  829   halProcessTimer3 ();
        ; Setup parameters for call to function halProcessTimer3
        LCALL   ??halProcessTimer3?relay
        CFI EndBlock cfiBlock81
//  830 }
        REQUIRE ?Subroutine3
        ; // Fall through to label ?Subroutine3

        RSEG NEAR_CODE:CODE:NOROOT(0)
?Subroutine3:
        CFI Block cfiBlock82 Using cfiCommon1
        CFI NoFunction
        CFI CFA_SP SP+-3
        CFI CFA_XSP16 add(XSP16, 14)
        CFI VB load(1, XDATA, add(CFA_XSP16, literal(-2)))
        CFI B load(1, XDATA, add(CFA_XSP16, literal(-1)))
        CFI A Frame(CFA_SP, 3)
        CFI PSW load(1, XDATA, add(CFA_XSP16, literal(-3)))
        CFI DPL0 load(1, XDATA, add(CFA_XSP16, literal(-4)))
        CFI DPH0 load(1, XDATA, add(CFA_XSP16, literal(-5)))
        CFI R0 load(1, XDATA, add(CFA_XSP16, literal(-14)))
        CFI R1 load(1, XDATA, add(CFA_XSP16, literal(-13)))
        CFI R2 load(1, XDATA, add(CFA_XSP16, literal(-12)))
        CFI R3 load(1, XDATA, add(CFA_XSP16, literal(-11)))
        CFI R4 load(1, XDATA, add(CFA_XSP16, literal(-9)))
        CFI R5 load(1, XDATA, add(CFA_XSP16, literal(-8)))
        CFI R6 load(1, XDATA, add(CFA_XSP16, literal(-7)))
        CFI R7 load(1, XDATA, add(CFA_XSP16, literal(-6)))
        CFI V0 load(1, XDATA, add(CFA_XSP16, literal(-10)))
        MOV     R7,#0x1
        LJMP    ?INTERRUPT_LEAVE_XSP
        CFI EndBlock cfiBlock82
//  831 
//  832 /**************************************************************************************************
//  833  * @fn      halTimer4Isr
//  834  *
//  835  * @brief   Timer 4 ISR
//  836  *
//  837  * @param
//  838  *
//  839  * @return
//  840  **************************************************************************************************/

        RSEG NEAR_CODE:CODE:NOROOT(0)
//  841 HAL_ISR_FUNCTION( halTimer4Isr, T4_VECTOR )
halTimer4Isr:
        CFI Block cfiBlock83 Using cfiCommon1
        CFI Function halTimer4Isr
        CODE
//  842 {
        FUNCALL halTimer4Isr, halProcessTimer4
        LOCFRAME ISTACK, 0, STACK
        LOCFRAME PSTACK, 0, STACK
        LOCFRAME XSTACK, 14, STACK
        LOCFRAME IOVERLAY, 0, STATIC
        LOCFRAME DOVERLAY, 0, STATIC
        ARGFRAME ISTACK, 0, STACK
        ARGFRAME PSTACK, 0, STACK
        ARGFRAME XSTACK, 14, STACK
        ARGFRAME IOVERLAY, 0, STATIC
        ARGFRAME DOVERLAY, 0, STATIC
        PUSH    A
        CFI A Frame(CFA_SP, 3)
        CFI CFA_SP SP+-3
        MOV     A,#-0xe
        LCALL   ?INTERRUPT_ENTER_XSP
        CFI B load(1, XDATA, add(CFA_XSP16, literal(-1)))
        CFI VB load(1, XDATA, add(CFA_XSP16, literal(-2)))
        CFI PSW load(1, XDATA, add(CFA_XSP16, literal(-3)))
        CFI DPL0 load(1, XDATA, add(CFA_XSP16, literal(-4)))
        CFI DPH0 load(1, XDATA, add(CFA_XSP16, literal(-5)))
        CFI R7 load(1, XDATA, add(CFA_XSP16, literal(-6)))
        CFI R6 load(1, XDATA, add(CFA_XSP16, literal(-7)))
        CFI R5 load(1, XDATA, add(CFA_XSP16, literal(-8)))
        CFI R4 load(1, XDATA, add(CFA_XSP16, literal(-9)))
        CFI V0 load(1, XDATA, add(CFA_XSP16, literal(-10)))
        CFI R3 load(1, XDATA, add(CFA_XSP16, literal(-11)))
        CFI R2 load(1, XDATA, add(CFA_XSP16, literal(-12)))
        CFI R1 load(1, XDATA, add(CFA_XSP16, literal(-13)))
        CFI R0 load(1, XDATA, add(CFA_XSP16, literal(-14)))
        CFI CFA_XSP16 add(XSP16, 14)
        ; Saved register size: 14
        ; Auto size: 0
//  843   halProcessTimer4 ();
        ; Setup parameters for call to function halProcessTimer4
        LCALL   ??halProcessTimer4?relay
//  844 }
        SJMP    ?Subroutine3
        CFI EndBlock cfiBlock83

        COMMON INTVEC:CODE:ROOT(0)
        ORG 75
`??halTimer1Isr??INTVEC 75`:
        LJMP       (halTimer1Isr)

        COMMON INTVEC:CODE:ROOT(0)
        ORG 91
`??halTimer3Isr??INTVEC 91`:
        LJMP       (halTimer3Isr)

        COMMON INTVEC:CODE:ROOT(0)
        ORG 99
`??halTimer4Isr??INTVEC 99`:
        LJMP       (halTimer4Isr)

        RSEG BANK_RELAYS:CODE:REORDER:NOROOT(0)
??HalTimerInit?relay:
        LCALL   ?BDISPATCH
        DATA
        DC24    HalTimerInit

        RSEG BANK_RELAYS:CODE:REORDER:NOROOT(0)
??HalTimerConfig?relay:
        LCALL   ?BDISPATCH
        DATA
        DC24    HalTimerConfig

        RSEG BANK_RELAYS:CODE:REORDER:NOROOT(0)
??HalTimerStart?relay:
        LCALL   ?BDISPATCH
        DATA
        DC24    HalTimerStart

        RSEG BANK_RELAYS:CODE:REORDER:NOROOT(0)
??HalTimerTick?relay:
        LCALL   ?BDISPATCH
        DATA
        DC24    HalTimerTick

        RSEG BANK_RELAYS:CODE:REORDER:NOROOT(0)
??HalTimerStop?relay:
        LCALL   ?BDISPATCH
        DATA
        DC24    HalTimerStop

        RSEG BANK_RELAYS:CODE:REORDER:NOROOT(0)
??halTimerSetCount?relay:
        LCALL   ?BDISPATCH
        DATA
        DC24    halTimerSetCount

        RSEG BANK_RELAYS:CODE:REORDER:NOROOT(0)
??halTimerSetPrescale?relay:
        LCALL   ?BDISPATCH
        DATA
        DC24    halTimerSetPrescale

        RSEG BANK_RELAYS:CODE:REORDER:NOROOT(0)
??halTimerSetOpMode?relay:
        LCALL   ?BDISPATCH
        DATA
        DC24    halTimerSetOpMode

        RSEG BANK_RELAYS:CODE:REORDER:NOROOT(0)
??halTimerSetChannelMode?relay:
        LCALL   ?BDISPATCH
        DATA
        DC24    halTimerSetChannelMode

        RSEG BANK_RELAYS:CODE:REORDER:NOROOT(0)
??HalTimerInterruptEnable?relay:
        LCALL   ?BDISPATCH
        DATA
        DC24    HalTimerInterruptEnable

        RSEG BANK_RELAYS:CODE:REORDER:NOROOT(0)
??halTimerSendCallBack?relay:
        LCALL   ?BDISPATCH
        DATA
        DC24    halTimerSendCallBack

        RSEG BANK_RELAYS:CODE:REORDER:NOROOT(0)
??halTimerRemap?relay:
        LCALL   ?BDISPATCH
        DATA
        DC24    halTimerRemap

        RSEG BANK_RELAYS:CODE:REORDER:NOROOT(0)
??halProcessTimer1?relay:
        LCALL   ?BDISPATCH
        DATA
        DC24    halProcessTimer1

        RSEG BANK_RELAYS:CODE:REORDER:NOROOT(0)
??halProcessTimer3?relay:
        LCALL   ?BDISPATCH
        DATA
        DC24    halProcessTimer3

        RSEG BANK_RELAYS:CODE:REORDER:NOROOT(0)
??halProcessTimer4?relay:
        LCALL   ?BDISPATCH
        DATA
        DC24    halProcessTimer4

        END
//  845 
//  846 /***************************************************************************************************
//  847 ***************************************************************************************************/
//  848 
// 
// 1 427 bytes in segment BANKED_CODE
//    90 bytes in segment BANK_RELAYS
//     9 bytes in segment INTVEC
//    46 bytes in segment NEAR_CODE
//    13 bytes in segment SFR_AN
//    60 bytes in segment XDATA_Z
// 
// 1 563 bytes of CODE  memory (+  9 bytes shared)
//     0 bytes of DATA  memory (+ 13 bytes shared)
//    60 bytes of XDATA memory
//
//Errors: none
//Warnings: none
