///////////////////////////////////////////////////////////////////////////////
//                                                                            /
// IAR C/C++ Compiler V8.10.3.10338/W32 for 8051        17/Dec/2020  15:18:29 /
// Copyright 2004-2011 IAR Systems AB.                                        /
//                                                                            /
//    Core               =  plain                                             /
//    Code model         =  banked                                            /
//    Data model         =  large                                             /
//    Calling convention =  xdata reentrant                                   /
//    Constant location  =  data_rom                                          /
//    Dptr setup         =  1,16                                              /
//    Source file        =  C:\Users\Administrator\Desktop\SmartHomeApp\Proje /
//                          cts\zstack\Samples\SmartHomeApp\Source\SmartHomeA /
//                          pp.c                                              /
//    Command line       =  -f C:\Users\Administrator\Desktop\SmartHomeApp\Pr /
//                          ojects\zstack\Samples\SmartHomeApp\CC2530DB\..\.. /
//                          \..\Tools\CC2530DB\f8wEndev.cfg (-DCPU32MHZ       /
//                          -DROOT=__near_func -DBLINK_LEDS) -f               /
//                          C:\Users\Administrator\Desktop\SmartHomeApp\Proje /
//                          cts\zstack\Samples\SmartHomeApp\CC2530DB\..\..\.. /
//                          \Tools\CC2530DB\f8wConfig.cfg (-DSECURE=0         /
//                          -DZG_SECURE_DYNAMIC=0 -DREFLECTOR                 /
//                          -DDEFAULT_CHANLIST=0x00000800                     /
//                          -DZDAPP_CONFIG_PAN_ID=0xFFF1                      /
//                          -DNWK_START_DELAY=100 -DEXTENDED_JOINING_RANDOM_M /
//                          ASK=0x007F -DBEACON_REQUEST_DELAY=100             /
//                          -DBEACON_REQ_DELAY_MASK=0x00FF                    /
//                          -DROUTE_EXPIRY_TIME=30 -DAPSC_ACK_WAIT_DURATION_P /
//                          OLLED=3000 -DNWK_INDIRECT_MSG_TIMEOUT=7           /
//                          -DMAX_RREQ_ENTRIES=8 -DAPSC_MAX_FRAME_RETRIES=3   /
//                          -DNWK_MAX_DATA_RETRIES=2                          /
//                          -DMAX_POLL_FAILURE_RETRIES=2 -DMAX_BCAST=9        /
//                          -DAPS_MAX_GROUPS=16 -DMAX_RTG_ENTRIES=40          /
//                          -DNWK_MAX_BINDING_ENTRIES=4                       /
//                          -DMAX_BINDING_CLUSTER_IDS=4                       /
//                          "-DDEFAULT_KEY={0x01, 0x03, 0x05, 0x07, 0x09,     /
//                          0x0B, 0x0D, 0x0F, 0x00, 0x02, 0x04, 0x06, 0x08,   /
//                          0x0A, 0x0C, 0x0D}" -DMAC_MAX_FRAME_SIZE=116       /
//                          "-DCONST=const __code" -DGENERIC=__generic        /
//                          -DRFD_RCVC_ALWAYS_ON=FALSE -DPOLL_RATE=1000       /
//                          -DQUEUED_POLL_RATE=100 -DRESPONSE_POLL_RATE=100)  /
//                          -DREJOIN_POLL_RATE=440 C:\Users\Administrator\Des /
//                          ktop\SmartHomeApp\Projects\zstack\Samples\SmartHo /
//                          meApp\Source\SmartHomeApp.c -D ZIGBEEPRO -D       /
//                          NWK_AUTO_POLL -D ZTOOL_P1 -D xMT_TASK -D          /
//                          xMT_SYS_FUNC -D xMT_ZDO_FUNC -D                   /
//                          LCD_SUPPORTED=DEBUG -D ENDDEVICE_DHT11 -lC        /
//                          C:\Users\Administrator\Desktop\SmartHomeApp\Proje /
//                          cts\zstack\Samples\SmartHomeApp\CC2530DB\EndDevic /
//                          e_DHT11\List\ -lA C:\Users\Administrator\Desktop\ /
//                          SmartHomeApp\Projects\zstack\Samples\SmartHomeApp /
//                          \CC2530DB\EndDevice_DHT11\List\ --diag_suppress   /
//                          Pe001,Pa010 -o C:\Users\Administrator\Desktop\Sma /
//                          rtHomeApp\Projects\zstack\Samples\SmartHomeApp\CC /
//                          2530DB\EndDevice_DHT11\Obj\ -e --debug            /
//                          --core=plain --dptr=16,1 --data_model=large       /
//                          --code_model=banked --calling_convention=xdata_re /
//                          entrant --place_constants=data_rom                /
//                          --nr_virtual_regs 16 -I                           /
//                          C:\Users\Administrator\Desktop\SmartHomeApp\Proje /
//                          cts\zstack\Samples\SmartHomeApp\CC2530DB\ -I      /
//                          C:\Users\Administrator\Desktop\SmartHomeApp\Proje /
//                          cts\zstack\Samples\SmartHomeApp\CC2530DB\..\SOURC /
//                          E\ -I C:\Users\Administrator\Desktop\SmartHomeApp /
//                          \Projects\zstack\Samples\SmartHomeApp\CC2530DB\.. /
//                          \..\..\ZMAIN\TI2530DB\ -I                         /
//                          C:\Users\Administrator\Desktop\SmartHomeApp\Proje /
//                          cts\zstack\Samples\SmartHomeApp\CC2530DB\..\..\.. /
//                          \..\..\COMPONENTS\MT\ -I                          /
//                          C:\Users\Administrator\Desktop\SmartHomeApp\Proje /
//                          cts\zstack\Samples\SmartHomeApp\CC2530DB\..\..\.. /
//                          \..\..\COMPONENTS\HAL\INCLUDE\ -I                 /
//                          C:\Users\Administrator\Desktop\SmartHomeApp\Proje /
//                          cts\zstack\Samples\SmartHomeApp\CC2530DB\..\..\.. /
//                          \..\..\COMPONENTS\HAL\TARGET\CC2530EB\ -I         /
//                          C:\Users\Administrator\Desktop\SmartHomeApp\Proje /
//                          cts\zstack\Samples\SmartHomeApp\CC2530DB\..\..\.. /
//                          \..\..\COMPONENTS\OSAL\MCU\CCSOC\ -I              /
//                          C:\Users\Administrator\Desktop\SmartHomeApp\Proje /
//                          cts\zstack\Samples\SmartHomeApp\CC2530DB\..\..\.. /
//                          \..\..\COMPONENTS\OSAL\INCLUDE\ -I                /
//                          C:\Users\Administrator\Desktop\SmartHomeApp\Proje /
//                          cts\zstack\Samples\SmartHomeApp\CC2530DB\..\..\.. /
//                          \..\..\COMPONENTS\STACK\AF\ -I                    /
//                          C:\Users\Administrator\Desktop\SmartHomeApp\Proje /
//                          cts\zstack\Samples\SmartHomeApp\CC2530DB\..\..\.. /
//                          \..\..\COMPONENTS\STACK\NWK\ -I                   /
//                          C:\Users\Administrator\Desktop\SmartHomeApp\Proje /
//                          cts\zstack\Samples\SmartHomeApp\CC2530DB\..\..\.. /
//                          \..\..\COMPONENTS\STACK\SEC\ -I                   /
//                          C:\Users\Administrator\Desktop\SmartHomeApp\Proje /
//                          cts\zstack\Samples\SmartHomeApp\CC2530DB\..\..\.. /
//                          \..\..\COMPONENTS\STACK\SAPI\ -I                  /
//                          C:\Users\Administrator\Desktop\SmartHomeApp\Proje /
//                          cts\zstack\Samples\SmartHomeApp\CC2530DB\..\..\.. /
//                          \..\..\COMPONENTS\STACK\SYS\ -I                   /
//                          C:\Users\Administrator\Desktop\SmartHomeApp\Proje /
//                          cts\zstack\Samples\SmartHomeApp\CC2530DB\..\..\.. /
//                          \..\..\COMPONENTS\STACK\ZDO\ -I                   /
//                          C:\Users\Administrator\Desktop\SmartHomeApp\Proje /
//                          cts\zstack\Samples\SmartHomeApp\CC2530DB\..\..\.. /
//                          \..\..\COMPONENTS\ZMAC\F8W\ -I                    /
//                          C:\Users\Administrator\Desktop\SmartHomeApp\Proje /
//                          cts\zstack\Samples\SmartHomeApp\CC2530DB\..\..\.. /
//                          \..\..\COMPONENTS\ZMAC\ -I                        /
//                          C:\Users\Administrator\Desktop\SmartHomeApp\Proje /
//                          cts\zstack\Samples\SmartHomeApp\CC2530DB\..\..\.. /
//                          \..\..\COMPONENTS\SERVICES\SADDR\ -I              /
//                          C:\Users\Administrator\Desktop\SmartHomeApp\Proje /
//                          cts\zstack\Samples\SmartHomeApp\CC2530DB\..\..\.. /
//                          \..\..\COMPONENTS\SERVICES\SDATA\ -I              /
//                          C:\Users\Administrator\Desktop\SmartHomeApp\Proje /
//                          cts\zstack\Samples\SmartHomeApp\CC2530DB\..\..\.. /
//                          \..\..\COMPONENTS\MAC\INCLUDE\ -I                 /
//                          C:\Users\Administrator\Desktop\SmartHomeApp\Proje /
//                          cts\zstack\Samples\SmartHomeApp\CC2530DB\..\..\.. /
//                          \..\..\COMPONENTS\MAC\HIGH_LEVEL\ -I              /
//                          C:\Users\Administrator\Desktop\SmartHomeApp\Proje /
//                          cts\zstack\Samples\SmartHomeApp\CC2530DB\..\..\.. /
//                          \..\..\COMPONENTS\MAC\LOW_LEVEL\srf04\ -I         /
//                          C:\Users\Administrator\Desktop\SmartHomeApp\Proje /
//                          cts\zstack\Samples\SmartHomeApp\CC2530DB\..\..\.. /
//                          \..\..\COMPONENTS\MAC\LOW_LEVEL\srf04\SINGLE_CHIP /
//                          \ -Ohz                                            /
//    List file          =  C:\Users\Administrator\Desktop\SmartHomeApp\Proje /
//                          cts\zstack\Samples\SmartHomeApp\CC2530DB\EndDevic /
//                          e_DHT11\List\SmartHomeApp.s51                     /
//                                                                            /
//                                                                            /
///////////////////////////////////////////////////////////////////////////////

        NAME SmartHomeApp

        RTMODEL "__SystemLibrary", "CLib"
        RTMODEL "__calling_convention", "xdata_reentrant"
        RTMODEL "__code_model", "banked"
        RTMODEL "__core", "plain"
        RTMODEL "__data_model", "large"
        RTMODEL "__dptr_size", "16"
        RTMODEL "__extended_stack", "disabled"
        RTMODEL "__location_for_constants", "data"
        RTMODEL "__number_of_dptrs", "1"
        RTMODEL "__rt_version", "1"

        RSEG DOVERLAY:DATA:NOROOT(0)
        RSEG IOVERLAY:IDATA:NOROOT(0)
        RSEG ISTACK:IDATA:NOROOT(0)
        RSEG PSTACK:XDATA:NOROOT(0)
        RSEG XSTACK:XDATA:NOROOT(0)

        EXTERN ?ALLOC_XSTACK8
        EXTERN ?BANKED_ENTER_XDATA
        EXTERN ?BANKED_LEAVE_XDATA
        EXTERN ?BDISPATCH
        EXTERN ?BRET
        EXTERN ?DEALLOC_XSTACK8
        EXTERN ?MOVE_LONG8_XDATA_XDATA
        EXTERN ?PUSH_XSTACK8_X
        EXTERN ?PUSH_XSTACK_I_ONE
        EXTERN ?PUSH_XSTACK_I_THREE
        EXTERN ?PUSH_XSTACK_I_TWO
        EXTERN ?SS_SHR
        EXTERN ?S_SHL
        EXTERN ?UC_SWITCH_SPARSE
        EXTERN ?US_SHR
        EXTERN ?V0
        EXTERN ?XLOAD_R2345
        EXTERN ?XSP
        EXTERN ?XSTACK_DISP0_8
        EXTERN __INIT_XDATA_Z

        PUBLIC ??SHCoordReveiceUartMsg?relay
        FUNCTION ??SHCoordReveiceUartMsg?relay,0203H
        PUBLIC ??SHCoordSendDHT11Msg?relay
        FUNCTION ??SHCoordSendDHT11Msg?relay,0203H
        PUBLIC ??SHCoordSendFireAlarmMsg?relay
        FUNCTION ??SHCoordSendFireAlarmMsg?relay,0203H
        PUBLIC ??SHCoordSendMacAddrMsg?relay
        FUNCTION ??SHCoordSendMacAddrMsg?relay,0203H
        PUBLIC ??SHCoordSendUartMsg?relay
        FUNCTION ??SHCoordSendUartMsg?relay,0203H
        PUBLIC ??SHEndPointReveiceAirConMsg?relay
        FUNCTION ??SHEndPointReveiceAirConMsg?relay,0203H
        PUBLIC ??SHEndPointSendDHT11Msg?relay
        FUNCTION ??SHEndPointSendDHT11Msg?relay,0203H
        PUBLIC ??SHEndPointSendFireAlarmMsg?relay
        FUNCTION ??SHEndPointSendFireAlarmMsg?relay,0203H
        PUBLIC ??SHEndPointSendMacAddrMsg?relay
        FUNCTION ??SHEndPointSendMacAddrMsg?relay,0203H
        PUBLIC ??SHIRSendDelay_10us?relay
        FUNCTION ??SHIRSendDelay_10us?relay,0203H
        PUBLIC ??SHIR_Sending?relay
        FUNCTION ??SHIR_Sending?relay,0203H
        PUBLIC ??SmartHomeApp_HandleKeys?relay
        FUNCTION ??SmartHomeApp_HandleKeys?relay,0203H
        PUBLIC ??SmartHomeApp_Init?relay
        FUNCTION ??SmartHomeApp_Init?relay,0203H
        PUBLIC ??SmartHomeApp_MessageMSGCB?relay
        FUNCTION ??SmartHomeApp_MessageMSGCB?relay,0203H
        PUBLIC ??SmartHomeApp_ProcessEvent?relay
        FUNCTION ??SmartHomeApp_ProcessEvent?relay,0203H
        PUBLIC ??SmartHomeApp_SendFlashMessage?relay
        FUNCTION ??SmartHomeApp_SendFlashMessage?relay,0203H
        PUBLIC ??SmartHomeApp_SendPeriodicMessage?relay
        FUNCTION ??SmartHomeApp_SendPeriodicMessage?relay,0203H
        PUBLIC ??SmartHomeApp_Send_P2P_Message?relay
        FUNCTION ??SmartHomeApp_Send_P2P_Message?relay,0203H
        PUBLIC ??callBackFunction?relay
        FUNCTION ??callBackFunction?relay,0203H
        PUBWEAK P0DIR
        PUBWEAK P0INP
        PUBWEAK P0SEL
        PUBLIC SHCoordReveiceUartMsg
        FUNCTION SHCoordReveiceUartMsg,021203H
        ARGFRAME XSTACK, 0, STACK
        LOCFRAME ISTACK, 1, STACK
        LOCFRAME XSTACK, 40, STACK
        PUBLIC SHCoordSendDHT11Msg
        FUNCTION SHCoordSendDHT11Msg,021203H
        ARGFRAME XSTACK, 12, STACK
        ARGFRAME IOVERLAY, 0, STATIC
        ARGFRAME DOVERLAY, 0, STATIC
        LOCFRAME ISTACK, 3, STACK
        LOCFRAME XSTACK, 50, STACK
        PUBLIC SHCoordSendFireAlarmMsg
        FUNCTION SHCoordSendFireAlarmMsg,021203H
        ARGFRAME XSTACK, 0, STACK
        LOCFRAME ISTACK, 2, STACK
        PUBLIC SHCoordSendMacAddrMsg
        FUNCTION SHCoordSendMacAddrMsg,021203H
        ARGFRAME XSTACK, 12, STACK
        ARGFRAME IOVERLAY, 0, STATIC
        ARGFRAME DOVERLAY, 0, STATIC
        LOCFRAME ISTACK, 3, STACK
        LOCFRAME XSTACK, 50, STACK
        PUBLIC SHCoordSendUartMsg
        FUNCTION SHCoordSendUartMsg,021203H
        ARGFRAME XSTACK, 50, STACK
        ARGFRAME IOVERLAY, 0, STATIC
        ARGFRAME DOVERLAY, 0, STATIC
        LOCFRAME ISTACK, 4, STACK
        LOCFRAME XSTACK, 50, STACK
        PUBLIC SHEndPointReveiceAirConMsg
        FUNCTION SHEndPointReveiceAirConMsg,021203H
        ARGFRAME XSTACK, 12, STACK
        ARGFRAME IOVERLAY, 0, STATIC
        ARGFRAME DOVERLAY, 0, STATIC
        LOCFRAME ISTACK, 1, STACK
        LOCFRAME XSTACK, 159, STACK
        PUBLIC SHEndPointSendDHT11Msg
        FUNCTION SHEndPointSendDHT11Msg,021203H
        ARGFRAME XSTACK, 12, STACK
        ARGFRAME IOVERLAY, 0, STATIC
        ARGFRAME DOVERLAY, 0, STATIC
        LOCFRAME ISTACK, 2, STACK
        LOCFRAME XSTACK, 34, STACK
        PUBLIC SHEndPointSendFireAlarmMsg
        FUNCTION SHEndPointSendFireAlarmMsg,021203H
        ARGFRAME XSTACK, 0, STACK
        LOCFRAME XSTACK, 28, STACK
        PUBLIC SHEndPointSendMacAddrMsg
        FUNCTION SHEndPointSendMacAddrMsg,021203H
        ARGFRAME XSTACK, 12, STACK
        ARGFRAME IOVERLAY, 0, STATIC
        ARGFRAME DOVERLAY, 0, STATIC
        LOCFRAME XSTACK, 19, STACK
        PUBLIC SHIRSendDelay_10us
        FUNCTION SHIRSendDelay_10us,0203H
        ARGFRAME XSTACK, 12, STACK
        ARGFRAME IOVERLAY, 0, STATIC
        ARGFRAME DOVERLAY, 0, STATIC
        PUBLIC SHIR_Sending
        FUNCTION SHIR_Sending,021203H
        ARGFRAME XSTACK, 157, STACK
        ARGFRAME IOVERLAY, 0, STATIC
        ARGFRAME DOVERLAY, 0, STATIC
        LOCFRAME XSTACK, 12, STACK
        PUBLIC SmartHomeAppFlashCounter
        PUBLIC SmartHomeAppPeriodicCounter
        PUBLIC SmartHomeApp_AirContidion_DstAddr
        PUBLIC SmartHomeApp_ClusterList
        PUBLIC SmartHomeApp_Flash_DstAddr
        PUBLIC SmartHomeApp_Group
        PUBLIC SmartHomeApp_HandleKeys
        FUNCTION SmartHomeApp_HandleKeys,021203H
        ARGFRAME XSTACK, 12, STACK
        ARGFRAME IOVERLAY, 0, STATIC
        ARGFRAME DOVERLAY, 0, STATIC
        LOCFRAME XSTACK, 10, STACK
        PUBLIC SmartHomeApp_Init
        FUNCTION SmartHomeApp_Init,021203H
        ARGFRAME XSTACK, 0, STACK
        LOCFRAME XSTACK, 14, STACK
        PUBLIC SmartHomeApp_MessageMSGCB
        FUNCTION SmartHomeApp_MessageMSGCB,0a1203H
        ARGFRAME XSTACK, 12, STACK
        ARGFRAME IOVERLAY, 0, STATIC
        ARGFRAME DOVERLAY, 0, STATIC
        LOCFRAME XSTACK, 12, STACK
        PUBLIC SmartHomeApp_NwkState
        PUBLIC SmartHomeApp_P2P_DstAddr
        PUBLIC SmartHomeApp_Periodic_DstAddr
        PUBLIC SmartHomeApp_ProcessEvent
        FUNCTION SmartHomeApp_ProcessEvent,021203H
        ARGFRAME XSTACK, 0, STACK
        LOCFRAME XSTACK, 12, STACK
        PUBLIC SmartHomeApp_SendFlashMessage
        FUNCTION SmartHomeApp_SendFlashMessage,0203H
        ARGFRAME XSTACK, 0, STACK
        PUBLIC SmartHomeApp_SendPeriodicMessage
        FUNCTION SmartHomeApp_SendPeriodicMessage,0203H
        ARGFRAME XSTACK, 0, STACK
        PUBLIC SmartHomeApp_Send_P2P_Message
        FUNCTION SmartHomeApp_Send_P2P_Message,0203H
        ARGFRAME XSTACK, 0, STACK
        PUBLIC SmartHomeApp_SimpleDesc
        PUBLIC SmartHomeApp_TaskID
        PUBLIC SmartHomeApp_TransID
        PUBLIC SmartHomeApp_epDesc
        PUBWEAK _A_IEN1
        PUBWEAK _A_P0
        PUBWEAK __Constant_d
        PUBLIC callBackFunction
        FUNCTION callBackFunction,0603H
        ARGFRAME XSTACK, 0, STACK
        PUBLIC `p`
        
        CFI Names cfiNames0
        CFI StackFrame CFA_SP SP IDATA
        CFI StackFrame CFA_PSP16 PSP16 XDATA
        CFI StackFrame CFA_XSP16 XSP16 XDATA
        CFI StaticOverlayFrame CFA_IOVERLAY IOVERLAY
        CFI StaticOverlayFrame CFA_DOVERLAY DOVERLAY
        CFI Resource `PSW.CY`:1, `B.BR0`:1, `B.BR1`:1, `B.BR2`:1, `B.BR3`:1
        CFI Resource `B.BR4`:1, `B.BR5`:1, `B.BR6`:1, `B.BR7`:1, `VB.BR8`:1
        CFI Resource `VB.BR9`:1, `VB.BR10`:1, `VB.BR11`:1, `VB.BR12`:1
        CFI Resource `VB.BR13`:1, `VB.BR14`:1, `VB.BR15`:1, VB:8, B:8, A:8
        CFI Resource PSW:8, DPL0:8, DPH0:8, R0:8, R1:8, R2:8, R3:8, R4:8, R5:8
        CFI Resource R6:8, R7:8, V0:8, V1:8, V2:8, V3:8, V4:8, V5:8, V6:8, V7:8
        CFI Resource V8:8, V9:8, V10:8, V11:8, V12:8, V13:8, V14:8, V15:8, SP:8
        CFI Resource PSPH:8, PSPL:8, PSP16:16, XSPH:8, XSPL:8, XSP16:16
        CFI VirtualResource ?RET:24
        CFI Resource ?BRET_EXT:8
        CFI VirtualResource ?RET_HIGH:8, ?RET_LOW:8
        CFI ResourceParts PSP16 PSPH, PSPL
        CFI ResourceParts XSP16 XSPH, XSPL
        CFI ResourceParts ?RET ?BRET_EXT, ?RET_HIGH, ?RET_LOW
        CFI EndNames cfiNames0
        
        CFI Common cfiCommon0 Using cfiNames0
        CFI CodeAlign 1
        CFI DataAlign -1
        CFI ReturnAddress ?RET CODE
        CFI CFA_DOVERLAY Used
        CFI CFA_IOVERLAY Used
        CFI CFA_SP SP+-3
        CFI CFA_PSP16 PSP16+0
        CFI CFA_XSP16 XSP16+0
        CFI `PSW.CY` SameValue
        CFI `B.BR0` SameValue
        CFI `B.BR1` SameValue
        CFI `B.BR2` SameValue
        CFI `B.BR3` SameValue
        CFI `B.BR4` SameValue
        CFI `B.BR5` SameValue
        CFI `B.BR6` SameValue
        CFI `B.BR7` SameValue
        CFI `VB.BR8` SameValue
        CFI `VB.BR9` SameValue
        CFI `VB.BR10` SameValue
        CFI `VB.BR11` SameValue
        CFI `VB.BR12` SameValue
        CFI `VB.BR13` SameValue
        CFI `VB.BR14` SameValue
        CFI `VB.BR15` SameValue
        CFI VB SameValue
        CFI B Undefined
        CFI A Undefined
        CFI PSW SameValue
        CFI DPL0 SameValue
        CFI DPH0 SameValue
        CFI R0 Undefined
        CFI R1 Undefined
        CFI R2 Undefined
        CFI R3 Undefined
        CFI R4 Undefined
        CFI R5 Undefined
        CFI R6 SameValue
        CFI R7 SameValue
        CFI V0 SameValue
        CFI V1 SameValue
        CFI V2 SameValue
        CFI V3 SameValue
        CFI V4 SameValue
        CFI V5 SameValue
        CFI V6 SameValue
        CFI V7 SameValue
        CFI V8 SameValue
        CFI V9 SameValue
        CFI V10 SameValue
        CFI V11 SameValue
        CFI V12 SameValue
        CFI V13 SameValue
        CFI V14 SameValue
        CFI V15 SameValue
        CFI PSPH Undefined
        CFI PSPL Undefined
        CFI XSPH Undefined
        CFI XSPL Undefined
        CFI ?RET Concat
        CFI ?BRET_EXT Frame(CFA_SP, 3)
        CFI ?RET_HIGH Frame(CFA_SP, 2)
        CFI ?RET_LOW Frame(CFA_SP, 1)
        CFI EndCommon cfiCommon0
        
        
        CFI Common cfiCommon1 Using cfiNames0
        CFI CodeAlign 1
        CFI DataAlign -1
        CFI ReturnAddress ?RET CODE
        CFI CFA_DOVERLAY Used
        CFI CFA_IOVERLAY Used
        CFI CFA_SP SP+-2
        CFI CFA_PSP16 PSP16+0
        CFI CFA_XSP16 XSP16+0
        CFI `PSW.CY` SameValue
        CFI `B.BR0` SameValue
        CFI `B.BR1` SameValue
        CFI `B.BR2` SameValue
        CFI `B.BR3` SameValue
        CFI `B.BR4` SameValue
        CFI `B.BR5` SameValue
        CFI `B.BR6` SameValue
        CFI `B.BR7` SameValue
        CFI `VB.BR8` SameValue
        CFI `VB.BR9` SameValue
        CFI `VB.BR10` SameValue
        CFI `VB.BR11` SameValue
        CFI `VB.BR12` SameValue
        CFI `VB.BR13` SameValue
        CFI `VB.BR14` SameValue
        CFI `VB.BR15` SameValue
        CFI VB SameValue
        CFI B SameValue
        CFI A SameValue
        CFI PSW SameValue
        CFI DPL0 SameValue
        CFI DPH0 SameValue
        CFI R0 SameValue
        CFI R1 SameValue
        CFI R2 SameValue
        CFI R3 SameValue
        CFI R4 SameValue
        CFI R5 SameValue
        CFI R6 SameValue
        CFI R7 SameValue
        CFI V0 SameValue
        CFI V1 SameValue
        CFI V2 SameValue
        CFI V3 SameValue
        CFI V4 SameValue
        CFI V5 SameValue
        CFI V6 SameValue
        CFI V7 SameValue
        CFI V8 SameValue
        CFI V9 SameValue
        CFI V10 SameValue
        CFI V11 SameValue
        CFI V12 SameValue
        CFI V13 SameValue
        CFI V14 SameValue
        CFI V15 SameValue
        CFI PSPH Undefined
        CFI PSPL Undefined
        CFI XSPH Undefined
        CFI XSPL Undefined
        CFI ?RET Concat
        CFI ?BRET_EXT SameValue
        CFI ?RET_HIGH Frame(CFA_SP, 2)
        CFI ?RET_LOW Frame(CFA_SP, 1)
        CFI EndCommon cfiCommon1
        
MT_UartInit         SYMBOL "MT_UartInit"
MT_UartRegisterTaskID SYMBOL "MT_UartRegisterTaskID"
HalTimerInit        SYMBOL "HalTimerInit"
HalTimerConfig      SYMBOL "HalTimerConfig"
HalTimerStart       SYMBOL "HalTimerStart"
afRegister          SYMBOL "afRegister"
RegisterForKeys     SYMBOL "RegisterForKeys"
osal_memcpy         SYMBOL "osal_memcpy"
aps_AddGroup        SYMBOL "aps_AddGroup"
HalLcdWriteString   SYMBOL "HalLcdWriteString"
osal_msg_receive    SYMBOL "osal_msg_receive"
osal_start_timerEx  SYMBOL "osal_start_timerEx"
osal_msg_deallocate SYMBOL "osal_msg_deallocate"
osal_rand           SYMBOL "osal_rand"
aps_FindGroup       SYMBOL "aps_FindGroup"
aps_RemoveGroup     SYMBOL "aps_RemoveGroup"
HalUARTWrite        SYMBOL "HalUARTWrite"
HalLedBlink         SYMBOL "HalLedBlink"
AF_DataRequest      SYMBOL "AF_DataRequest"
DHT11               SYMBOL "DHT11"
DelayMS             SYMBOL "DelayMS"
memset              SYMBOL "memset"
??AF_DataRequest?relay SYMBOL "?relay", AF_DataRequest
??DHT11?relay       SYMBOL "?relay", DHT11
??DelayMS?relay     SYMBOL "?relay", DelayMS
??HalLcdWriteString?relay SYMBOL "?relay", HalLcdWriteString
??HalLedBlink?relay SYMBOL "?relay", HalLedBlink
??HalTimerConfig?relay SYMBOL "?relay", HalTimerConfig
??HalTimerInit?relay SYMBOL "?relay", HalTimerInit
??HalTimerStart?relay SYMBOL "?relay", HalTimerStart
??HalUARTWrite?relay SYMBOL "?relay", HalUARTWrite
??MT_UartInit?relay SYMBOL "?relay", MT_UartInit
??MT_UartRegisterTaskID?relay SYMBOL "?relay", MT_UartRegisterTaskID
??RegisterForKeys?relay SYMBOL "?relay", RegisterForKeys
??afRegister?relay  SYMBOL "?relay", afRegister
??aps_AddGroup?relay SYMBOL "?relay", aps_AddGroup
??aps_FindGroup?relay SYMBOL "?relay", aps_FindGroup
??aps_RemoveGroup?relay SYMBOL "?relay", aps_RemoveGroup
??memset?relay      SYMBOL "?relay", memset
??osal_memcpy?relay SYMBOL "?relay", osal_memcpy
??osal_msg_deallocate?relay SYMBOL "?relay", osal_msg_deallocate
??osal_msg_receive?relay SYMBOL "?relay", osal_msg_receive
??osal_rand?relay   SYMBOL "?relay", osal_rand
??osal_start_timerEx?relay SYMBOL "?relay", osal_start_timerEx
SHCoordReveiceUartMsg SYMBOL "SHCoordReveiceUartMsg"
??SHCoordReveiceUartMsg?relay SYMBOL "?relay", SHCoordReveiceUartMsg
SHCoordSendDHT11Msg SYMBOL "SHCoordSendDHT11Msg"
??SHCoordSendDHT11Msg?relay SYMBOL "?relay", SHCoordSendDHT11Msg
SHCoordSendFireAlarmMsg SYMBOL "SHCoordSendFireAlarmMsg"
??SHCoordSendFireAlarmMsg?relay SYMBOL "?relay", SHCoordSendFireAlarmMsg
SHCoordSendMacAddrMsg SYMBOL "SHCoordSendMacAddrMsg"
??SHCoordSendMacAddrMsg?relay SYMBOL "?relay", SHCoordSendMacAddrMsg
SHCoordSendUartMsg  SYMBOL "SHCoordSendUartMsg"
??SHCoordSendUartMsg?relay SYMBOL "?relay", SHCoordSendUartMsg
SHEndPointReveiceAirConMsg SYMBOL "SHEndPointReveiceAirConMsg"
??SHEndPointReveiceAirConMsg?relay SYMBOL "?relay", SHEndPointReveiceAirConMsg
SHEndPointSendDHT11Msg SYMBOL "SHEndPointSendDHT11Msg"
??SHEndPointSendDHT11Msg?relay SYMBOL "?relay", SHEndPointSendDHT11Msg
SHEndPointSendFireAlarmMsg SYMBOL "SHEndPointSendFireAlarmMsg"
??SHEndPointSendFireAlarmMsg?relay SYMBOL "?relay", SHEndPointSendFireAlarmMsg
SHEndPointSendMacAddrMsg SYMBOL "SHEndPointSendMacAddrMsg"
??SHEndPointSendMacAddrMsg?relay SYMBOL "?relay", SHEndPointSendMacAddrMsg
SHIRSendDelay_10us  SYMBOL "SHIRSendDelay_10us"
??SHIRSendDelay_10us?relay SYMBOL "?relay", SHIRSendDelay_10us
SHIR_Sending        SYMBOL "SHIR_Sending"
??SHIR_Sending?relay SYMBOL "?relay", SHIR_Sending
SmartHomeApp_HandleKeys SYMBOL "SmartHomeApp_HandleKeys"
??SmartHomeApp_HandleKeys?relay SYMBOL "?relay", SmartHomeApp_HandleKeys
SmartHomeApp_Init   SYMBOL "SmartHomeApp_Init"
??SmartHomeApp_Init?relay SYMBOL "?relay", SmartHomeApp_Init
SmartHomeApp_MessageMSGCB SYMBOL "SmartHomeApp_MessageMSGCB"
??SmartHomeApp_MessageMSGCB?relay SYMBOL "?relay", SmartHomeApp_MessageMSGCB
SmartHomeApp_ProcessEvent SYMBOL "SmartHomeApp_ProcessEvent"
??SmartHomeApp_ProcessEvent?relay SYMBOL "?relay", SmartHomeApp_ProcessEvent
SmartHomeApp_SendFlashMessage SYMBOL "SmartHomeApp_SendFlashMessage"
??SmartHomeApp_SendFlashMessage?relay SYMBOL "?relay", SmartHomeApp_SendFlashMessage
SmartHomeApp_SendPeriodicMessage SYMBOL "SmartHomeApp_SendPeriodicMessage"
??SmartHomeApp_SendPeriodicMessage?relay SYMBOL "?relay", SmartHomeApp_SendPeriodicMessage
SmartHomeApp_Send_P2P_Message SYMBOL "SmartHomeApp_Send_P2P_Message"
??SmartHomeApp_Send_P2P_Message?relay SYMBOL "?relay", SmartHomeApp_Send_P2P_Message
callBackFunction    SYMBOL "callBackFunction"
??callBackFunction?relay SYMBOL "?relay", callBackFunction

        EXTERN MT_UartInit
        FUNCTION MT_UartInit,0202H
        ARGFRAME ISTACK, 0, STACK
        ARGFRAME PSTACK, 0, STACK
        ARGFRAME XSTACK, 11, STACK
        ARGFRAME IOVERLAY, 0, STATIC
        ARGFRAME DOVERLAY, 0, STATIC
        EXTERN MT_UartRegisterTaskID
        FUNCTION MT_UartRegisterTaskID,0202H
        ARGFRAME ISTACK, 0, STACK
        ARGFRAME PSTACK, 0, STACK
        ARGFRAME XSTACK, 11, STACK
        ARGFRAME IOVERLAY, 0, STATIC
        ARGFRAME DOVERLAY, 0, STATIC
        EXTERN HalTimerInit
        FUNCTION HalTimerInit,0202H
        ARGFRAME ISTACK, 0, STACK
        ARGFRAME PSTACK, 0, STACK
        ARGFRAME XSTACK, 11, STACK
        ARGFRAME IOVERLAY, 0, STATIC
        ARGFRAME DOVERLAY, 0, STATIC
        EXTERN HalTimerConfig
        FUNCTION HalTimerConfig,0202H
        ARGFRAME ISTACK, 0, STACK
        ARGFRAME PSTACK, 0, STACK
        ARGFRAME XSTACK, 13, STACK
        ARGFRAME IOVERLAY, 0, STATIC
        ARGFRAME DOVERLAY, 0, STATIC
        EXTERN HalTimerStart
        FUNCTION HalTimerStart,0202H
        ARGFRAME ISTACK, 0, STACK
        ARGFRAME PSTACK, 0, STACK
        ARGFRAME XSTACK, 11, STACK
        ARGFRAME IOVERLAY, 0, STATIC
        ARGFRAME DOVERLAY, 0, STATIC
        EXTERN afRegister
        FUNCTION afRegister,0202H
        ARGFRAME ISTACK, 0, STACK
        ARGFRAME PSTACK, 0, STACK
        ARGFRAME XSTACK, 11, STACK
        ARGFRAME IOVERLAY, 0, STATIC
        ARGFRAME DOVERLAY, 0, STATIC
        EXTERN RegisterForKeys
        FUNCTION RegisterForKeys,0202H
        ARGFRAME ISTACK, 0, STACK
        ARGFRAME PSTACK, 0, STACK
        ARGFRAME XSTACK, 11, STACK
        ARGFRAME IOVERLAY, 0, STATIC
        ARGFRAME DOVERLAY, 0, STATIC
        EXTERN osal_memcpy
        FUNCTION osal_memcpy,0202H
        ARGFRAME ISTACK, 0, STACK
        ARGFRAME PSTACK, 0, STACK
        ARGFRAME XSTACK, 28, STACK
        ARGFRAME IOVERLAY, 0, STATIC
        ARGFRAME DOVERLAY, 0, STATIC
        EXTERN aps_AddGroup
        FUNCTION aps_AddGroup,0202H
        ARGFRAME ISTACK, 0, STACK
        ARGFRAME PSTACK, 0, STACK
        ARGFRAME XSTACK, 11, STACK
        ARGFRAME IOVERLAY, 0, STATIC
        ARGFRAME DOVERLAY, 0, STATIC
        EXTERN HalLcdWriteString
        FUNCTION HalLcdWriteString,0202H
        ARGFRAME ISTACK, 0, STACK
        ARGFRAME PSTACK, 0, STACK
        ARGFRAME XSTACK, 11, STACK
        ARGFRAME IOVERLAY, 0, STATIC
        ARGFRAME DOVERLAY, 0, STATIC
        EXTERN osal_msg_receive
        FUNCTION osal_msg_receive,0202H
        ARGFRAME ISTACK, 0, STACK
        ARGFRAME PSTACK, 0, STACK
        ARGFRAME XSTACK, 12, STACK
        ARGFRAME IOVERLAY, 0, STATIC
        ARGFRAME DOVERLAY, 0, STATIC
        EXTERN osal_start_timerEx
        FUNCTION osal_start_timerEx,0202H
        ARGFRAME ISTACK, 0, STACK
        ARGFRAME PSTACK, 0, STACK
        ARGFRAME XSTACK, 12, STACK
        ARGFRAME IOVERLAY, 0, STATIC
        ARGFRAME DOVERLAY, 0, STATIC
        EXTERN osal_msg_deallocate
        FUNCTION osal_msg_deallocate,0202H
        ARGFRAME ISTACK, 0, STACK
        ARGFRAME PSTACK, 0, STACK
        ARGFRAME XSTACK, 12, STACK
        ARGFRAME IOVERLAY, 0, STATIC
        ARGFRAME DOVERLAY, 0, STATIC
        EXTERN osal_rand
        FUNCTION osal_rand,0202H
        ARGFRAME ISTACK, 0, STACK
        ARGFRAME PSTACK, 0, STACK
        ARGFRAME XSTACK, 12, STACK
        ARGFRAME IOVERLAY, 0, STATIC
        ARGFRAME DOVERLAY, 0, STATIC
        EXTERN aps_FindGroup
        FUNCTION aps_FindGroup,0202H
        ARGFRAME ISTACK, 0, STACK
        ARGFRAME PSTACK, 0, STACK
        ARGFRAME XSTACK, 10, STACK
        ARGFRAME IOVERLAY, 0, STATIC
        ARGFRAME DOVERLAY, 0, STATIC
        EXTERN aps_RemoveGroup
        FUNCTION aps_RemoveGroup,0202H
        ARGFRAME ISTACK, 0, STACK
        ARGFRAME PSTACK, 0, STACK
        ARGFRAME XSTACK, 10, STACK
        ARGFRAME IOVERLAY, 0, STATIC
        ARGFRAME DOVERLAY, 0, STATIC
        EXTERN HalUARTWrite
        FUNCTION HalUARTWrite,0202H
        ARGFRAME ISTACK, 2, STACK
        ARGFRAME PSTACK, 0, STACK
        ARGFRAME XSTACK, 50, STACK
        ARGFRAME IOVERLAY, 0, STATIC
        ARGFRAME DOVERLAY, 0, STATIC
        EXTERN HalLedBlink
        FUNCTION HalLedBlink,0202H
        ARGFRAME ISTACK, 0, STACK
        ARGFRAME PSTACK, 0, STACK
        ARGFRAME XSTACK, 12, STACK
        ARGFRAME IOVERLAY, 0, STATIC
        ARGFRAME DOVERLAY, 0, STATIC
        EXTERN AF_DataRequest
        FUNCTION AF_DataRequest,0202H
        ARGFRAME ISTACK, 0, STACK
        ARGFRAME PSTACK, 0, STACK
        ARGFRAME XSTACK, 40, STACK
        ARGFRAME IOVERLAY, 0, STATIC
        ARGFRAME DOVERLAY, 0, STATIC
        EXTERN DHT11
        FUNCTION DHT11,0202H
        ARGFRAME ISTACK, 0, STACK
        ARGFRAME PSTACK, 0, STACK
        ARGFRAME XSTACK, 25, STACK
        ARGFRAME IOVERLAY, 0, STATIC
        ARGFRAME DOVERLAY, 0, STATIC
        EXTERN DelayMS
        FUNCTION DelayMS,0200H
        ARGFRAME ISTACK, 0, STACK
        ARGFRAME PSTACK, 0, STACK
        ARGFRAME XSTACK, 19, STACK
        ARGFRAME IOVERLAY, 0, STATIC
        ARGFRAME DOVERLAY, 0, STATIC
        EXTERN memset
        FUNCTION memset,010202H
        ARGFRAME ISTACK, 0, STACK
        ARGFRAME PSTACK, 0, STACK
        ARGFRAME XSTACK, 159, STACK
        ARGFRAME IOVERLAY, 0, STATIC
        ARGFRAME DOVERLAY, 0, STATIC
        EXTERN ??AF_DataRequest?relay
        FUNCTION ??AF_DataRequest?relay,00H
        EXTERN ??DHT11?relay
        FUNCTION ??DHT11?relay,00H
        EXTERN ??DelayMS?relay
        FUNCTION ??DelayMS?relay,00H
        EXTERN ??HalLcdWriteString?relay
        FUNCTION ??HalLcdWriteString?relay,00H
        EXTERN ??HalLedBlink?relay
        FUNCTION ??HalLedBlink?relay,00H
        EXTERN ??HalTimerConfig?relay
        FUNCTION ??HalTimerConfig?relay,00H
        EXTERN ??HalTimerInit?relay
        FUNCTION ??HalTimerInit?relay,00H
        EXTERN ??HalTimerStart?relay
        FUNCTION ??HalTimerStart?relay,00H
        EXTERN ??HalUARTWrite?relay
        FUNCTION ??HalUARTWrite?relay,00H
        EXTERN ??MT_UartInit?relay
        FUNCTION ??MT_UartInit?relay,00H
        EXTERN ??MT_UartRegisterTaskID?relay
        FUNCTION ??MT_UartRegisterTaskID?relay,00H
        EXTERN ??RegisterForKeys?relay
        FUNCTION ??RegisterForKeys?relay,00H
        EXTERN ??afRegister?relay
        FUNCTION ??afRegister?relay,00H
        EXTERN ??aps_AddGroup?relay
        FUNCTION ??aps_AddGroup?relay,00H
        EXTERN ??aps_FindGroup?relay
        FUNCTION ??aps_FindGroup?relay,00H
        EXTERN ??aps_RemoveGroup?relay
        FUNCTION ??aps_RemoveGroup?relay,00H
        EXTERN ??memset?relay
        FUNCTION ??memset?relay,00H
        EXTERN ??osal_memcpy?relay
        FUNCTION ??osal_memcpy?relay,00H
        EXTERN ??osal_msg_deallocate?relay
        FUNCTION ??osal_msg_deallocate?relay,00H
        EXTERN ??osal_msg_receive?relay
        FUNCTION ??osal_msg_receive?relay,00H
        EXTERN ??osal_rand?relay
        FUNCTION ??osal_rand?relay,00H
        EXTERN ??osal_start_timerEx?relay
        FUNCTION ??osal_start_timerEx?relay,00H
        EXTERN aExtendedAddress
        EXTERN shidu_ge
        EXTERN shidu_shi
        EXTERN wendu_ge
        EXTERN wendu_shi

// C:\Users\Administrator\Desktop\SmartHomeApp\Projects\zstack\Samples\SmartHomeApp\Source\SmartHomeApp.c
//    1 /**************************************************************************************************
//    2   Filename:       SmartHomeApp.c
//    3   Revised:        $Date: 2009-03-18 15:56:27 -0700 (Wed, 18 Mar 2009) $
//    4   Revision:       $Revision: 19453 $
//    5 
//    6   Description:    Sample Application (no Profile).
//    7 
//    8 
//    9   Copyright 2007 Texas Instruments Incorporated. All rights reserved.
//   10 
//   11   IMPORTANT: Your use of this Software is limited to those specific rights
//   12   granted under the terms of a software license agreement between the user
//   13   who downloaded the software, his/her employer (which must be your employer)
//   14   and Texas Instruments Incorporated (the "License").  You may not use this
//   15   Software unless you agree to abide by the terms of the License. The License
//   16   limits your use, and you acknowledge, that the Software may not be modified,
//   17   copied or distributed unless embedded on a Texas Instruments microcontroller
//   18   or used solely and exclusively in conjunction with a Texas Instruments radio
//   19   frequency transceiver, which is integrated into your product.  Other than for
//   20   the foregoing purpose, you may not use, reproduce, copy, prepare derivative
//   21   works of, modify, distribute, perform, display or sell this Software and/or
//   22   its documentation for any purpose.
//   23 
//   24   YOU FURTHER ACKNOWLEDGE AND AGREE THAT THE SOFTWARE AND DOCUMENTATION ARE
//   25   PROVIDED AS IS?WITHOUT WARRANTY OF ANY KIND, EITHER EXPRESS OR IMPLIED,
//   26   INCLUDING WITHOUT LIMITATION, ANY WARRANTY OF MERCHANTABILITY, TITLE,
//   27   NON-INFRINGEMENT AND FITNESS FOR A PARTICULAR PURPOSE. IN NO EVENT SHALL
//   28   TEXAS INSTRUMENTS OR ITS LICENSORS BE LIABLE OR OBLIGATED UNDER CONTRACT,
//   29   NEGLIGENCE, STRICT LIABILITY, CONTRIBUTION, BREACH OF WARRANTY, OR OTHER
//   30   LEGAL EQUITABLE THEORY ANY DIRECT OR INDIRECT DAMAGES OR EXPENSES
//   31   INCLUDING BUT NOT LIMITED TO ANY INCIDENTAL, SPECIAL, INDIRECT, PUNITIVE
//   32   OR CONSEQUENTIAL DAMAGES, LOST PROFITS OR LOST DATA, COST OF PROCUREMENT
//   33   OF SUBSTITUTE GOODS, TECHNOLOGY, SERVICES, OR ANY CLAIMS BY THIRD PARTIES
//   34   (INCLUDING BUT NOT LIMITED TO ANY DEFENSE THEREOF), OR OTHER SIMILAR COSTS.
//   35 
//   36   Should you have any questions regarding your right to use this Software,
//   37   contact Texas Instruments Incorporated at www.TI.com.
//   38 **************************************************************************************************/
//   39 
//   40 /*********************************************************************
//   41   This application isn't intended to do anything useful, it is
//   42   intended to be a simple example of an application's structure.
//   43 
//   44   This application sends it's messages either as broadcast or
//   45   broadcast filtered group messages.  The other (more normal)
//   46   message addressing is unicast.  Most of the other sample
//   47   applications are written to support the unicast message model.
//   48 
//   49   Key control:
//   50     SW1:  Sends a flash command to all devices in Group 1.
//   51     SW2:  Adds/Removes (toggles) this device in and out
//   52           of Group 1.  This will enable and disable the
//   53           reception of the flash command.
//   54 *********************************************************************/
//   55 
//   56 /*********************************************************************
//   57  * INCLUDES
//   58  */
//   59 #include "OSAL.h"
//   60 #include "ZGlobals.h"
//   61 #include "AF.h"
//   62 #include "aps_groups.h"
//   63 #include "ZDApp.h"
//   64 
//   65 #include "SmartHomeApp.h"

        ASEGN SFR_AN:DATA:NOROOT,080H
// union <unnamed> volatile __sfr _A_P0
_A_P0:
        DATA8
        DS 1

        ASEGN SFR_AN:DATA:NOROOT,08fH
// unsigned char volatile __sfr P0INP
P0INP:
        DATA8
        DS 1

        ASEGN SFR_AN:DATA:NOROOT,0b8H
// union <unnamed> volatile __sfr _A_IEN1
_A_IEN1:
        DATA8
        DS 1

        ASEGN SFR_AN:DATA:NOROOT,0f3H
// unsigned char volatile __sfr P0SEL
P0SEL:
        DATA8
        DS 1

        ASEGN SFR_AN:DATA:NOROOT,0fdH
// unsigned char volatile __sfr P0DIR
P0DIR:
        DATA8
        DS 1
//   66 #include "SmartHomeAppHw.h"
//   67 
//   68 #include "OnBoard.h"
//   69 
//   70 /* HAL */
//   71 #include "hal_lcd.h"
//   72 #include "hal_led.h"
//   73 #include "hal_key.h"
//   74 #include "MT_UART.h"
//   75 #include "MT_APP.h"
//   76 #include "MT.h"
//   77 #include "stdio.h"
//   78 #include "string.h"
//   79 #include "DHT11.h"
//   80 #include "hal_types.h"
//   81 
//   82 /*********************************************************************
//   83  * MACROS
//   84  */
//   85 
//   86 /*********************************************************************
//   87  * CONSTANTS
//   88  */
//   89 
//   90 /*********************************************************************
//   91  * TYPEDEFS
//   92  */
//   93 
//   94 /*********************************************************************
//   95  * GLOBAL VARIABLES
//   96  */
//   97 
//   98 // This list should be filled with Application specific Cluster IDs.

        RSEG XDATA_ROM_C:CONST:REORDER:NOROOT(0)
        DATA32
//   99 const cId_t SmartHomeApp_ClusterList[SMARTHOMEAPP_MAX_CLUSTERS] =
SmartHomeApp_ClusterList:
        DATA16
        DW 101
        DW 102
//  100 {
//  101   SMARTHOMEAPP_PERIODIC_CLUSTERID,
//  102   SMARTHOMEAPP_FLASH_CLUSTERID
//  103 };
//  104 

        RSEG XDATA_ROM_C:CONST:REORDER:NOROOT(0)
        DATA8
//  105 const SimpleDescriptionFormat_t SmartHomeApp_SimpleDesc =
SmartHomeApp_SimpleDesc:
        DB 20
        DATA16
        DW 3848
        DW 1
        DATA8
        DB 0
        DB 2
        DATA16
        DW SmartHomeApp_ClusterList
        DATA8
        DB 2
        DATA16
        DW SmartHomeApp_ClusterList
//  106 {
//  107   SMARTHOMEAPP_ENDPOINT,              //  int Endpoint;
//  108   SMARTHOMEAPP_PROFID,                //  uint16 AppProfId[2];
//  109   SMARTHOMEAPP_DEVICEID,              //  uint16 AppDeviceId[2];
//  110   SMARTHOMEAPP_DEVICE_VERSION,        //  int   AppDevVer:4;
//  111   SMARTHOMEAPP_FLAGS,                 //  int   AppFlags:4;
//  112   SMARTHOMEAPP_MAX_CLUSTERS,          //  uint8  AppNumInClusters;
//  113   (cId_t *)SmartHomeApp_ClusterList,  //  uint8 *pAppInClusterList;
//  114   SMARTHOMEAPP_MAX_CLUSTERS,          //  uint8  AppNumInClusters;
//  115   (cId_t *)SmartHomeApp_ClusterList   //  uint8 *pAppInClusterList;
//  116 };
//  117 
//  118 // This is the Endpoint/Interface description.  It is defined here, but
//  119 // filled-in in SmartHomeApp_Init().  Another way to go would be to fill
//  120 // in the structure here and make it a "const" (in code space).  The
//  121 // way it's defined in this sample app it is define in RAM.

        RSEG XDATA_Z:XDATA:NOROOT(0)
        DATA8
//  122 endPointDesc_t SmartHomeApp_epDesc;
SmartHomeApp_epDesc:
        DS 6
        REQUIRE __INIT_XDATA_Z
//  123 
//  124 /*********************************************************************
//  125  * EXTERNAL VARIABLES
//  126  */
//  127 
//  128 /*********************************************************************
//  129  * EXTERNAL FUNCTIONS
//  130  */
//  131 
//  132 /*********************************************************************
//  133  * LOCAL VARIABLES
//  134  */

        RSEG XDATA_Z:XDATA:NOROOT(0)
        DATA8
//  135 uint8 SmartHomeApp_TaskID;   // Task ID for internal task/event processing
SmartHomeApp_TaskID:
        DS 1
        REQUIRE __INIT_XDATA_Z
//  136                           // This variable will be received when
//  137                           // SmartHomeApp_Init() is called.

        RSEG XDATA_Z:XDATA:NOROOT(0)
        DATA8
//  138 devStates_t SmartHomeApp_NwkState;
SmartHomeApp_NwkState:
        DS 1
        REQUIRE __INIT_XDATA_Z
//  139 

        RSEG XDATA_Z:XDATA:NOROOT(0)
        DATA8
//  140 uint8 SmartHomeApp_TransID;  // This is the unique message ID (counter)
SmartHomeApp_TransID:
        DS 1
        REQUIRE __INIT_XDATA_Z
//  141 

        RSEG XDATA_Z:XDATA:NOROOT(0)
        DATA8
//  142 afAddrType_t SmartHomeApp_Periodic_DstAddr; //广播
SmartHomeApp_Periodic_DstAddr:
        DS 12
        REQUIRE __INIT_XDATA_Z

        RSEG XDATA_Z:XDATA:NOROOT(0)
        DATA8
//  143 afAddrType_t SmartHomeApp_Flash_DstAddr;    //组播
SmartHomeApp_Flash_DstAddr:
        DS 12
        REQUIRE __INIT_XDATA_Z

        RSEG XDATA_Z:XDATA:NOROOT(0)
        DATA8
//  144 afAddrType_t SmartHomeApp_P2P_DstAddr;      //点播
SmartHomeApp_P2P_DstAddr:
        DS 12
        REQUIRE __INIT_XDATA_Z
//  145 
//  146 

        RSEG XDATA_Z:XDATA:NOROOT(0)
        DATA8
//  147 afAddrType_t SmartHomeApp_AirContidion_DstAddr;
SmartHomeApp_AirContidion_DstAddr:
        DS 12
        REQUIRE __INIT_XDATA_Z
//  148 

        RSEG XDATA_Z:XDATA:NOROOT(0)
        DATA8
//  149 aps_Group_t SmartHomeApp_Group;
SmartHomeApp_Group:
        DS 18
        REQUIRE __INIT_XDATA_Z
//  150 

        RSEG XDATA_Z:XDATA:NOROOT(0)
        DATA8
//  151 uint8 SmartHomeAppPeriodicCounter = 0;
SmartHomeAppPeriodicCounter:
        DS 1
        REQUIRE __INIT_XDATA_Z

        RSEG XDATA_Z:XDATA:NOROOT(0)
        DATA8
//  152 uint8 SmartHomeAppFlashCounter = 0;
SmartHomeAppFlashCounter:
        DS 1
        REQUIRE __INIT_XDATA_Z
//  153 
//  154 /*********************************************************************
//  155  * LOCAL FUNCTIONS
//  156  */
//  157 void SmartHomeApp_HandleKeys( uint8 shift, uint8 keys );
//  158 void SmartHomeApp_MessageMSGCB( afIncomingMSGPacket_t *pckt );
//  159 void SmartHomeApp_SendPeriodicMessage( void );
//  160 void SmartHomeApp_SendFlashMessage( uint16 flashTime );
//  161 void SmartHomeApp_Send_P2P_Message(void);
//  162 /*********************************************************************
//  163  * SMARTHOME FUNCTIONS
//  164  */
//  165 
//  166 void SHCoordSendUartMsg(uartSendMsg msg);
//  167 void SHCoordReveiceUartMsg(uint8 *receiveMsg,uint16 len);
//  168 
//  169 
//  170 
//  171  void SHEndPointSendMacAddrMsg(void);
//  172  void SHEndPointSendDHT11Msg(void);
//  173  void SHEndPointSendFireAlarmMsg(void);
//  174  
//  175  void SHCoordSendMacAddrMsg(afIncomingMSGPacket_t *pkt);
//  176  void SHCoordSendDHT11Msg(afIncomingMSGPacket_t *pkt);
//  177  void SHCoordSendFireAlarmMsg(afIncomingMSGPacket_t *pkt);
//  178 
//  179  void SHEndPointReveiceAirConMsg(afIncomingMSGPacket_t *pkt);
//  180 
//  181  void SHIRSendInit();
//  182  void SHIR_Sending(uint8 *Sendcode35,uint8 *Sendcode32);
//  183 
//  184 #define SHIRSendPin P0_7
//  185 #define SHMQ2ANDFIREPin P0_5            //定义P0.5口为传感器的输入端
//  186 
//  187 

        RSEG XDATA_Z:XDATA:NOROOT(0)
        DATA16
//  188 void  (*p)(uint8,uint8,uint8);
`p`:
        DS 2
        REQUIRE __INIT_XDATA_Z
//  189    
//  190 
//  191    

        RSEG BANKED_CODE:CODE:NOROOT(0)
//  192 void SHIRSendDelay_10us(uint16 usx10)
SHIRSendDelay_10us:
        CFI Block cfiBlock0 Using cfiCommon0
        CFI Function SHIRSendDelay_10us
        CODE
//  193 {                         
        ; Saved register size: 0
        ; Auto size: 0
//  194     unsigned int a=0,i=0;
//  195 	for(i=0;i<usx10;i++)
        MOV     R0,#0x0
        MOV     R1,#0x0
        SJMP    ??CrossCallReturnLabel_79
//  196 	{
//  197 		a = 12;
//  198 		while(a)
//  199 		{
//  200 			a--;
??SHIRSendDelay_10us_0:
        LCALL   ??Subroutine42_0 & 0xFFFF
??CrossCallReturnLabel_79:
        CLR     C
        MOV     A,R0
        SUBB    A,R2
        MOV     A,R1
        SUBB    A,R3
        JC      ??SHIRSendDelay_10us_0
//  201 		}			
//  202 	}
//  203 }
        LJMP    ?BRET
        CFI EndBlock cfiBlock0
//  204 
//  205 /*********************************************************************
//  206  * NETWORK LAYER CALLBACKS
//  207  */
//  208 
//  209 /*********************************************************************
//  210  * PUBLIC FUNCTIONS
//  211  */
//  212 
//  213 /*********************************************************************
//  214  * @fn      SmartHomeApp_Init
//  215  *
//  216  * @brief   Initialization function for the Generic App Task.
//  217  *          This is called during initialization and should contain
//  218  *          any application specific initialization (ie. hardware
//  219  *          initialization/setup, table initialization, power up
//  220  *          notificaiton ... ).
//  221  *
//  222  * @param   task_id - the ID assigned by OSAL.  This ID should be
//  223  *                    used to send messages and set timers.
//  224  *
//  225  * @return  none
//  226  */

        RSEG BANKED_CODE:CODE:NOROOT(0)
//  227 void SmartHomeApp_Init( uint8 task_id )
SmartHomeApp_Init:
        CFI Block cfiBlock1 Using cfiCommon0
        CFI Function SmartHomeApp_Init
        CODE
//  228 { 
        FUNCALL SmartHomeApp_Init, MT_UartInit
        LOCFRAME ISTACK, 0, STACK
        LOCFRAME PSTACK, 0, STACK
        LOCFRAME XSTACK, 11, STACK
        LOCFRAME IOVERLAY, 0, STATIC
        LOCFRAME DOVERLAY, 0, STATIC
        ARGFRAME ISTACK, 0, STACK
        ARGFRAME PSTACK, 0, STACK
        ARGFRAME XSTACK, 11, STACK
        ARGFRAME IOVERLAY, 0, STATIC
        ARGFRAME DOVERLAY, 0, STATIC
        FUNCALL SmartHomeApp_Init, MT_UartRegisterTaskID
        LOCFRAME ISTACK, 0, STACK
        LOCFRAME PSTACK, 0, STACK
        LOCFRAME XSTACK, 11, STACK
        LOCFRAME IOVERLAY, 0, STATIC
        LOCFRAME DOVERLAY, 0, STATIC
        ARGFRAME ISTACK, 0, STACK
        ARGFRAME PSTACK, 0, STACK
        ARGFRAME XSTACK, 11, STACK
        ARGFRAME IOVERLAY, 0, STATIC
        ARGFRAME DOVERLAY, 0, STATIC
        FUNCALL SmartHomeApp_Init, HalTimerInit
        LOCFRAME ISTACK, 0, STACK
        LOCFRAME PSTACK, 0, STACK
        LOCFRAME XSTACK, 11, STACK
        LOCFRAME IOVERLAY, 0, STATIC
        LOCFRAME DOVERLAY, 0, STATIC
        ARGFRAME ISTACK, 0, STACK
        ARGFRAME PSTACK, 0, STACK
        ARGFRAME XSTACK, 11, STACK
        ARGFRAME IOVERLAY, 0, STATIC
        ARGFRAME DOVERLAY, 0, STATIC
        FUNCALL SmartHomeApp_Init, HalTimerConfig
        LOCFRAME ISTACK, 0, STACK
        LOCFRAME PSTACK, 0, STACK
        LOCFRAME XSTACK, 13, STACK
        LOCFRAME IOVERLAY, 0, STATIC
        LOCFRAME DOVERLAY, 0, STATIC
        ARGFRAME ISTACK, 0, STACK
        ARGFRAME PSTACK, 0, STACK
        ARGFRAME XSTACK, 13, STACK
        ARGFRAME IOVERLAY, 0, STATIC
        ARGFRAME DOVERLAY, 0, STATIC
        FUNCALL SmartHomeApp_Init, HalTimerStart
        LOCFRAME ISTACK, 0, STACK
        LOCFRAME PSTACK, 0, STACK
        LOCFRAME XSTACK, 11, STACK
        LOCFRAME IOVERLAY, 0, STATIC
        LOCFRAME DOVERLAY, 0, STATIC
        ARGFRAME ISTACK, 0, STACK
        ARGFRAME PSTACK, 0, STACK
        ARGFRAME XSTACK, 11, STACK
        ARGFRAME IOVERLAY, 0, STATIC
        ARGFRAME DOVERLAY, 0, STATIC
        FUNCALL SmartHomeApp_Init, afRegister
        LOCFRAME ISTACK, 0, STACK
        LOCFRAME PSTACK, 0, STACK
        LOCFRAME XSTACK, 11, STACK
        LOCFRAME IOVERLAY, 0, STATIC
        LOCFRAME DOVERLAY, 0, STATIC
        ARGFRAME ISTACK, 0, STACK
        ARGFRAME PSTACK, 0, STACK
        ARGFRAME XSTACK, 11, STACK
        ARGFRAME IOVERLAY, 0, STATIC
        ARGFRAME DOVERLAY, 0, STATIC
        FUNCALL SmartHomeApp_Init, RegisterForKeys
        LOCFRAME ISTACK, 0, STACK
        LOCFRAME PSTACK, 0, STACK
        LOCFRAME XSTACK, 11, STACK
        LOCFRAME IOVERLAY, 0, STATIC
        LOCFRAME DOVERLAY, 0, STATIC
        ARGFRAME ISTACK, 0, STACK
        ARGFRAME PSTACK, 0, STACK
        ARGFRAME XSTACK, 11, STACK
        ARGFRAME IOVERLAY, 0, STATIC
        ARGFRAME DOVERLAY, 0, STATIC
        FUNCALL SmartHomeApp_Init, osal_memcpy
        LOCFRAME ISTACK, 0, STACK
        LOCFRAME PSTACK, 0, STACK
        LOCFRAME XSTACK, 14, STACK
        LOCFRAME IOVERLAY, 0, STATIC
        LOCFRAME DOVERLAY, 0, STATIC
        ARGFRAME ISTACK, 0, STACK
        ARGFRAME PSTACK, 0, STACK
        ARGFRAME XSTACK, 14, STACK
        ARGFRAME IOVERLAY, 0, STATIC
        ARGFRAME DOVERLAY, 0, STATIC
        FUNCALL SmartHomeApp_Init, aps_AddGroup
        LOCFRAME ISTACK, 0, STACK
        LOCFRAME PSTACK, 0, STACK
        LOCFRAME XSTACK, 11, STACK
        LOCFRAME IOVERLAY, 0, STATIC
        LOCFRAME DOVERLAY, 0, STATIC
        ARGFRAME ISTACK, 0, STACK
        ARGFRAME PSTACK, 0, STACK
        ARGFRAME XSTACK, 11, STACK
        ARGFRAME IOVERLAY, 0, STATIC
        ARGFRAME DOVERLAY, 0, STATIC
        FUNCALL SmartHomeApp_Init, HalLcdWriteString
        LOCFRAME ISTACK, 0, STACK
        LOCFRAME PSTACK, 0, STACK
        LOCFRAME XSTACK, 11, STACK
        LOCFRAME IOVERLAY, 0, STATIC
        LOCFRAME DOVERLAY, 0, STATIC
        ARGFRAME ISTACK, 0, STACK
        ARGFRAME PSTACK, 0, STACK
        ARGFRAME XSTACK, 11, STACK
        ARGFRAME IOVERLAY, 0, STATIC
        ARGFRAME DOVERLAY, 0, STATIC
        MOV     A,#-0xb
        LCALL   ?BANKED_ENTER_XDATA
        CFI DPH0 load(1, XDATA, add(CFA_XSP16, literal(-1)))
        CFI DPL0 load(1, XDATA, add(CFA_XSP16, literal(-2)))
        CFI ?BRET_EXT load(1, XDATA, add(CFA_XSP16, literal(-3)))
        CFI ?RET_HIGH load(1, XDATA, add(CFA_XSP16, literal(-4)))
        CFI ?RET_LOW load(1, XDATA, add(CFA_XSP16, literal(-5)))
        CFI R7 load(1, XDATA, add(CFA_XSP16, literal(-6)))
        CFI V2 load(1, XDATA, add(CFA_XSP16, literal(-7)))
        CFI V1 load(1, XDATA, add(CFA_XSP16, literal(-8)))
        CFI V0 load(1, XDATA, add(CFA_XSP16, literal(-9)))
        CFI VB load(1, XDATA, add(CFA_XSP16, literal(-10)))
        CFI R6 load(1, XDATA, add(CFA_XSP16, literal(-11)))
        CFI CFA_SP SP+0
        CFI CFA_XSP16 add(XSP16, 11)
        ; Saved register size: 11
        ; Auto size: 0
        MOV     A,R1
        MOV     R6,A
//  229   SmartHomeApp_TaskID = task_id;
        MOV     DPTR,#SmartHomeApp_TaskID
        MOVX    @DPTR,A
//  230   SmartHomeApp_NwkState = DEV_INIT;
        MOV     DPTR,#SmartHomeApp_NwkState
        MOV     A,#0x1
        MOVX    @DPTR,A
//  231   SmartHomeApp_TransID = 0;
        MOV     DPTR,#SmartHomeApp_TransID
        CLR     A
        MOVX    @DPTR,A
//  232   
//  233   MT_UartInit();                  //串口初始化
        ; Setup parameters for call to function MT_UartInit
        LCALL   ??MT_UartInit?relay
//  234   MT_UartRegisterTaskID(task_id); //注册串口任务
        ; Setup parameters for call to function MT_UartRegisterTaskID
        MOV     A,R6
        MOV     R1,A
        LCALL   ??MT_UartRegisterTaskID?relay
//  235   
//  236   HalTimerInit();
        ; Setup parameters for call to function HalTimerInit
        LCALL   ??HalTimerInit?relay
//  237 
//  238   p = callBackFunction;//(HAL_TIMER_0,HAL_TIMER_CHANNEL_SINGLE,HAL_TIMER_CH_MODE_OUTPUT_COMPARE)
        MOV     DPTR,#`p`
        MOV     A,#??callBackFunction?relay & 0xff
        MOVX    @DPTR,A
        INC     DPTR
        MOV     A,#(??callBackFunction?relay >> 8) & 0xff
        MOVX    @DPTR,A
//  239      
//  240    HalTimerConfig(HAL_TIMER_3,HAL_TIMER_MODE_CTC,HAL_TIMER_CHANNEL_SINGLE,
//  241    HAL_TIMER_CH_MODE_OUTPUT_COMPARE,TRUE,p);
        ; Setup parameters for call to function HalTimerConfig
        MOV     ?V0 + 0,#??callBackFunction?relay & 0xff
        MOV     ?V0 + 1,A
        MOV     R0,#?V0 + 0
        LCALL   ?PUSH_XSTACK_I_TWO
        CFI CFA_XSP16 add(XSP16, 13)
        MOV     R5,#0x1
        MOV     R4,#0x2
        MOV     R3,#0x1
        MOV     R2,#0x2
        MOV     R1,#0x3
        LCALL   ??HalTimerConfig?relay
        MOV     A,#0x2
        LCALL   ?DEALLOC_XSTACK8
        CFI CFA_XSP16 add(XSP16, 11)
//  242 
//  243    	P0DIR |= 0x80;           //P0.7定义为输出
        ORL     0xfd,#0x80
//  244 	P0INP &=  ~0x80;  
        ANL     0x8f,#0x7f
//  245   	SHIRSendPin = 0;
        CLR     0x80.7
//  246     HalTimerStart(HAL_TIMER_3,13);
        ; Setup parameters for call to function HalTimerStart
        MOV     DPTR,#__Constant_d
        LCALL   ?XLOAD_R2345
        MOV     R1,#0x3
        LCALL   ??HalTimerStart?relay
//  247     T1IE = 0;	
        CLR     0xb8.1
//  248 
//  249    
//  250   // Device hardware initialization can be added here or in main() (Zmain.c).
//  251   // If the hardware is application specific - add it here.
//  252   // If the hardware is other parts of the device add it in main().
//  253 
//  254  #if defined ( BUILD_ALL_DEVICES )
//  255   // The "Demo" target is setup to have BUILD_ALL_DEVICES and HOLD_AUTO_START
//  256   // We are looking at a jumper (defined in SmartHomeAppHw.c) to be jumpered
//  257   // together - if they are - we will start up a coordinator. Otherwise,
//  258   // the device will start as a router.
//  259   if ( readCoordinatorJumper() )
//  260     zgDeviceLogicalType = ZG_DEVICETYPE_COORDINATOR;
//  261   else
//  262     zgDeviceLogicalType = ZG_DEVICETYPE_ROUTER;
//  263 #endif // BUILD_ALL_DEVICES
//  264 
//  265 #if defined ( HOLD_AUTO_START )
//  266   // HOLD_AUTO_START is a compile option that will surpress ZDApp
//  267   //  from starting the device and wait for the application to
//  268   //  start the device.
//  269   ZDOInitDevice(0);
//  270 #endif
//  271 
//  272   // Setup for the periodic message's destination address
//  273   // Broadcast to everyone
//  274   SmartHomeApp_Periodic_DstAddr.addrMode = (afAddrMode_t)AddrBroadcast;//广播
        MOV     DPTR,#SmartHomeApp_Periodic_DstAddr + 8
        MOV     A,#0xf
        LCALL   ??Subroutine45_0 & 0xFFFF
//  275   SmartHomeApp_Periodic_DstAddr.endPoint = SMARTHOMEAPP_ENDPOINT;
//  276   SmartHomeApp_Periodic_DstAddr.addr.shortAddr = 0xFFFF;
??CrossCallReturnLabel_82:
        MOV     DPTR,#SmartHomeApp_Periodic_DstAddr
        MOV     A,#-0x1
        MOVX    @DPTR,A
        INC     DPTR
        MOVX    @DPTR,A
//  277 
//  278   // Setup for the flash command's destination address - Group 1
//  279   SmartHomeApp_Flash_DstAddr.addrMode = (afAddrMode_t)afAddrGroup;//组播
        MOV     DPTR,#SmartHomeApp_Flash_DstAddr + 8
        MOV     A,#0x1
        LCALL   ??Subroutine45_0 & 0xFFFF
//  280   SmartHomeApp_Flash_DstAddr.endPoint = SMARTHOMEAPP_ENDPOINT;
//  281   SmartHomeApp_Flash_DstAddr.addr.shortAddr = SMARTHOMEAPP_FLASH_GROUP;
??CrossCallReturnLabel_83:
        MOV     DPTR,#SmartHomeApp_Flash_DstAddr
        MOV     A,#0x1
        MOVX    @DPTR,A
        INC     DPTR
        CLR     A
        MOVX    @DPTR,A
//  282   
//  283   SmartHomeApp_P2P_DstAddr.addrMode = (afAddrMode_t)Addr16Bit; //点播 
        MOV     DPTR,#SmartHomeApp_P2P_DstAddr + 8
        LCALL   ?Subroutine13 & 0xFFFF
//  284   SmartHomeApp_P2P_DstAddr.endPoint = SMARTHOMEAPP_ENDPOINT; 
//  285   SmartHomeApp_P2P_DstAddr.addr.shortAddr = 0x0000;            //发给协调器
??CrossCallReturnLabel_80:
        MOV     DPTR,#SmartHomeApp_P2P_DstAddr
        CLR     A
        MOVX    @DPTR,A
        INC     DPTR
        MOVX    @DPTR,A
//  286 
//  287   // Fill out the endpoint description.
//  288   SmartHomeApp_epDesc.endPoint = SMARTHOMEAPP_ENDPOINT;
        MOV     DPTR,#SmartHomeApp_epDesc
        MOV     A,#0x14
        MOVX    @DPTR,A
//  289   SmartHomeApp_epDesc.task_id = &SmartHomeApp_TaskID;
        INC     DPTR
        MOV     A,#SmartHomeApp_TaskID & 0xff
        MOVX    @DPTR,A
        INC     DPTR
        MOV     A,#(SmartHomeApp_TaskID >> 8) & 0xff
        MOVX    @DPTR,A
//  290   SmartHomeApp_epDesc.simpleDesc
//  291             = (SimpleDescriptionFormat_t *)&SmartHomeApp_SimpleDesc;
        INC     DPTR
        MOV     A,#SmartHomeApp_SimpleDesc & 0xff
        MOVX    @DPTR,A
        INC     DPTR
        MOV     A,#(SmartHomeApp_SimpleDesc >> 8) & 0xff
        MOVX    @DPTR,A
//  292   SmartHomeApp_epDesc.latencyReq = noLatencyReqs;
        INC     DPTR
        CLR     A
        MOVX    @DPTR,A
//  293 
//  294   // Register the endpoint description with the AF
//  295   afRegister( &SmartHomeApp_epDesc );
        ; Setup parameters for call to function afRegister
        MOV     R2,#SmartHomeApp_epDesc & 0xff
        MOV     R3,#(SmartHomeApp_epDesc >> 8) & 0xff
        LCALL   ??afRegister?relay
//  296 
//  297   // Register for all key events - This app will handle all key events
//  298   RegisterForKeys( SmartHomeApp_TaskID );
        ; Setup parameters for call to function RegisterForKeys
        MOV     DPTR,#SmartHomeApp_TaskID
        MOVX    A,@DPTR
        MOV     R1,A
        LCALL   ??RegisterForKeys?relay
//  299 
//  300   // By default, all devices start out in Group 1
//  301   SmartHomeApp_Group.ID = 0x0001;
        MOV     DPTR,#SmartHomeApp_Group
        MOV     A,#0x1
        MOVX    @DPTR,A
        INC     DPTR
        CLR     A
        MOVX    @DPTR,A
//  302   osal_memcpy( SmartHomeApp_Group.name, "Group 1", 7  );
        ; Setup parameters for call to function osal_memcpy
        MOV     ?V0 + 0,#`?<Constant "Group 1">` & 0xff
        MOV     ?V0 + 1,#(`?<Constant "Group 1">` >> 8) & 0xff
        MOV     ?V0 + 2,A
        MOV     R0,#?V0 + 0
        LCALL   ?PUSH_XSTACK_I_THREE
        CFI CFA_XSP16 add(XSP16, 14)
        MOV     R4,#0x7
        MOV     R5,#0x0
        MOV     R2,#(SmartHomeApp_Group + 2) & 0xff
        MOV     R3,#((SmartHomeApp_Group + 2) >> 8) & 0xff
        LCALL   ??Subroutine40_0 & 0xFFFF
??CrossCallReturnLabel_66:
        LCALL   ?DEALLOC_XSTACK8
        CFI CFA_XSP16 add(XSP16, 11)
//  303   aps_AddGroup( SMARTHOMEAPP_ENDPOINT, &SmartHomeApp_Group );
        ; Setup parameters for call to function aps_AddGroup
        MOV     R2,#SmartHomeApp_Group & 0xff
        MOV     R3,#(SmartHomeApp_Group >> 8) & 0xff
        MOV     R1,#0x14
        LCALL   ??aps_AddGroup?relay
//  304 
//  305 #if defined ( LCD_SUPPORTED )
//  306   HalLcdWriteString( "SmartHomeApp", HAL_LCD_LINE_1 );
        ; Setup parameters for call to function HalLcdWriteString
        MOV     R1,#0x1
        MOV     R2,#`?<Constant "SmartHomeApp">` & 0xff
        MOV     R3,#(`?<Constant "SmartHomeApp">` >> 8) & 0xff
        LCALL   ??HalLcdWriteString?relay
//  307 #endif
//  308 }
        LJMP    ??Subroutine38_0 & 0xFFFF
        CFI EndBlock cfiBlock1
        REQUIRE P0DIR
        REQUIRE P0INP
        REQUIRE _A_P0
        REQUIRE _A_IEN1
//  309 
//  310 /*********************************************************************
//  311  * @fn      SmartHomeApp_ProcessEvent
//  312  *
//  313  * @brief   Generic Application Task event processor.  This function
//  314  *          is called to process all events for the task.  Events
//  315  *          include timers, messages and any other user defined events.
//  316  *
//  317  * @param   task_id  - The OSAL assigned task ID.
//  318  * @param   events - events to process.  This is a bit map and can
//  319  *                   contain more than one event.
//  320  *
//  321  * @return  none
//  322  */

        RSEG BANKED_CODE:CODE:NOROOT(0)
//  323 uint16 SmartHomeApp_ProcessEvent( uint8 task_id, uint16 events )
SmartHomeApp_ProcessEvent:
        CFI Block cfiBlock2 Using cfiCommon0
        CFI Function SmartHomeApp_ProcessEvent
        CODE
//  324 {
        FUNCALL SmartHomeApp_ProcessEvent, osal_msg_receive
        LOCFRAME ISTACK, 0, STACK
        LOCFRAME PSTACK, 0, STACK
        LOCFRAME XSTACK, 12, STACK
        LOCFRAME IOVERLAY, 0, STATIC
        LOCFRAME DOVERLAY, 0, STATIC
        ARGFRAME ISTACK, 0, STACK
        ARGFRAME PSTACK, 0, STACK
        ARGFRAME XSTACK, 12, STACK
        ARGFRAME IOVERLAY, 0, STATIC
        ARGFRAME DOVERLAY, 0, STATIC
        FUNCALL SmartHomeApp_ProcessEvent, SHEndPointSendMacAddrMsg
        LOCFRAME ISTACK, 0, STACK
        LOCFRAME PSTACK, 0, STACK
        LOCFRAME XSTACK, 12, STACK
        LOCFRAME IOVERLAY, 0, STATIC
        LOCFRAME DOVERLAY, 0, STATIC
        ARGFRAME ISTACK, 0, STACK
        ARGFRAME PSTACK, 0, STACK
        ARGFRAME XSTACK, 12, STACK
        ARGFRAME IOVERLAY, 0, STATIC
        ARGFRAME DOVERLAY, 0, STATIC
        FUNCALL SmartHomeApp_ProcessEvent, osal_start_timerEx
        LOCFRAME ISTACK, 0, STACK
        LOCFRAME PSTACK, 0, STACK
        LOCFRAME XSTACK, 12, STACK
        LOCFRAME IOVERLAY, 0, STATIC
        LOCFRAME DOVERLAY, 0, STATIC
        ARGFRAME ISTACK, 0, STACK
        ARGFRAME PSTACK, 0, STACK
        ARGFRAME XSTACK, 12, STACK
        ARGFRAME IOVERLAY, 0, STATIC
        ARGFRAME DOVERLAY, 0, STATIC
        FUNCALL SmartHomeApp_ProcessEvent, osal_msg_deallocate
        LOCFRAME ISTACK, 0, STACK
        LOCFRAME PSTACK, 0, STACK
        LOCFRAME XSTACK, 12, STACK
        LOCFRAME IOVERLAY, 0, STATIC
        LOCFRAME DOVERLAY, 0, STATIC
        ARGFRAME ISTACK, 0, STACK
        ARGFRAME PSTACK, 0, STACK
        ARGFRAME XSTACK, 12, STACK
        ARGFRAME IOVERLAY, 0, STATIC
        ARGFRAME DOVERLAY, 0, STATIC
        FUNCALL SmartHomeApp_ProcessEvent, osal_msg_receive
        LOCFRAME ISTACK, 0, STACK
        LOCFRAME PSTACK, 0, STACK
        LOCFRAME XSTACK, 12, STACK
        LOCFRAME IOVERLAY, 0, STATIC
        LOCFRAME DOVERLAY, 0, STATIC
        ARGFRAME ISTACK, 0, STACK
        ARGFRAME PSTACK, 0, STACK
        ARGFRAME XSTACK, 12, STACK
        ARGFRAME IOVERLAY, 0, STATIC
        ARGFRAME DOVERLAY, 0, STATIC
        FUNCALL SmartHomeApp_ProcessEvent, SmartHomeApp_HandleKeys
        LOCFRAME ISTACK, 0, STACK
        LOCFRAME PSTACK, 0, STACK
        LOCFRAME XSTACK, 12, STACK
        LOCFRAME IOVERLAY, 0, STATIC
        LOCFRAME DOVERLAY, 0, STATIC
        ARGFRAME ISTACK, 0, STACK
        ARGFRAME PSTACK, 0, STACK
        ARGFRAME XSTACK, 12, STACK
        ARGFRAME IOVERLAY, 0, STATIC
        ARGFRAME DOVERLAY, 0, STATIC
        FUNCALL SmartHomeApp_ProcessEvent, SmartHomeApp_MessageMSGCB
        LOCFRAME ISTACK, 0, STACK
        LOCFRAME PSTACK, 0, STACK
        LOCFRAME XSTACK, 12, STACK
        LOCFRAME IOVERLAY, 0, STATIC
        LOCFRAME DOVERLAY, 0, STATIC
        ARGFRAME ISTACK, 0, STACK
        ARGFRAME PSTACK, 0, STACK
        ARGFRAME XSTACK, 12, STACK
        ARGFRAME IOVERLAY, 0, STATIC
        ARGFRAME DOVERLAY, 0, STATIC
        FUNCALL SmartHomeApp_ProcessEvent, osal_rand
        LOCFRAME ISTACK, 0, STACK
        LOCFRAME PSTACK, 0, STACK
        LOCFRAME XSTACK, 12, STACK
        LOCFRAME IOVERLAY, 0, STATIC
        LOCFRAME DOVERLAY, 0, STATIC
        ARGFRAME ISTACK, 0, STACK
        ARGFRAME PSTACK, 0, STACK
        ARGFRAME XSTACK, 12, STACK
        ARGFRAME IOVERLAY, 0, STATIC
        ARGFRAME DOVERLAY, 0, STATIC
        FUNCALL SmartHomeApp_ProcessEvent, osal_start_timerEx
        LOCFRAME ISTACK, 0, STACK
        LOCFRAME PSTACK, 0, STACK
        LOCFRAME XSTACK, 12, STACK
        LOCFRAME IOVERLAY, 0, STATIC
        LOCFRAME DOVERLAY, 0, STATIC
        ARGFRAME ISTACK, 0, STACK
        ARGFRAME PSTACK, 0, STACK
        ARGFRAME XSTACK, 12, STACK
        ARGFRAME IOVERLAY, 0, STATIC
        ARGFRAME DOVERLAY, 0, STATIC
        FUNCALL SmartHomeApp_ProcessEvent, SHEndPointSendDHT11Msg
        LOCFRAME ISTACK, 0, STACK
        LOCFRAME PSTACK, 0, STACK
        LOCFRAME XSTACK, 12, STACK
        LOCFRAME IOVERLAY, 0, STATIC
        LOCFRAME DOVERLAY, 0, STATIC
        ARGFRAME ISTACK, 0, STACK
        ARGFRAME PSTACK, 0, STACK
        ARGFRAME XSTACK, 12, STACK
        ARGFRAME IOVERLAY, 0, STATIC
        ARGFRAME DOVERLAY, 0, STATIC
        MOV     A,#-0xc
        LCALL   ?BANKED_ENTER_XDATA
        CFI DPH0 load(1, XDATA, add(CFA_XSP16, literal(-1)))
        CFI DPL0 load(1, XDATA, add(CFA_XSP16, literal(-2)))
        CFI ?BRET_EXT load(1, XDATA, add(CFA_XSP16, literal(-3)))
        CFI ?RET_HIGH load(1, XDATA, add(CFA_XSP16, literal(-4)))
        CFI ?RET_LOW load(1, XDATA, add(CFA_XSP16, literal(-5)))
        CFI R7 load(1, XDATA, add(CFA_XSP16, literal(-6)))
        CFI V3 load(1, XDATA, add(CFA_XSP16, literal(-7)))
        CFI V2 load(1, XDATA, add(CFA_XSP16, literal(-8)))
        CFI V1 load(1, XDATA, add(CFA_XSP16, literal(-9)))
        CFI V0 load(1, XDATA, add(CFA_XSP16, literal(-10)))
        CFI VB load(1, XDATA, add(CFA_XSP16, literal(-11)))
        CFI R6 load(1, XDATA, add(CFA_XSP16, literal(-12)))
        CFI CFA_SP SP+0
        CFI CFA_XSP16 add(XSP16, 12)
        ; Saved register size: 12
        ; Auto size: 0
        MOV     A,R2
        MOV     R6,A
        MOV     A,R3
        MOV     R7,A
//  325   afIncomingMSGPacket_t *MSGpkt;
//  326   (void)task_id;  // Intentionally unreferenced parameter
//  327 
//  328   if ( events & SYS_EVENT_MSG )
        ANL     A,#0x80
        JZ      ??SmartHomeApp_ProcessEvent_0
//  329   {
//  330     MSGpkt = (afIncomingMSGPacket_t *)osal_msg_receive( SmartHomeApp_TaskID );
        ; Setup parameters for call to function osal_msg_receive
        SJMP    ??SmartHomeApp_ProcessEvent_1
//  331     while ( MSGpkt )
//  332     {
//  333       switch ( MSGpkt->hdr.event )
//  334       {
//  335         // Received when a key is pressed
//  336         case KEY_CHANGE:
//  337           SmartHomeApp_HandleKeys( ((keyChange_t *)MSGpkt)->state, ((keyChange_t *)MSGpkt)->keys );
//  338           break;
//  339 
//  340         // Received when a messages is received (OTA) for this endpoint
//  341         case AF_INCOMING_MSG_CMD:
//  342           SmartHomeApp_MessageMSGCB( MSGpkt );
//  343           break;
//  344 
//  345         // Received whenever the device changes state in the network
//  346         case ZDO_STATE_CHANGE:
//  347           SmartHomeApp_NwkState = (devStates_t)(MSGpkt->hdr.status);
??SmartHomeApp_ProcessEvent_2:
        INC     DPTR
        MOVX    A,@DPTR
        MOV     DPTR,#SmartHomeApp_NwkState
        MOVX    @DPTR,A
//  348           if ( //(SmartHomeApp_NwkState == DEV_ZB_COORD) ||
//  349                  (SmartHomeApp_NwkState == DEV_ROUTER)
//  350               || (SmartHomeApp_NwkState == DEV_END_DEVICE) )
        XRL     A,#0x7
        JZ      ??SmartHomeApp_ProcessEvent_3
        MOVX    A,@DPTR
        XRL     A,#0x6
        JNZ     ??SmartHomeApp_ProcessEvent_4
//  351           {
//  352             // Start sending the periodic message in a regular interval.
//  353         	SHEndPointSendMacAddrMsg();
??SmartHomeApp_ProcessEvent_3:
        ; Setup parameters for call to function SHEndPointSendMacAddrMsg
        LCALL   ??SHEndPointSendMacAddrMsg?relay
//  354             osal_start_timerEx( SmartHomeApp_TaskID,
//  355                               SMARTHOMEAPP_SEND_PERIODIC_MSG_EVT,
//  356                               SMARTHOMEAPP_SEND_PERIODIC_MSG_TIMEOUT );
        ; Setup parameters for call to function osal_start_timerEx
        MOV     R4,#-0x78
        MOV     R5,#0x13
        MOV     R2,#0x1
        MOV     R3,#0x0
        MOV     DPTR,#SmartHomeApp_TaskID
        MOVX    A,@DPTR
        MOV     R1,A
        LCALL   ??osal_start_timerEx?relay
//  357           }
//  358           else
//  359           {
//  360             // Device is no longer in the network
//  361           }
//  362           break;
//  363 
//  364         default:
//  365           break;
//  366       }
//  367 
//  368       // Release the memory
//  369       osal_msg_deallocate( (uint8 *)MSGpkt );
??SmartHomeApp_ProcessEvent_4:
        ; Setup parameters for call to function osal_msg_deallocate
        MOV     R2,?V0 + 0
        MOV     R3,?V0 + 1
        LCALL   ??osal_msg_deallocate?relay
//  370 
//  371       // Next - if one is available
//  372       MSGpkt = (afIncomingMSGPacket_t *)osal_msg_receive( SmartHomeApp_TaskID );
        ; Setup parameters for call to function osal_msg_receive
??SmartHomeApp_ProcessEvent_1:
        MOV     DPTR,#SmartHomeApp_TaskID
        MOVX    A,@DPTR
        MOV     R1,A
        LCALL   ??osal_msg_receive?relay
        MOV     ?V0 + 0,R2
        MOV     ?V0 + 1,R3
        MOV     A,?V0 + 0
        ORL     A,?V0 + 1
        JZ      ??SmartHomeApp_ProcessEvent_5
        MOV     DPL,?V0 + 0
        MOV     DPH,?V0 + 1
        MOVX    A,@DPTR
        ADD     A,#-0x1a
        JZ      ??SmartHomeApp_ProcessEvent_6
        ADD     A,#0x5a
        JZ      ??SmartHomeApp_ProcessEvent_7
        ADD     A,#-0x11
        JZ      ??SmartHomeApp_ProcessEvent_2
        SJMP    ??SmartHomeApp_ProcessEvent_4
??SmartHomeApp_ProcessEvent_7:
        ; Setup parameters for call to function SmartHomeApp_HandleKeys
        INC     DPTR
        INC     DPTR
        INC     DPTR
        MOVX    A,@DPTR
        MOV     R2,A
        MOV     DPL,?V0 + 0
        MOV     DPH,?V0 + 1
        INC     DPTR
        INC     DPTR
        MOVX    A,@DPTR
        MOV     R1,A
        LCALL   ??SmartHomeApp_HandleKeys?relay
        SJMP    ??SmartHomeApp_ProcessEvent_4
??SmartHomeApp_ProcessEvent_6:
        ; Setup parameters for call to function SmartHomeApp_MessageMSGCB
        MOV     R2,?V0 + 0
        MOV     R3,?V0 + 1
        LCALL   ??SmartHomeApp_MessageMSGCB?relay
        SJMP    ??SmartHomeApp_ProcessEvent_4
//  373     }
//  374 
//  375     // return unprocessed events
//  376     return (events ^ SYS_EVENT_MSG);
??SmartHomeApp_ProcessEvent_5:
        MOV     A,R6
        MOV     R2,A
        MOV     A,R7
        XRL     A,#0x80
??SmartHomeApp_ProcessEvent_8:
        MOV     R3,A
        SJMP    ??SmartHomeApp_ProcessEvent_9
//  377   }
//  378 
//  379   // Send a message out - This event is generated by a timer
//  380   //  (setup in SmartHomeApp_Init()).
//  381   if ( events & SMARTHOMEAPP_SEND_PERIODIC_MSG_EVT )
??SmartHomeApp_ProcessEvent_0:
        MOV     A,R6
        MOV     C,0xE0 /* A   */.0
        JNC     ??SmartHomeApp_ProcessEvent_10
//  382   {
//  383     // Send the periodic message
//  384     osal_start_timerEx( SmartHomeApp_TaskID, SMARTHOMEAPP_SEND_PERIODIC_MSG_EVT,
//  385         (SMARTHOMEAPP_SEND_PERIODIC_MSG_TIMEOUT + (osal_rand() & 0x00FF)) );
        ; Setup parameters for call to function osal_rand
        LCALL   ??osal_rand?relay
        ; Setup parameters for call to function osal_start_timerEx
        MOV     A,R2
        ADD     A,#-0x78
        MOV     R4,A
        CLR     A
        ADDC    A,#0x13
        MOV     R5,A
        MOV     R2,#0x1
        MOV     R3,#0x0
        MOV     DPTR,#SmartHomeApp_TaskID
        MOVX    A,@DPTR
        MOV     R1,A
        LCALL   ??osal_start_timerEx?relay
//  386 #if defined ( ENDDEVICE_DHT11 ) 
//  387     SHEndPointSendDHT11Msg();
        ; Setup parameters for call to function SHEndPointSendDHT11Msg
        LCALL   ??SHEndPointSendDHT11Msg?relay
//  388 #endif
//  389 
//  390 #if defined ( ENDDEVICE_FIREALARM ) 
//  391 	SHEndPointSendFireAlarmMsg();
//  392 #endif
//  393     // return unprocessed events
//  394     return (events ^ SMARTHOMEAPP_SEND_PERIODIC_MSG_EVT);
        MOV     A,R6
        XRL     A,#0x1
        MOV     R2,A
        MOV     A,R7
        SJMP    ??SmartHomeApp_ProcessEvent_8
//  395   }
//  396 
//  397   // Discard unknown events
//  398   return 0;
??SmartHomeApp_ProcessEvent_10:
        MOV     R2,#0x0
        MOV     R3,#0x0
        CFI EndBlock cfiBlock2
??SmartHomeApp_ProcessEvent_9:
        REQUIRE ?Subroutine2
        ; // Fall through to label ?Subroutine2
//  399 }

        RSEG BANKED_CODE:CODE:NOROOT(0)
?Subroutine2:
        CFI Block cfiBlock3 Using cfiCommon0
        CFI NoFunction
        CFI CFA_SP SP+0
        CFI CFA_XSP16 add(XSP16, 12)
        CFI VB load(1, XDATA, add(CFA_XSP16, literal(-11)))
        CFI DPL0 load(1, XDATA, add(CFA_XSP16, literal(-2)))
        CFI DPH0 load(1, XDATA, add(CFA_XSP16, literal(-1)))
        CFI R6 load(1, XDATA, add(CFA_XSP16, literal(-12)))
        CFI R7 load(1, XDATA, add(CFA_XSP16, literal(-6)))
        CFI V0 load(1, XDATA, add(CFA_XSP16, literal(-10)))
        CFI V1 load(1, XDATA, add(CFA_XSP16, literal(-9)))
        CFI V2 load(1, XDATA, add(CFA_XSP16, literal(-8)))
        CFI V3 load(1, XDATA, add(CFA_XSP16, literal(-7)))
        CFI ?BRET_EXT load(1, XDATA, add(CFA_XSP16, literal(-3)))
        CFI ?RET_HIGH load(1, XDATA, add(CFA_XSP16, literal(-4)))
        CFI ?RET_LOW load(1, XDATA, add(CFA_XSP16, literal(-5)))
        MOV     R7,#0x4
        LJMP    ?BANKED_LEAVE_XDATA
        CFI EndBlock cfiBlock3
//  400 
//  401 /*********************************************************************
//  402  * Event Generation Functions
//  403  */
//  404 /*********************************************************************
//  405  * @fn      SmartHomeApp_HandleKeys
//  406  *
//  407  * @brief   Handles all key events for this device.
//  408  *
//  409  * @param   shift - true if in shift/alt.
//  410  * @param   keys - bit field for key events. Valid entries:
//  411  *                 HAL_KEY_SW_2
//  412  *                 HAL_KEY_SW_1
//  413  *
//  414  * @return  none
//  415  */

        RSEG BANKED_CODE:CODE:NOROOT(0)
//  416 void SmartHomeApp_HandleKeys( uint8 shift, uint8 keys )
SmartHomeApp_HandleKeys:
        CFI Block cfiBlock4 Using cfiCommon0
        CFI Function SmartHomeApp_HandleKeys
        CODE
//  417 {
        FUNCALL SmartHomeApp_HandleKeys, SHEndPointSendMacAddrMsg
        LOCFRAME ISTACK, 0, STACK
        LOCFRAME PSTACK, 0, STACK
        LOCFRAME XSTACK, 10, STACK
        LOCFRAME IOVERLAY, 0, STATIC
        LOCFRAME DOVERLAY, 0, STATIC
        ARGFRAME ISTACK, 0, STACK
        ARGFRAME PSTACK, 0, STACK
        ARGFRAME XSTACK, 10, STACK
        ARGFRAME IOVERLAY, 0, STATIC
        ARGFRAME DOVERLAY, 0, STATIC
        FUNCALL SmartHomeApp_HandleKeys, aps_FindGroup
        LOCFRAME ISTACK, 0, STACK
        LOCFRAME PSTACK, 0, STACK
        LOCFRAME XSTACK, 10, STACK
        LOCFRAME IOVERLAY, 0, STATIC
        LOCFRAME DOVERLAY, 0, STATIC
        ARGFRAME ISTACK, 0, STACK
        ARGFRAME PSTACK, 0, STACK
        ARGFRAME XSTACK, 10, STACK
        ARGFRAME IOVERLAY, 0, STATIC
        ARGFRAME DOVERLAY, 0, STATIC
        FUNCALL SmartHomeApp_HandleKeys, aps_RemoveGroup
        LOCFRAME ISTACK, 0, STACK
        LOCFRAME PSTACK, 0, STACK
        LOCFRAME XSTACK, 10, STACK
        LOCFRAME IOVERLAY, 0, STATIC
        LOCFRAME DOVERLAY, 0, STATIC
        ARGFRAME ISTACK, 0, STACK
        ARGFRAME PSTACK, 0, STACK
        ARGFRAME XSTACK, 10, STACK
        ARGFRAME IOVERLAY, 0, STATIC
        ARGFRAME DOVERLAY, 0, STATIC
        FUNCALL SmartHomeApp_HandleKeys, aps_AddGroup
        LOCFRAME ISTACK, 0, STACK
        LOCFRAME PSTACK, 0, STACK
        LOCFRAME XSTACK, 10, STACK
        LOCFRAME IOVERLAY, 0, STATIC
        LOCFRAME DOVERLAY, 0, STATIC
        ARGFRAME ISTACK, 0, STACK
        ARGFRAME PSTACK, 0, STACK
        ARGFRAME XSTACK, 10, STACK
        ARGFRAME IOVERLAY, 0, STATIC
        ARGFRAME DOVERLAY, 0, STATIC
        FUNCALL SmartHomeApp_HandleKeys, SHEndPointSendDHT11Msg
        LOCFRAME ISTACK, 0, STACK
        LOCFRAME PSTACK, 0, STACK
        LOCFRAME XSTACK, 10, STACK
        LOCFRAME IOVERLAY, 0, STATIC
        LOCFRAME DOVERLAY, 0, STATIC
        ARGFRAME ISTACK, 0, STACK
        ARGFRAME PSTACK, 0, STACK
        ARGFRAME XSTACK, 10, STACK
        ARGFRAME IOVERLAY, 0, STATIC
        ARGFRAME DOVERLAY, 0, STATIC
        MOV     A,#-0xa
        LCALL   ?BANKED_ENTER_XDATA
        CFI DPH0 load(1, XDATA, add(CFA_XSP16, literal(-1)))
        CFI DPL0 load(1, XDATA, add(CFA_XSP16, literal(-2)))
        CFI ?BRET_EXT load(1, XDATA, add(CFA_XSP16, literal(-3)))
        CFI ?RET_HIGH load(1, XDATA, add(CFA_XSP16, literal(-4)))
        CFI ?RET_LOW load(1, XDATA, add(CFA_XSP16, literal(-5)))
        CFI R7 load(1, XDATA, add(CFA_XSP16, literal(-6)))
        CFI V1 load(1, XDATA, add(CFA_XSP16, literal(-7)))
        CFI V0 load(1, XDATA, add(CFA_XSP16, literal(-8)))
        CFI VB load(1, XDATA, add(CFA_XSP16, literal(-9)))
        CFI R6 load(1, XDATA, add(CFA_XSP16, literal(-10)))
        CFI CFA_SP SP+0
        CFI CFA_XSP16 add(XSP16, 10)
        ; Saved register size: 10
        ; Auto size: 0
        MOV     A,R2
        MOV     R6,A
//  418   (void)shift;  // Intentionally unreferenced parameter
//  419   
//  420   if ( keys & HAL_KEY_SW_1 )
        MOV     C,0xE0 /* A   */.0
        JNC     ??SmartHomeApp_HandleKeys_0
//  421   {
//  422     SHEndPointSendMacAddrMsg();
        ; Setup parameters for call to function SHEndPointSendMacAddrMsg
        LCALL   ??SHEndPointSendMacAddrMsg?relay
//  423   }
//  424 
//  425   if ( keys & HAL_KEY_SW_2 )
??SmartHomeApp_HandleKeys_0:
        MOV     A,R6
        MOV     C,0xE0 /* A   */.1
        JNC     ??SmartHomeApp_HandleKeys_1
//  426   {
//  427     /* The Flashr Command is sent to Group 1.
//  428      * This key toggles this device in and out of group 1.
//  429      * If this device doesn't belong to group 1, this application
//  430      * will not receive the Flash command sent to group 1.
//  431      */
//  432     aps_Group_t *grp;
//  433     grp = aps_FindGroup( SMARTHOMEAPP_ENDPOINT, SMARTHOMEAPP_FLASH_GROUP );
//  434     if ( grp )
        ; Setup parameters for call to function aps_FindGroup
        MOV     R2,#0x1
        MOV     R3,#0x0
        MOV     R1,#0x14
        LCALL   ??aps_FindGroup?relay
        MOV     ?V0 + 1,R3
        MOV     A,R2
        ORL     A,?V0 + 1
        JZ      ??SmartHomeApp_HandleKeys_2
//  435     {
//  436       // Remove from the group
//  437       aps_RemoveGroup( SMARTHOMEAPP_ENDPOINT, SMARTHOMEAPP_FLASH_GROUP );
        ; Setup parameters for call to function aps_RemoveGroup
        MOV     R2,#0x1
        MOV     R3,#0x0
        MOV     R1,#0x14
        LCALL   ??aps_RemoveGroup?relay
        SJMP    ??SmartHomeApp_HandleKeys_1
//  438     }
//  439     else
//  440     {
//  441       // Add to the flash group
//  442       aps_AddGroup( SMARTHOMEAPP_ENDPOINT, &SmartHomeApp_Group );
??SmartHomeApp_HandleKeys_2:
        ; Setup parameters for call to function aps_AddGroup
        MOV     R2,#SmartHomeApp_Group & 0xff
        MOV     R3,#(SmartHomeApp_Group >> 8) & 0xff
        MOV     R1,#0x14
        LCALL   ??aps_AddGroup?relay
//  443     }
//  444   }
//  445   if ( keys & HAL_KEY_SW_6 )
??SmartHomeApp_HandleKeys_1:
        MOV     A,R6
        MOV     C,0xE0 /* A   */.5
        JNC     ??SmartHomeApp_HandleKeys_3
//  446   {
//  447 	SHEndPointSendDHT11Msg();
        ; Setup parameters for call to function SHEndPointSendDHT11Msg
        LCALL   ??SHEndPointSendDHT11Msg?relay
//  448   }
//  449 }
??SmartHomeApp_HandleKeys_3:
        LJMP    ??Subroutine36_0 & 0xFFFF
        CFI EndBlock cfiBlock4
//  450 

        RSEG BANKED_CODE:CODE:NOROOT(0)
//  451 void callBackFunction(uint8 timerId, uint8 channel, uint8 channelMode)
callBackFunction:
        CFI Block cfiBlock5 Using cfiCommon0
        CFI Function callBackFunction
        CODE
//  452 {
        ; Saved register size: 0
        ; Auto size: 0
//  453 	//SHIRSendPin=~SHIRSendPin;  
//  454 }
        LJMP    ?BRET
        CFI EndBlock cfiBlock5
//  455 
//  456 /*********************************************************************
//  457  * LOCAL FUNCTIONS
//  458  */
//  459 
//  460 /*********************************************************************
//  461  * @fn      SmartHomeApp_MessageMSGCB
//  462  *
//  463  * @brief   Data message processor callback.  This function processes
//  464  *          any incoming data - probably from other devices.  So, based
//  465  *          on cluster ID, perform the intended action.
//  466  *
//  467  * @param   none
//  468  *
//  469  * @return  none
//  470  */

        RSEG BANKED_CODE:CODE:NOROOT(0)
//  471 void SmartHomeApp_MessageMSGCB( afIncomingMSGPacket_t *pkt )
SmartHomeApp_MessageMSGCB:
        CFI Block cfiBlock6 Using cfiCommon0
        CFI Function SmartHomeApp_MessageMSGCB
        CODE
//  472 {
        FUNCALL SmartHomeApp_MessageMSGCB, HalUARTWrite
        LOCFRAME ISTACK, 0, STACK
        LOCFRAME PSTACK, 0, STACK
        LOCFRAME XSTACK, 12, STACK
        LOCFRAME IOVERLAY, 0, STATIC
        LOCFRAME DOVERLAY, 0, STATIC
        ARGFRAME ISTACK, 0, STACK
        ARGFRAME PSTACK, 0, STACK
        ARGFRAME XSTACK, 12, STACK
        ARGFRAME IOVERLAY, 0, STATIC
        ARGFRAME DOVERLAY, 0, STATIC
        FUNCALL SmartHomeApp_MessageMSGCB, HalUARTWrite
        LOCFRAME ISTACK, 0, STACK
        LOCFRAME PSTACK, 0, STACK
        LOCFRAME XSTACK, 12, STACK
        LOCFRAME IOVERLAY, 0, STATIC
        LOCFRAME DOVERLAY, 0, STATIC
        ARGFRAME ISTACK, 0, STACK
        ARGFRAME PSTACK, 0, STACK
        ARGFRAME XSTACK, 12, STACK
        ARGFRAME IOVERLAY, 0, STATIC
        ARGFRAME DOVERLAY, 0, STATIC
        FUNCALL SmartHomeApp_MessageMSGCB, HalUARTWrite
        LOCFRAME ISTACK, 0, STACK
        LOCFRAME PSTACK, 0, STACK
        LOCFRAME XSTACK, 12, STACK
        LOCFRAME IOVERLAY, 0, STATIC
        LOCFRAME DOVERLAY, 0, STATIC
        ARGFRAME ISTACK, 0, STACK
        ARGFRAME PSTACK, 0, STACK
        ARGFRAME XSTACK, 12, STACK
        ARGFRAME IOVERLAY, 0, STATIC
        ARGFRAME DOVERLAY, 0, STATIC
        FUNCALL SmartHomeApp_MessageMSGCB, HalLedBlink
        LOCFRAME ISTACK, 0, STACK
        LOCFRAME PSTACK, 0, STACK
        LOCFRAME XSTACK, 12, STACK
        LOCFRAME IOVERLAY, 0, STATIC
        LOCFRAME DOVERLAY, 0, STATIC
        ARGFRAME ISTACK, 0, STACK
        ARGFRAME PSTACK, 0, STACK
        ARGFRAME XSTACK, 12, STACK
        ARGFRAME IOVERLAY, 0, STATIC
        ARGFRAME DOVERLAY, 0, STATIC
        FUNCALL SmartHomeApp_MessageMSGCB, SHCoordSendMacAddrMsg
        LOCFRAME ISTACK, 0, STACK
        LOCFRAME PSTACK, 0, STACK
        LOCFRAME XSTACK, 12, STACK
        LOCFRAME IOVERLAY, 0, STATIC
        LOCFRAME DOVERLAY, 0, STATIC
        ARGFRAME ISTACK, 0, STACK
        ARGFRAME PSTACK, 0, STACK
        ARGFRAME XSTACK, 12, STACK
        ARGFRAME IOVERLAY, 0, STATIC
        ARGFRAME DOVERLAY, 0, STATIC
        FUNCALL SmartHomeApp_MessageMSGCB, SHCoordSendDHT11Msg
        LOCFRAME ISTACK, 0, STACK
        LOCFRAME PSTACK, 0, STACK
        LOCFRAME XSTACK, 12, STACK
        LOCFRAME IOVERLAY, 0, STATIC
        LOCFRAME DOVERLAY, 0, STATIC
        ARGFRAME ISTACK, 0, STACK
        ARGFRAME PSTACK, 0, STACK
        ARGFRAME XSTACK, 12, STACK
        ARGFRAME IOVERLAY, 0, STATIC
        ARGFRAME DOVERLAY, 0, STATIC
        FUNCALL SmartHomeApp_MessageMSGCB, SHEndPointReveiceAirConMsg
        LOCFRAME ISTACK, 0, STACK
        LOCFRAME PSTACK, 0, STACK
        LOCFRAME XSTACK, 12, STACK
        LOCFRAME IOVERLAY, 0, STATIC
        LOCFRAME DOVERLAY, 0, STATIC
        ARGFRAME ISTACK, 0, STACK
        ARGFRAME PSTACK, 0, STACK
        ARGFRAME XSTACK, 12, STACK
        ARGFRAME IOVERLAY, 0, STATIC
        ARGFRAME DOVERLAY, 0, STATIC
        MOV     A,#-0xc
        LCALL   ?BANKED_ENTER_XDATA
        CFI DPH0 load(1, XDATA, add(CFA_XSP16, literal(-1)))
        CFI DPL0 load(1, XDATA, add(CFA_XSP16, literal(-2)))
        CFI ?BRET_EXT load(1, XDATA, add(CFA_XSP16, literal(-3)))
        CFI ?RET_HIGH load(1, XDATA, add(CFA_XSP16, literal(-4)))
        CFI ?RET_LOW load(1, XDATA, add(CFA_XSP16, literal(-5)))
        CFI R7 load(1, XDATA, add(CFA_XSP16, literal(-6)))
        CFI V3 load(1, XDATA, add(CFA_XSP16, literal(-7)))
        CFI V2 load(1, XDATA, add(CFA_XSP16, literal(-8)))
        CFI V1 load(1, XDATA, add(CFA_XSP16, literal(-9)))
        CFI V0 load(1, XDATA, add(CFA_XSP16, literal(-10)))
        CFI VB load(1, XDATA, add(CFA_XSP16, literal(-11)))
        CFI R6 load(1, XDATA, add(CFA_XSP16, literal(-12)))
        CFI CFA_SP SP+0
        CFI CFA_XSP16 add(XSP16, 12)
        ; Saved register size: 12
        ; Auto size: 0
        MOV     A,R2
        MOV     R6,A
        MOV     A,R3
        MOV     R7,A
//  473   //HalUARTWrite(0,"REVC:\n",6);
//  474   uint16 flashTime;
//  475 
//  476   switch ( pkt->clusterId )
        MOV     A,R6
        ADD     A,#0x21
        MOV     ?V0 + 0,A
        MOV     A,R7
        ADDC    A,#0x0
        MOV     ?V0 + 1,A
        MOV     DPL,R6
        MOV     DPH,R7
        INC     DPTR
        INC     DPTR
        INC     DPTR
        INC     DPTR
        MOVX    A,@DPTR
        MOV     ?V0 + 2,A
        INC     DPTR
        MOVX    A,@DPTR
        JZ      $+5
        LJMP    ??SmartHomeApp_MessageMSGCB_0 & 0xFFFF
        MOV     A,?V0 + 2
        LCALL   ?UC_SWITCH_SPARSE
`?<Jumptable for SmartHomeApp_MessageMSGCB>_0`:
        DATA
        DATA8
        DATA
        DATA8
        DATA
        DATA8
        DB        0
        DATA
        DATA8
        DATA
        DATA8
        DATA
        DATA8
        DB        6
        DATA
        DATA8
        DATA
        DATA8
        DATA
        DATA8
        DB        0
        DATA
        DATA16
        DATA
        DATA16
        DATA
        DATA16
        DW        ??SmartHomeApp_MessageMSGCB_1
        DATA
        DATA8
        DATA
        DATA8
        DATA
        DATA8
        DB        1
        DATA
        DATA16
        DATA
        DATA16
        DATA
        DATA16
        DW        ??SmartHomeApp_MessageMSGCB_2
        DATA
        DATA8
        DATA
        DATA8
        DATA
        DATA8
        DB        2
        DATA
        DATA16
        DATA
        DATA16
        DATA
        DATA16
        DW        ??SmartHomeApp_MessageMSGCB_3
        DATA
        DATA8
        DATA
        DATA8
        DATA
        DATA8
        DB        3
        DATA
        DATA16
        DATA
        DATA16
        DATA
        DATA16
        DW        ??SmartHomeApp_MessageMSGCB_2
        DATA
        DATA8
        DATA
        DATA8
        DATA
        DATA8
        DB        100
        DATA
        DATA16
        DATA
        DATA16
        DATA
        DATA16
        DW        ??SmartHomeApp_MessageMSGCB_4
        DATA
        DATA8
        DATA
        DATA8
        DATA
        DATA8
        DB        102
        DATA
        DATA16
        DATA
        DATA16
        DATA
        DATA16
        DW        ??SmartHomeApp_MessageMSGCB_5
        DATA
        DATA16
        DATA
        DATA16
        DW        ??SmartHomeApp_MessageMSGCB_0
        CODE
//  477   {
//  478     case SMARTHOMEAPP_P2P_CLUSTERID:
//  479       HalUARTWrite(0, "Rx:", 3);       //提示接收到数据
??SmartHomeApp_MessageMSGCB_4:
        ; Setup parameters for call to function HalUARTWrite
        MOV     R4,#0x3
        MOV     R5,#0x0
        MOV     R2,#`?<Constant "Rx:">` & 0xff
        MOV     R3,#(`?<Constant "Rx:">` >> 8) & 0xff
        MOV     R1,#0x0
        LCALL   ??HalUARTWrite?relay
//  480       HalUARTWrite(0, pkt->cmd.Data, pkt->cmd.DataLength); //串口输出接收到的数据
        ; Setup parameters for call to function HalUARTWrite
        LCALL   ?Subroutine10 & 0xFFFF
??CrossCallReturnLabel_87:
        MOV     R4,A
        INC     DPTR
        MOVX    A,@DPTR
        MOV     R5,A
        MOV     DPL,?V0 + 0
        MOV     DPH,?V0 + 1
        MOVX    A,@DPTR
        MOV     R2,A
        INC     DPTR
        MOVX    A,@DPTR
        MOV     R3,A
        MOV     R1,#0x0
        LCALL   ??HalUARTWrite?relay
//  481       HalUARTWrite(0, "\n", 1);         // 回车换行
        ; Setup parameters for call to function HalUARTWrite
        MOV     R4,#0x1
        MOV     R5,#0x0
        MOV     R2,#`?<Constant "\\n">` & 0xff
        MOV     R3,#(`?<Constant "\\n">` >> 8) & 0xff
        MOV     R1,#0x0
        LCALL   ??HalUARTWrite?relay
//  482       break;    
        SJMP    ??SmartHomeApp_MessageMSGCB_0
//  483     case SMARTHOMEAPP_PERIODIC_CLUSTERID:
//  484       break;
//  485 
//  486     case SMARTHOMEAPP_FLASH_CLUSTERID:
//  487       flashTime = BUILD_UINT16(pkt->cmd.Data[1], pkt->cmd.Data[2] );
//  488       HalLedBlink( HAL_LED_4, 4, 50, (flashTime / 4) );
??SmartHomeApp_MessageMSGCB_5:
        MOV     DPL,?V0 + 0
        MOV     DPH,?V0 + 1
        LCALL   ?Subroutine31 & 0xFFFF
??CrossCallReturnLabel_44:
        ; Setup parameters for call to function HalLedBlink
        MOV     DPL,R0
        MOV     DPH,R1
        INC     DPTR
        MOVX    A,@DPTR
        MOV     R2,A
        MOV     DPL,R0
        MOV     DPH,R1
        INC     DPTR
        INC     DPTR
        MOVX    A,@DPTR
        MOV     R1,A
        MOV     A,R2
        ADD     A,#0x0
        MOV     ?V0 + 0,A
        CLR     A
        ADDC    A,R1
        MOV     ?V0 + 1,A
        MOV     A,#0x2
        MOV     R0,#?V0 + 0
        LCALL   ?US_SHR
        MOV     R4,?V0 + 0
        MOV     R5,?V0 + 1
        MOV     R3,#0x32
        MOV     R2,#0x4
        MOV     R1,#0x8
        LCALL   ??HalLedBlink?relay
//  489       break;
        SJMP    ??SmartHomeApp_MessageMSGCB_0
//  490     case SMARTHOME_MACADDRMSG:
//  491 	SHCoordSendMacAddrMsg(pkt);
??SmartHomeApp_MessageMSGCB_1:
        ; Setup parameters for call to function SHCoordSendMacAddrMsg
        LCALL   ??SHCoordSendMacAddrMsg?relay
//  492 	break;
        SJMP    ??SmartHomeApp_MessageMSGCB_0
//  493     case SMARTHOME_TEMPHUMIMSG:
//  494 	SHCoordSendDHT11Msg(pkt);
??SmartHomeApp_MessageMSGCB_2:
        ; Setup parameters for call to function SHCoordSendDHT11Msg
        LCALL   ??SHCoordSendDHT11Msg?relay
//  495 	break;
        SJMP    ??SmartHomeApp_MessageMSGCB_0
//  496 	case SMARTHOME_FIREALARM:
//  497 	SHCoordSendFireAlarmMsg(pkt);
//  498 	break;
//  499      case SMARTHOME_AIRCONDITIONMSG:
//  500 	 SHEndPointReveiceAirConMsg(pkt);
??SmartHomeApp_MessageMSGCB_3:
        ; Setup parameters for call to function SHEndPointReveiceAirConMsg
        LCALL   ??SHEndPointReveiceAirConMsg?relay
//  501 	 break;
//  502 	default : break;
//  503   }
//  504 }
??SmartHomeApp_MessageMSGCB_0:
        LJMP    ?Subroutine2 & 0xFFFF
        CFI EndBlock cfiBlock6
//  505 
//  506 /*********************************************************************
//  507  * @fn      SmartHomeApp_SendPeriodicMessage
//  508  *
//  509  * @brief   Send the periodic message.
//  510  *
//  511  * @param   none
//  512  *
//  513  * @return  none
//  514  */

        RSEG BANKED_CODE:CODE:NOROOT(0)
//  515 void SmartHomeApp_SendPeriodicMessage( void )
SmartHomeApp_SendPeriodicMessage:
        CFI Block cfiBlock7 Using cfiCommon0
        CFI Function SmartHomeApp_SendPeriodicMessage
        CODE
//  516 {
        ; Saved register size: 0
        ; Auto size: 0
//  517 }
        LJMP    ?BRET
        CFI EndBlock cfiBlock7
//  518 
//  519 /*********************************************************************
//  520  * @fn      SmartHomeApp_SendFlashMessage
//  521  *
//  522  * @brief   Send the flash message to group 1.
//  523  *
//  524  * @param   flashTime - in milliseconds
//  525  *
//  526  * @return  none
//  527  */

        RSEG BANKED_CODE:CODE:NOROOT(0)
//  528 void SmartHomeApp_SendFlashMessage( uint16 flashTime )
SmartHomeApp_SendFlashMessage:
        CFI Block cfiBlock8 Using cfiCommon0
        CFI Function SmartHomeApp_SendFlashMessage
        CODE
//  529 {
        ; Saved register size: 0
        ; Auto size: 0
//  530 }
        LJMP    ?BRET
        CFI EndBlock cfiBlock8
//  531 
//  532 /*********************************************************************
//  533  * @fn      SmartHomeApp_Send_P2P_Message
//  534  *
//  535  * @brief   point to point.
//  536  *
//  537  * @param   none
//  538  *
//  539  * @return  none
//  540  */

        RSEG BANKED_CODE:CODE:NOROOT(0)
//  541 void SmartHomeApp_Send_P2P_Message( void )   ///////
SmartHomeApp_Send_P2P_Message:
        CFI Block cfiBlock9 Using cfiCommon0
        CFI Function SmartHomeApp_Send_P2P_Message
        CODE
//  542 {
        ; Saved register size: 0
        ; Auto size: 0
//  543 }
        LJMP    ?BRET
        CFI EndBlock cfiBlock9
//  544 
//  545 

        RSEG BANKED_CODE:CODE:NOROOT(0)
//  546 void SHEndPointSendMacAddrMsg()
SHEndPointSendMacAddrMsg:
        CFI Block cfiBlock10 Using cfiCommon0
        CFI Function SHEndPointSendMacAddrMsg
        CODE
//  547 {
        FUNCALL SHEndPointSendMacAddrMsg, AF_DataRequest
        LOCFRAME ISTACK, 0, STACK
        LOCFRAME PSTACK, 0, STACK
        LOCFRAME XSTACK, 19, STACK
        LOCFRAME IOVERLAY, 0, STATIC
        LOCFRAME DOVERLAY, 0, STATIC
        ARGFRAME ISTACK, 0, STACK
        ARGFRAME PSTACK, 0, STACK
        ARGFRAME XSTACK, 19, STACK
        ARGFRAME IOVERLAY, 0, STATIC
        ARGFRAME DOVERLAY, 0, STATIC
        MOV     A,#-0xa
        LCALL   ?BANKED_ENTER_XDATA
        CFI DPH0 load(1, XDATA, add(CFA_XSP16, literal(-1)))
        CFI DPL0 load(1, XDATA, add(CFA_XSP16, literal(-2)))
        CFI ?BRET_EXT load(1, XDATA, add(CFA_XSP16, literal(-3)))
        CFI ?RET_HIGH load(1, XDATA, add(CFA_XSP16, literal(-4)))
        CFI ?RET_LOW load(1, XDATA, add(CFA_XSP16, literal(-5)))
        CFI R7 load(1, XDATA, add(CFA_XSP16, literal(-6)))
        CFI V1 load(1, XDATA, add(CFA_XSP16, literal(-7)))
        CFI V0 load(1, XDATA, add(CFA_XSP16, literal(-8)))
        CFI VB load(1, XDATA, add(CFA_XSP16, literal(-9)))
        CFI R6 load(1, XDATA, add(CFA_XSP16, literal(-10)))
        CFI CFA_SP SP+0
        CFI CFA_XSP16 add(XSP16, 10)
        ; Saved register size: 10
        ; Auto size: 0
//  548   uint8 *macAddr = aExtendedAddress;
//  549   
//  550   if ( AF_DataRequest( &SmartHomeApp_P2P_DstAddr, &SmartHomeApp_epDesc,
//  551                        SMARTHOME_MACADDRMSG,
//  552                        8,
//  553                        macAddr,
//  554                        &SmartHomeApp_TransID,
//  555                        AF_DISCV_ROUTE,
//  556                        AF_DEFAULT_RADIUS ) == afStatus_SUCCESS )
        ; Setup parameters for call to function AF_DataRequest
        MOV     ?V0 + 0,#0x1e
        MOV     R0,#?V0 + 0
        LCALL   ?PUSH_XSTACK_I_ONE
        CFI CFA_XSP16 add(XSP16, 11)
        MOV     ?V0 + 0,#SmartHomeApp_TransID & 0xff
        MOV     ?V0 + 1,#(SmartHomeApp_TransID >> 8) & 0xff
        MOV     R0,#?V0 + 0
        LCALL   ?PUSH_XSTACK_I_TWO
        CFI CFA_XSP16 add(XSP16, 13)
        MOV     ?V0 + 0,#aExtendedAddress & 0xff
        MOV     ?V0 + 1,#(aExtendedAddress >> 8) & 0xff
        MOV     R0,#?V0 + 0
        LCALL   ?PUSH_XSTACK_I_TWO
        CFI CFA_XSP16 add(XSP16, 15)
        MOV     ?V0 + 0,#0x8
        MOV     ?V0 + 1,#0x0
        MOV     R0,#?V0 + 0
        LCALL   ?PUSH_XSTACK_I_TWO
        CFI CFA_XSP16 add(XSP16, 17)
        CLR     A
        MOV     ?V0 + 0,A
        MOV     R0,#?V0 + 0
        LCALL   ?PUSH_XSTACK_I_TWO
        CFI CFA_XSP16 add(XSP16, 19)
        LCALL   ?Subroutine27 & 0xFFFF
        CFI EndBlock cfiBlock10
??CrossCallReturnLabel_58:
        REQUIRE ?Subroutine3
        ; // Fall through to label ?Subroutine3
//  557   {
//  558   }
//  559   else
//  560   {
//  561     // Error occurred in request to send.
//  562   }
//  563 }

        RSEG BANKED_CODE:CODE:NOROOT(0)
?Subroutine3:
        CFI Block cfiBlock11 Using cfiCommon0
        CFI NoFunction
        CFI CFA_SP SP+0
        CFI CFA_XSP16 add(XSP16, 19)
        CFI VB load(1, XDATA, add(CFA_XSP16, literal(-9)))
        CFI DPL0 load(1, XDATA, add(CFA_XSP16, literal(-2)))
        CFI DPH0 load(1, XDATA, add(CFA_XSP16, literal(-1)))
        CFI R6 load(1, XDATA, add(CFA_XSP16, literal(-10)))
        CFI R7 load(1, XDATA, add(CFA_XSP16, literal(-6)))
        CFI V0 load(1, XDATA, add(CFA_XSP16, literal(-8)))
        CFI V1 load(1, XDATA, add(CFA_XSP16, literal(-7)))
        CFI ?BRET_EXT load(1, XDATA, add(CFA_XSP16, literal(-3)))
        CFI ?RET_HIGH load(1, XDATA, add(CFA_XSP16, literal(-4)))
        CFI ?RET_LOW load(1, XDATA, add(CFA_XSP16, literal(-5)))
        CFI Invalid
        LCALL   ?DEALLOC_XSTACK8
        CFI EndBlock cfiBlock11
        REQUIRE ??Subroutine36_0
        ; // Fall through to label ??Subroutine36_0

        RSEG BANKED_CODE:CODE:NOROOT(0)
??Subroutine36_0:
        CFI Block cfiBlock12 Using cfiCommon0
        CFI NoFunction
        CFI CFA_SP SP+0
        CFI CFA_XSP16 add(XSP16, 10)
        CFI VB load(1, XDATA, add(CFA_XSP16, literal(-9)))
        CFI DPL0 load(1, XDATA, add(CFA_XSP16, literal(-2)))
        CFI DPH0 load(1, XDATA, add(CFA_XSP16, literal(-1)))
        CFI R6 load(1, XDATA, add(CFA_XSP16, literal(-10)))
        CFI R7 load(1, XDATA, add(CFA_XSP16, literal(-6)))
        CFI V0 load(1, XDATA, add(CFA_XSP16, literal(-8)))
        CFI V1 load(1, XDATA, add(CFA_XSP16, literal(-7)))
        CFI ?BRET_EXT load(1, XDATA, add(CFA_XSP16, literal(-3)))
        CFI ?RET_HIGH load(1, XDATA, add(CFA_XSP16, literal(-4)))
        CFI ?RET_LOW load(1, XDATA, add(CFA_XSP16, literal(-5)))
        MOV     R7,#0x2
        LJMP    ?BANKED_LEAVE_XDATA
        CFI EndBlock cfiBlock12

        RSEG BANKED_CODE:CODE:NOROOT(0)
//  564 void SHCoordSendMacAddrMsg(afIncomingMSGPacket_t *pkt)
SHCoordSendMacAddrMsg:
        CFI Block cfiBlock13 Using cfiCommon0
        CFI Function SHCoordSendMacAddrMsg
        CODE
//  565 {
        FUNCALL SHCoordSendMacAddrMsg, SHCoordSendUartMsg
        LOCFRAME ISTACK, 2, STACK
        LOCFRAME PSTACK, 0, STACK
        LOCFRAME XSTACK, 50, STACK
        LOCFRAME IOVERLAY, 0, STATIC
        LOCFRAME DOVERLAY, 0, STATIC
        ARGFRAME ISTACK, 2, STACK
        ARGFRAME PSTACK, 0, STACK
        ARGFRAME XSTACK, 50, STACK
        ARGFRAME IOVERLAY, 0, STATIC
        ARGFRAME DOVERLAY, 0, STATIC
        PUSH    DPL
        CFI DPL0 Frame(CFA_SP, 4)
        CFI CFA_SP SP+-4
        PUSH    DPH
        CFI DPH0 Frame(CFA_SP, 5)
        CFI CFA_SP SP+-5
        ; Saved register size: 2
        ; Auto size: 25
        MOV     A,#-0x19
        LCALL   ?ALLOC_XSTACK8
        CFI CFA_XSP16 add(XSP16, 25)
//  566 
//  567   uartSendMsg msg;
//  568   
//  569   msg.header = 0xff;
        LCALL   ?Subroutine11 & 0xFFFF
//  570   msg.shortAddr = pkt->srcAddr.addr.shortAddr;
??CrossCallReturnLabel_9:
        LCALL   ?XSTACK_DISP0_8
        LCALL   ?Subroutine9 & 0xFFFF
//  571   for(int i=0;i<8;i++)
//  572  {
//  573 	msg.extAddr[i] =  pkt->cmd.Data[7-i];
??CrossCallReturnLabel_7:
        LCALL   ?Subroutine20 & 0xFFFF
//  574  }
??CrossCallReturnLabel_21:
        PUSH    A
        CFI CFA_SP SP+-6
        LCALL   ?Subroutine26 & 0xFFFF
??CrossCallReturnLabel_36:
        POP     A
        CFI CFA_SP SP+-5
        LCALL   ?Subroutine4 & 0xFFFF
??CrossCallReturnLabel_0:
        JC      ??CrossCallReturnLabel_7
//  575   msg.body.msgType = SMARTHOME_MACADDRMSG;
        MOV     A,#0xb
        LCALL   ?XSTACK_DISP0_8
        CLR     A
        MOVX    @DPTR,A
//  576   msg.body.len = 0;
        MOV     A,#0xc
        LCALL   ?XSTACK_DISP0_8
        CLR     A
        MOVX    @DPTR,A
//  577 
//  578   for(int i=0;i<msg.body.len;i++)
        MOV     R2,A
        SJMP    ??CrossCallReturnLabel_55
//  579   {
//  580 	  msg.body.data[i] = pkt->cmd.Data[8+i];
??SHCoordSendMacAddrMsg_0:
        LCALL   ?Subroutine23 & 0xFFFF
//  581   }
??CrossCallReturnLabel_30:
        PUSH    A
        CFI CFA_SP SP+-6
        LCALL   ?Subroutine24 & 0xFFFF
??CrossCallReturnLabel_32:
        POP     A
        CFI CFA_SP SP+-5
        LCALL   ?Subroutine7 & 0xFFFF
??CrossCallReturnLabel_55:
        MOV     R3,A
        MOV     A,#0xc
        LCALL   ?XSTACK_DISP0_8
        LCALL   ?Subroutine16 & 0xFFFF
??CrossCallReturnLabel_17:
        JC      ??SHCoordSendMacAddrMsg_0
//  582   msg.tailer = 0x11;
        LJMP    ?Subroutine0 & 0xFFFF
        CFI EndBlock cfiBlock13
//  583   
//  584   SHCoordSendUartMsg(msg);
//  585 }

        RSEG BANKED_CODE:CODE:NOROOT(0)
?Subroutine7:
        CFI Block cfiCond14 Using cfiCommon0
        CFI NoFunction
        CFI Conditional ??CrossCallReturnLabel_55
        CFI DPL0 Frame(CFA_SP, 4)
        CFI DPH0 Frame(CFA_SP, 5)
        CFI CFA_SP SP+-5
        CFI CFA_XSP16 add(XSP16, 25)
        CFI Block cfiCond15 Using cfiCommon0
        CFI (cfiCond15) NoFunction
        CFI (cfiCond15) Conditional ??CrossCallReturnLabel_56
        CFI (cfiCond15) DPL0 Frame(CFA_SP, 4)
        CFI (cfiCond15) DPH0 Frame(CFA_SP, 5)
        CFI (cfiCond15) CFA_SP SP+-5
        CFI (cfiCond15) CFA_XSP16 add(XSP16, 25)
        CFI Block cfiPicker16 Using cfiCommon1
        CFI (cfiPicker16) NoFunction
        CFI (cfiPicker16) Picker
        MOVX    @DPTR,A
        CFI EndBlock cfiCond14
        CFI EndBlock cfiCond15
        CFI EndBlock cfiPicker16
        REQUIRE ??Subroutine37_0
        ; // Fall through to label ??Subroutine37_0

        RSEG BANKED_CODE:CODE:NOROOT(0)
??Subroutine37_0:
        CFI Block cfiCond17 Using cfiCommon0
        CFI NoFunction
        CFI Conditional ??CrossCallReturnLabel_57
        CFI R6 load(1, XDATA, add(CFA_XSP16, literal(-16)))
        CFI VB load(1, XDATA, add(CFA_XSP16, literal(-15)))
        CFI V0 load(1, XDATA, add(CFA_XSP16, literal(-14)))
        CFI V1 load(1, XDATA, add(CFA_XSP16, literal(-13)))
        CFI V2 load(1, XDATA, add(CFA_XSP16, literal(-12)))
        CFI V3 load(1, XDATA, add(CFA_XSP16, literal(-11)))
        CFI V4 load(1, XDATA, add(CFA_XSP16, literal(-10)))
        CFI V5 load(1, XDATA, add(CFA_XSP16, literal(-9)))
        CFI V6 load(1, XDATA, add(CFA_XSP16, literal(-8)))
        CFI V7 load(1, XDATA, add(CFA_XSP16, literal(-7)))
        CFI R7 load(1, XDATA, add(CFA_XSP16, literal(-6)))
        CFI ?RET_LOW load(1, XDATA, add(CFA_XSP16, literal(-5)))
        CFI ?RET_HIGH load(1, XDATA, add(CFA_XSP16, literal(-4)))
        CFI ?BRET_EXT load(1, XDATA, add(CFA_XSP16, literal(-3)))
        CFI DPL0 load(1, XDATA, add(CFA_XSP16, literal(-2)))
        CFI DPH0 load(1, XDATA, add(CFA_XSP16, literal(-1)))
        CFI CFA_SP SP+0
        CFI CFA_XSP16 add(XSP16, 157)
        CFI Block cfiCond18 Using cfiCommon0
        CFI (cfiCond18) NoFunction
        CFI (cfiCond18) Conditional ??CrossCallReturnLabel_55
        CFI (cfiCond18) DPL0 Frame(CFA_SP, 4)
        CFI (cfiCond18) DPH0 Frame(CFA_SP, 5)
        CFI (cfiCond18) CFA_SP SP+-5
        CFI (cfiCond18) CFA_XSP16 add(XSP16, 25)
        CFI Block cfiCond19 Using cfiCommon0
        CFI (cfiCond19) NoFunction
        CFI (cfiCond19) Conditional ??CrossCallReturnLabel_56
        CFI (cfiCond19) DPL0 Frame(CFA_SP, 4)
        CFI (cfiCond19) DPH0 Frame(CFA_SP, 5)
        CFI (cfiCond19) CFA_SP SP+-5
        CFI (cfiCond19) CFA_XSP16 add(XSP16, 25)
        CFI Block cfiPicker20 Using cfiCommon1
        CFI (cfiPicker20) NoFunction
        CFI (cfiPicker20) Picker
        MOV     A,R2
        ADD     A,#0x1
        INC     R2
        MOV     A,R3
        ADDC    A,#0x0
        RET
        CFI EndBlock cfiCond17
        CFI EndBlock cfiCond18
        CFI EndBlock cfiCond19
        CFI EndBlock cfiPicker20
//  586 

        RSEG BANKED_CODE:CODE:NOROOT(0)
//  587 void SHEndPointSendDHT11Msg()
SHEndPointSendDHT11Msg:
        CFI Block cfiBlock21 Using cfiCommon0
        CFI Function SHEndPointSendDHT11Msg
        CODE
//  588 {
        FUNCALL SHEndPointSendDHT11Msg, DHT11
        LOCFRAME ISTACK, 0, STACK
        LOCFRAME PSTACK, 0, STACK
        LOCFRAME XSTACK, 25, STACK
        LOCFRAME IOVERLAY, 0, STATIC
        LOCFRAME DOVERLAY, 0, STATIC
        ARGFRAME ISTACK, 0, STACK
        ARGFRAME PSTACK, 0, STACK
        ARGFRAME XSTACK, 25, STACK
        ARGFRAME IOVERLAY, 0, STATIC
        ARGFRAME DOVERLAY, 0, STATIC
        FUNCALL SHEndPointSendDHT11Msg, osal_memcpy
        LOCFRAME ISTACK, 0, STACK
        LOCFRAME PSTACK, 0, STACK
        LOCFRAME XSTACK, 28, STACK
        LOCFRAME IOVERLAY, 0, STATIC
        LOCFRAME DOVERLAY, 0, STATIC
        ARGFRAME ISTACK, 0, STACK
        ARGFRAME PSTACK, 0, STACK
        ARGFRAME XSTACK, 28, STACK
        ARGFRAME IOVERLAY, 0, STATIC
        ARGFRAME DOVERLAY, 0, STATIC
        FUNCALL SHEndPointSendDHT11Msg, osal_memcpy
        LOCFRAME ISTACK, 0, STACK
        LOCFRAME PSTACK, 0, STACK
        LOCFRAME XSTACK, 28, STACK
        LOCFRAME IOVERLAY, 0, STATIC
        LOCFRAME DOVERLAY, 0, STATIC
        ARGFRAME ISTACK, 0, STACK
        ARGFRAME PSTACK, 0, STACK
        ARGFRAME XSTACK, 28, STACK
        ARGFRAME IOVERLAY, 0, STATIC
        ARGFRAME DOVERLAY, 0, STATIC
        FUNCALL SHEndPointSendDHT11Msg, osal_memcpy
        LOCFRAME ISTACK, 0, STACK
        LOCFRAME PSTACK, 0, STACK
        LOCFRAME XSTACK, 28, STACK
        LOCFRAME IOVERLAY, 0, STATIC
        LOCFRAME DOVERLAY, 0, STATIC
        ARGFRAME ISTACK, 0, STACK
        ARGFRAME PSTACK, 0, STACK
        ARGFRAME XSTACK, 28, STACK
        ARGFRAME IOVERLAY, 0, STATIC
        ARGFRAME DOVERLAY, 0, STATIC
        FUNCALL SHEndPointSendDHT11Msg, HalUARTWrite
        LOCFRAME ISTACK, 0, STACK
        LOCFRAME PSTACK, 0, STACK
        LOCFRAME XSTACK, 25, STACK
        LOCFRAME IOVERLAY, 0, STATIC
        LOCFRAME DOVERLAY, 0, STATIC
        ARGFRAME ISTACK, 0, STACK
        ARGFRAME PSTACK, 0, STACK
        ARGFRAME XSTACK, 25, STACK
        ARGFRAME IOVERLAY, 0, STATIC
        ARGFRAME DOVERLAY, 0, STATIC
        FUNCALL SHEndPointSendDHT11Msg, AF_DataRequest
        LOCFRAME ISTACK, 0, STACK
        LOCFRAME PSTACK, 0, STACK
        LOCFRAME XSTACK, 34, STACK
        LOCFRAME IOVERLAY, 0, STATIC
        LOCFRAME DOVERLAY, 0, STATIC
        ARGFRAME ISTACK, 0, STACK
        ARGFRAME PSTACK, 0, STACK
        ARGFRAME XSTACK, 34, STACK
        ARGFRAME IOVERLAY, 0, STATIC
        ARGFRAME DOVERLAY, 0, STATIC
        MOV     A,#-0xb
        LCALL   ?BANKED_ENTER_XDATA
        CFI DPH0 load(1, XDATA, add(CFA_XSP16, literal(-1)))
        CFI DPL0 load(1, XDATA, add(CFA_XSP16, literal(-2)))
        CFI ?BRET_EXT load(1, XDATA, add(CFA_XSP16, literal(-3)))
        CFI ?RET_HIGH load(1, XDATA, add(CFA_XSP16, literal(-4)))
        CFI ?RET_LOW load(1, XDATA, add(CFA_XSP16, literal(-5)))
        CFI R7 load(1, XDATA, add(CFA_XSP16, literal(-6)))
        CFI V2 load(1, XDATA, add(CFA_XSP16, literal(-7)))
        CFI V1 load(1, XDATA, add(CFA_XSP16, literal(-8)))
        CFI V0 load(1, XDATA, add(CFA_XSP16, literal(-9)))
        CFI VB load(1, XDATA, add(CFA_XSP16, literal(-10)))
        CFI R6 load(1, XDATA, add(CFA_XSP16, literal(-11)))
        CFI CFA_SP SP+0
        CFI CFA_XSP16 add(XSP16, 11)
        ; Saved register size: 11
        ; Auto size: 14
        MOV     A,#-0xe
        LCALL   ?ALLOC_XSTACK8
        CFI CFA_XSP16 add(XSP16, 25)
//  589   P0SEL &= 0x7f;                  //P0_7配置成通用io
        ANL     0xf3,#0x7f
//  590   byte temp, humidity, data[12];
//  591   DHT11(); 
        ; Setup parameters for call to function DHT11
        LCALL   ??DHT11?relay
//  592   uint8 *macAddr = aExtendedAddress;
//  593   temp = wendu_shi<<4 |wendu_ge;
        MOV     DPTR,#wendu_ge
        PUSH    DPL
        CFI CFA_SP SP+-1
        MOV     DPTR,#wendu_shi
        MOVX    A,@DPTR
        SWAP    A
        ANL     A,#0xf0
        MOV     DPH,#(wendu_ge >> 8) & 0xff
        POP     DPL
        CFI CFA_SP SP+0
        MOV     R0,A
        MOVX    A,@DPTR
        ORL     A,R0
        PUSH    A
        CFI CFA_SP SP+-1
        MOV     A,#0x1
        LCALL   ?XSTACK_DISP0_8
        POP     A
        CFI CFA_SP SP+0
        MOVX    @DPTR,A
//  594   humidity = shidu_shi<<4 |shidu_ge;
        MOV     DPTR,#shidu_ge
        PUSH    DPL
        CFI CFA_SP SP+-1
        MOV     DPTR,#shidu_shi
        MOVX    A,@DPTR
        SWAP    A
        ANL     A,#0xf0
        MOV     DPH,#(shidu_ge >> 8) & 0xff
        POP     DPL
        CFI CFA_SP SP+0
        MOV     R0,A
        MOVX    A,@DPTR
        ORL     A,R0
        MOV     DPL,?XSP + 0
        MOV     DPH,?XSP + 1
        MOVX    @DPTR,A
//  595 
//  596   osal_memcpy(data, macAddr, 8); 
        ; Setup parameters for call to function osal_memcpy
        MOV     ?V0 + 0,#aExtendedAddress & 0xff
        MOV     ?V0 + 1,#(aExtendedAddress >> 8) & 0xff
        MOV     ?V0 + 2,#0x0
        MOV     R0,#?V0 + 0
        LCALL   ?PUSH_XSTACK_I_THREE
        CFI CFA_XSP16 add(XSP16, 28)
        MOV     R4,#0x8
        MOV     R5,#0x0
        MOV     A,#0x5
        LCALL   ?XSTACK_DISP0_8
        LCALL   ?Subroutine18 & 0xFFFF
??CrossCallReturnLabel_62:
        LCALL   ?DEALLOC_XSTACK8
        CFI CFA_XSP16 add(XSP16, 25)
//  597   osal_memcpy(&data[8],&temp, 1);
        ; Setup parameters for call to function osal_memcpy
        MOV     A,#0x1
        LCALL   ?XSTACK_DISP0_8
        MOV     R1,DPL
        MOV     R2,DPH
        MOV     ?V0 + 0,R1
        MOV     ?V0 + 1,R2
        MOV     R0,#?V0 + 0
        LCALL   ?PUSH_XSTACK_I_THREE
        CFI CFA_XSP16 add(XSP16, 28)
        MOV     R4,#0x1
        MOV     R5,#0x0
        MOV     A,#0xd
        LCALL   ?XSTACK_DISP0_8
        LCALL   ?Subroutine18 & 0xFFFF
??CrossCallReturnLabel_63:
        LCALL   ?DEALLOC_XSTACK8
        CFI CFA_XSP16 add(XSP16, 25)
//  598   osal_memcpy(&data[9],&humidity, 1);
        ; Setup parameters for call to function osal_memcpy
        MOV     DPL,?XSP + 0
        MOV     DPH,?XSP + 1
        MOV     R1,DPL
        MOV     R2,DPH
        MOV     ?V0 + 0,R1
        MOV     ?V0 + 1,R2
        MOV     R0,#?V0 + 0
        LCALL   ?PUSH_XSTACK_I_THREE
        CFI CFA_XSP16 add(XSP16, 28)
        MOV     R4,#0x1
        MOV     R5,#0x0
        MOV     A,#0xe
        LCALL   ?XSTACK_DISP0_8
        LCALL   ?Subroutine18 & 0xFFFF
??CrossCallReturnLabel_64:
        LCALL   ?DEALLOC_XSTACK8
        CFI CFA_XSP16 add(XSP16, 25)
//  599   HalUARTWrite(0,data,10);
        ; Setup parameters for call to function HalUARTWrite
        MOV     R4,#0xa
        MOV     R5,#0x0
        MOV     A,#0x2
        LCALL   ?XSTACK_DISP0_8
        MOV     R2,DPL
        MOV     R3,DPH
        MOV     R1,#0x0
        LCALL   ??HalUARTWrite?relay
//  600 
//  601     if ( AF_DataRequest( &SmartHomeApp_P2P_DstAddr, &SmartHomeApp_epDesc,
//  602                        SMARTHOME_TEMPHUMIMSG,
//  603                        10,
//  604                        data,
//  605                        &SmartHomeApp_TransID,
//  606                        AF_DISCV_ROUTE,
//  607                        AF_DEFAULT_RADIUS ) == afStatus_SUCCESS )
        ; Setup parameters for call to function AF_DataRequest
        MOV     ?V0 + 0,#0x1e
        MOV     R0,#?V0 + 0
        LCALL   ?PUSH_XSTACK_I_ONE
        CFI CFA_XSP16 add(XSP16, 26)
        MOV     ?V0 + 0,#SmartHomeApp_TransID & 0xff
        MOV     ?V0 + 1,#(SmartHomeApp_TransID >> 8) & 0xff
        MOV     R0,#?V0 + 0
        LCALL   ?PUSH_XSTACK_I_TWO
        CFI CFA_XSP16 add(XSP16, 28)
        MOV     A,#0x5
        LCALL   ?XSTACK_DISP0_8
        MOV     ?V0 + 0,DPL
        MOV     ?V0 + 1,DPH
        MOV     R0,#?V0 + 0
        LCALL   ?PUSH_XSTACK_I_TWO
        CFI CFA_XSP16 add(XSP16, 30)
        MOV     ?V0 + 0,#0xa
        MOV     ?V0 + 1,#0x0
        MOV     R0,#?V0 + 0
        LCALL   ?PUSH_XSTACK_I_TWO
        CFI CFA_XSP16 add(XSP16, 32)
        MOV     ?V0 + 0,#0x1
        MOV     R0,#?V0 + 0
        LCALL   ?PUSH_XSTACK_I_TWO
        CFI CFA_XSP16 add(XSP16, 34)
        LCALL   ?Subroutine27 & 0xFFFF
??CrossCallReturnLabel_59:
        LCALL   ?DEALLOC_XSTACK8
        CFI CFA_XSP16 add(XSP16, 25)
//  608   {
//  609   }
//  610   else
//  611   {
//  612     // Error occurred in request to send.
//  613   }
//  614 }
        MOV     A,#0xe
        CFI EndBlock cfiBlock21
        REQUIRE ?Subroutine1
        REQUIRE P0SEL
        ; // Fall through to label ?Subroutine1

        RSEG BANKED_CODE:CODE:NOROOT(0)
?Subroutine1:
        CFI Block cfiBlock22 Using cfiCommon0
        CFI NoFunction
        CFI CFA_SP SP+0
        CFI CFA_XSP16 add(XSP16, 25)
        CFI VB load(1, XDATA, add(CFA_XSP16, literal(-10)))
        CFI DPL0 load(1, XDATA, add(CFA_XSP16, literal(-2)))
        CFI DPH0 load(1, XDATA, add(CFA_XSP16, literal(-1)))
        CFI R6 load(1, XDATA, add(CFA_XSP16, literal(-11)))
        CFI R7 load(1, XDATA, add(CFA_XSP16, literal(-6)))
        CFI V0 load(1, XDATA, add(CFA_XSP16, literal(-9)))
        CFI V1 load(1, XDATA, add(CFA_XSP16, literal(-8)))
        CFI V2 load(1, XDATA, add(CFA_XSP16, literal(-7)))
        CFI ?BRET_EXT load(1, XDATA, add(CFA_XSP16, literal(-3)))
        CFI ?RET_HIGH load(1, XDATA, add(CFA_XSP16, literal(-4)))
        CFI ?RET_LOW load(1, XDATA, add(CFA_XSP16, literal(-5)))
        CFI Invalid
        LCALL   ?DEALLOC_XSTACK8
        CFI EndBlock cfiBlock22
        REQUIRE ??Subroutine38_0
        ; // Fall through to label ??Subroutine38_0

        RSEG BANKED_CODE:CODE:NOROOT(0)
??Subroutine38_0:
        CFI Block cfiBlock23 Using cfiCommon0
        CFI NoFunction
        CFI CFA_SP SP+0
        CFI CFA_XSP16 add(XSP16, 11)
        CFI VB load(1, XDATA, add(CFA_XSP16, literal(-10)))
        CFI DPL0 load(1, XDATA, add(CFA_XSP16, literal(-2)))
        CFI DPH0 load(1, XDATA, add(CFA_XSP16, literal(-1)))
        CFI R6 load(1, XDATA, add(CFA_XSP16, literal(-11)))
        CFI R7 load(1, XDATA, add(CFA_XSP16, literal(-6)))
        CFI V0 load(1, XDATA, add(CFA_XSP16, literal(-9)))
        CFI V1 load(1, XDATA, add(CFA_XSP16, literal(-8)))
        CFI V2 load(1, XDATA, add(CFA_XSP16, literal(-7)))
        CFI ?BRET_EXT load(1, XDATA, add(CFA_XSP16, literal(-3)))
        CFI ?RET_HIGH load(1, XDATA, add(CFA_XSP16, literal(-4)))
        CFI ?RET_LOW load(1, XDATA, add(CFA_XSP16, literal(-5)))
        MOV     R7,#0x3
        LJMP    ?BANKED_LEAVE_XDATA
        CFI EndBlock cfiBlock23

        RSEG BANKED_CODE:CODE:NOROOT(0)
?Subroutine27:
        CFI Block cfiCond24 Using cfiCommon0
        CFI NoFunction
        CFI Conditional ??CrossCallReturnLabel_58
        CFI R6 load(1, XDATA, add(CFA_XSP16, literal(-10)))
        CFI VB load(1, XDATA, add(CFA_XSP16, literal(-9)))
        CFI V0 load(1, XDATA, add(CFA_XSP16, literal(-8)))
        CFI V1 load(1, XDATA, add(CFA_XSP16, literal(-7)))
        CFI R7 load(1, XDATA, add(CFA_XSP16, literal(-6)))
        CFI ?RET_LOW load(1, XDATA, add(CFA_XSP16, literal(-5)))
        CFI ?RET_HIGH load(1, XDATA, add(CFA_XSP16, literal(-4)))
        CFI ?BRET_EXT load(1, XDATA, add(CFA_XSP16, literal(-3)))
        CFI DPL0 load(1, XDATA, add(CFA_XSP16, literal(-2)))
        CFI DPH0 load(1, XDATA, add(CFA_XSP16, literal(-1)))
        CFI CFA_SP SP+0
        CFI CFA_XSP16 add(XSP16, 19)
        CFI Block cfiCond25 Using cfiCommon0
        CFI (cfiCond25) NoFunction
        CFI (cfiCond25) Conditional ??CrossCallReturnLabel_59
        CFI (cfiCond25) R6 load(1, XDATA, add(CFA_XSP16, literal(-11)))
        CFI (cfiCond25) VB load(1, XDATA, add(CFA_XSP16, literal(-10)))
        CFI (cfiCond25) V0 load(1, XDATA, add(CFA_XSP16, literal(-9)))
        CFI (cfiCond25) V1 load(1, XDATA, add(CFA_XSP16, literal(-8)))
        CFI (cfiCond25) V2 load(1, XDATA, add(CFA_XSP16, literal(-7)))
        CFI (cfiCond25) R7 load(1, XDATA, add(CFA_XSP16, literal(-6)))
        CFI (cfiCond25) ?RET_LOW load(1, XDATA, add(CFA_XSP16, literal(-5)))
        CFI (cfiCond25) ?RET_HIGH load(1, XDATA, add(CFA_XSP16, literal(-4)))
        CFI (cfiCond25) ?BRET_EXT load(1, XDATA, add(CFA_XSP16, literal(-3)))
        CFI (cfiCond25) DPL0 load(1, XDATA, add(CFA_XSP16, literal(-2)))
        CFI (cfiCond25) DPH0 load(1, XDATA, add(CFA_XSP16, literal(-1)))
        CFI (cfiCond25) CFA_SP SP+0
        CFI (cfiCond25) CFA_XSP16 add(XSP16, 34)
        CFI Block cfiCond26 Using cfiCommon0
        CFI (cfiCond26) NoFunction
        CFI (cfiCond26) Conditional ??CrossCallReturnLabel_60
        CFI (cfiCond26) R6 load(1, XDATA, add(CFA_XSP16, literal(-11)))
        CFI (cfiCond26) VB load(1, XDATA, add(CFA_XSP16, literal(-10)))
        CFI (cfiCond26) V0 load(1, XDATA, add(CFA_XSP16, literal(-9)))
        CFI (cfiCond26) V1 load(1, XDATA, add(CFA_XSP16, literal(-8)))
        CFI (cfiCond26) V2 load(1, XDATA, add(CFA_XSP16, literal(-7)))
        CFI (cfiCond26) R7 load(1, XDATA, add(CFA_XSP16, literal(-6)))
        CFI (cfiCond26) ?RET_LOW load(1, XDATA, add(CFA_XSP16, literal(-5)))
        CFI (cfiCond26) ?RET_HIGH load(1, XDATA, add(CFA_XSP16, literal(-4)))
        CFI (cfiCond26) ?BRET_EXT load(1, XDATA, add(CFA_XSP16, literal(-3)))
        CFI (cfiCond26) DPL0 load(1, XDATA, add(CFA_XSP16, literal(-2)))
        CFI (cfiCond26) DPH0 load(1, XDATA, add(CFA_XSP16, literal(-1)))
        CFI (cfiCond26) CFA_SP SP+0
        CFI (cfiCond26) CFA_XSP16 add(XSP16, 28)
        CFI Block cfiPicker27 Using cfiCommon1
        CFI (cfiPicker27) NoFunction
        CFI (cfiPicker27) Picker
        MOV     R1,#0x20
        MOV     R4,#SmartHomeApp_epDesc & 0xff
        MOV     R5,#(SmartHomeApp_epDesc >> 8) & 0xff
        MOV     R2,#SmartHomeApp_P2P_DstAddr & 0xff
        MOV     R3,#(SmartHomeApp_P2P_DstAddr >> 8) & 0xff
        CFI EndBlock cfiCond24
        CFI EndBlock cfiCond25
        CFI EndBlock cfiCond26
        CFI EndBlock cfiPicker27
        REQUIRE ??Subroutine39_0
        ; // Fall through to label ??Subroutine39_0

        RSEG BANKED_CODE:CODE:NOROOT(0)
??Subroutine39_0:
        CFI Block cfiCond28 Using cfiCommon0
        CFI NoFunction
        CFI Conditional ??CrossCallReturnLabel_61
        CFI R6 load(1, XDATA, add(CFA_XSP16, literal(-10)))
        CFI VB load(1, XDATA, add(CFA_XSP16, literal(-9)))
        CFI V0 load(1, XDATA, add(CFA_XSP16, literal(-8)))
        CFI V1 load(1, XDATA, add(CFA_XSP16, literal(-7)))
        CFI R7 load(1, XDATA, add(CFA_XSP16, literal(-6)))
        CFI ?RET_LOW load(1, XDATA, add(CFA_XSP16, literal(-5)))
        CFI ?RET_HIGH load(1, XDATA, add(CFA_XSP16, literal(-4)))
        CFI ?BRET_EXT load(1, XDATA, add(CFA_XSP16, literal(-3)))
        CFI DPL0 load(1, XDATA, add(CFA_XSP16, literal(-2)))
        CFI DPH0 load(1, XDATA, add(CFA_XSP16, literal(-1)))
        CFI CFA_SP SP+0
        CFI CFA_XSP16 add(XSP16, 40)
        CFI Block cfiCond29 Using cfiCommon0
        CFI (cfiCond29) NoFunction
        CFI (cfiCond29) Conditional ??CrossCallReturnLabel_58
        CFI (cfiCond29) R6 load(1, XDATA, add(CFA_XSP16, literal(-10)))
        CFI (cfiCond29) VB load(1, XDATA, add(CFA_XSP16, literal(-9)))
        CFI (cfiCond29) V0 load(1, XDATA, add(CFA_XSP16, literal(-8)))
        CFI (cfiCond29) V1 load(1, XDATA, add(CFA_XSP16, literal(-7)))
        CFI (cfiCond29) R7 load(1, XDATA, add(CFA_XSP16, literal(-6)))
        CFI (cfiCond29) ?RET_LOW load(1, XDATA, add(CFA_XSP16, literal(-5)))
        CFI (cfiCond29) ?RET_HIGH load(1, XDATA, add(CFA_XSP16, literal(-4)))
        CFI (cfiCond29) ?BRET_EXT load(1, XDATA, add(CFA_XSP16, literal(-3)))
        CFI (cfiCond29) DPL0 load(1, XDATA, add(CFA_XSP16, literal(-2)))
        CFI (cfiCond29) DPH0 load(1, XDATA, add(CFA_XSP16, literal(-1)))
        CFI (cfiCond29) CFA_SP SP+0
        CFI (cfiCond29) CFA_XSP16 add(XSP16, 19)
        CFI Block cfiCond30 Using cfiCommon0
        CFI (cfiCond30) NoFunction
        CFI (cfiCond30) Conditional ??CrossCallReturnLabel_59
        CFI (cfiCond30) R6 load(1, XDATA, add(CFA_XSP16, literal(-11)))
        CFI (cfiCond30) VB load(1, XDATA, add(CFA_XSP16, literal(-10)))
        CFI (cfiCond30) V0 load(1, XDATA, add(CFA_XSP16, literal(-9)))
        CFI (cfiCond30) V1 load(1, XDATA, add(CFA_XSP16, literal(-8)))
        CFI (cfiCond30) V2 load(1, XDATA, add(CFA_XSP16, literal(-7)))
        CFI (cfiCond30) R7 load(1, XDATA, add(CFA_XSP16, literal(-6)))
        CFI (cfiCond30) ?RET_LOW load(1, XDATA, add(CFA_XSP16, literal(-5)))
        CFI (cfiCond30) ?RET_HIGH load(1, XDATA, add(CFA_XSP16, literal(-4)))
        CFI (cfiCond30) ?BRET_EXT load(1, XDATA, add(CFA_XSP16, literal(-3)))
        CFI (cfiCond30) DPL0 load(1, XDATA, add(CFA_XSP16, literal(-2)))
        CFI (cfiCond30) DPH0 load(1, XDATA, add(CFA_XSP16, literal(-1)))
        CFI (cfiCond30) CFA_SP SP+0
        CFI (cfiCond30) CFA_XSP16 add(XSP16, 34)
        CFI Block cfiCond31 Using cfiCommon0
        CFI (cfiCond31) NoFunction
        CFI (cfiCond31) Conditional ??CrossCallReturnLabel_60
        CFI (cfiCond31) R6 load(1, XDATA, add(CFA_XSP16, literal(-11)))
        CFI (cfiCond31) VB load(1, XDATA, add(CFA_XSP16, literal(-10)))
        CFI (cfiCond31) V0 load(1, XDATA, add(CFA_XSP16, literal(-9)))
        CFI (cfiCond31) V1 load(1, XDATA, add(CFA_XSP16, literal(-8)))
        CFI (cfiCond31) V2 load(1, XDATA, add(CFA_XSP16, literal(-7)))
        CFI (cfiCond31) R7 load(1, XDATA, add(CFA_XSP16, literal(-6)))
        CFI (cfiCond31) ?RET_LOW load(1, XDATA, add(CFA_XSP16, literal(-5)))
        CFI (cfiCond31) ?RET_HIGH load(1, XDATA, add(CFA_XSP16, literal(-4)))
        CFI (cfiCond31) ?BRET_EXT load(1, XDATA, add(CFA_XSP16, literal(-3)))
        CFI (cfiCond31) DPL0 load(1, XDATA, add(CFA_XSP16, literal(-2)))
        CFI (cfiCond31) DPH0 load(1, XDATA, add(CFA_XSP16, literal(-1)))
        CFI (cfiCond31) CFA_SP SP+0
        CFI (cfiCond31) CFA_XSP16 add(XSP16, 28)
        CFI Block cfiPicker32 Using cfiCommon1
        CFI (cfiPicker32) NoFunction
        CFI (cfiPicker32) Picker
        LCALL   ??AF_DataRequest?relay
        MOV     A,#0x9
        RET
        CFI EndBlock cfiCond28
        CFI EndBlock cfiCond29
        CFI EndBlock cfiCond30
        CFI EndBlock cfiCond31
        CFI EndBlock cfiPicker32

        RSEG BANKED_CODE:CODE:NOROOT(0)
?Subroutine18:
        CFI Block cfiCond33 Using cfiCommon0
        CFI NoFunction
        CFI Conditional ??CrossCallReturnLabel_62
        CFI R6 load(1, XDATA, add(CFA_XSP16, literal(-11)))
        CFI VB load(1, XDATA, add(CFA_XSP16, literal(-10)))
        CFI V0 load(1, XDATA, add(CFA_XSP16, literal(-9)))
        CFI V1 load(1, XDATA, add(CFA_XSP16, literal(-8)))
        CFI V2 load(1, XDATA, add(CFA_XSP16, literal(-7)))
        CFI R7 load(1, XDATA, add(CFA_XSP16, literal(-6)))
        CFI ?RET_LOW load(1, XDATA, add(CFA_XSP16, literal(-5)))
        CFI ?RET_HIGH load(1, XDATA, add(CFA_XSP16, literal(-4)))
        CFI ?BRET_EXT load(1, XDATA, add(CFA_XSP16, literal(-3)))
        CFI DPL0 load(1, XDATA, add(CFA_XSP16, literal(-2)))
        CFI DPH0 load(1, XDATA, add(CFA_XSP16, literal(-1)))
        CFI CFA_SP SP+0
        CFI CFA_XSP16 add(XSP16, 28)
        CFI Block cfiCond34 Using cfiCommon0
        CFI (cfiCond34) NoFunction
        CFI (cfiCond34) Conditional ??CrossCallReturnLabel_63
        CFI (cfiCond34) R6 load(1, XDATA, add(CFA_XSP16, literal(-11)))
        CFI (cfiCond34) VB load(1, XDATA, add(CFA_XSP16, literal(-10)))
        CFI (cfiCond34) V0 load(1, XDATA, add(CFA_XSP16, literal(-9)))
        CFI (cfiCond34) V1 load(1, XDATA, add(CFA_XSP16, literal(-8)))
        CFI (cfiCond34) V2 load(1, XDATA, add(CFA_XSP16, literal(-7)))
        CFI (cfiCond34) R7 load(1, XDATA, add(CFA_XSP16, literal(-6)))
        CFI (cfiCond34) ?RET_LOW load(1, XDATA, add(CFA_XSP16, literal(-5)))
        CFI (cfiCond34) ?RET_HIGH load(1, XDATA, add(CFA_XSP16, literal(-4)))
        CFI (cfiCond34) ?BRET_EXT load(1, XDATA, add(CFA_XSP16, literal(-3)))
        CFI (cfiCond34) DPL0 load(1, XDATA, add(CFA_XSP16, literal(-2)))
        CFI (cfiCond34) DPH0 load(1, XDATA, add(CFA_XSP16, literal(-1)))
        CFI (cfiCond34) CFA_SP SP+0
        CFI (cfiCond34) CFA_XSP16 add(XSP16, 28)
        CFI Block cfiCond35 Using cfiCommon0
        CFI (cfiCond35) NoFunction
        CFI (cfiCond35) Conditional ??CrossCallReturnLabel_64
        CFI (cfiCond35) R6 load(1, XDATA, add(CFA_XSP16, literal(-11)))
        CFI (cfiCond35) VB load(1, XDATA, add(CFA_XSP16, literal(-10)))
        CFI (cfiCond35) V0 load(1, XDATA, add(CFA_XSP16, literal(-9)))
        CFI (cfiCond35) V1 load(1, XDATA, add(CFA_XSP16, literal(-8)))
        CFI (cfiCond35) V2 load(1, XDATA, add(CFA_XSP16, literal(-7)))
        CFI (cfiCond35) R7 load(1, XDATA, add(CFA_XSP16, literal(-6)))
        CFI (cfiCond35) ?RET_LOW load(1, XDATA, add(CFA_XSP16, literal(-5)))
        CFI (cfiCond35) ?RET_HIGH load(1, XDATA, add(CFA_XSP16, literal(-4)))
        CFI (cfiCond35) ?BRET_EXT load(1, XDATA, add(CFA_XSP16, literal(-3)))
        CFI (cfiCond35) DPL0 load(1, XDATA, add(CFA_XSP16, literal(-2)))
        CFI (cfiCond35) DPH0 load(1, XDATA, add(CFA_XSP16, literal(-1)))
        CFI (cfiCond35) CFA_SP SP+0
        CFI (cfiCond35) CFA_XSP16 add(XSP16, 28)
        CFI Block cfiCond36 Using cfiCommon0
        CFI (cfiCond36) NoFunction
        CFI (cfiCond36) Conditional ??CrossCallReturnLabel_65
        CFI (cfiCond36) R6 load(1, XDATA, add(CFA_XSP16, literal(-11)))
        CFI (cfiCond36) VB load(1, XDATA, add(CFA_XSP16, literal(-10)))
        CFI (cfiCond36) V0 load(1, XDATA, add(CFA_XSP16, literal(-9)))
        CFI (cfiCond36) V1 load(1, XDATA, add(CFA_XSP16, literal(-8)))
        CFI (cfiCond36) V2 load(1, XDATA, add(CFA_XSP16, literal(-7)))
        CFI (cfiCond36) R7 load(1, XDATA, add(CFA_XSP16, literal(-6)))
        CFI (cfiCond36) ?RET_LOW load(1, XDATA, add(CFA_XSP16, literal(-5)))
        CFI (cfiCond36) ?RET_HIGH load(1, XDATA, add(CFA_XSP16, literal(-4)))
        CFI (cfiCond36) ?BRET_EXT load(1, XDATA, add(CFA_XSP16, literal(-3)))
        CFI (cfiCond36) DPL0 load(1, XDATA, add(CFA_XSP16, literal(-2)))
        CFI (cfiCond36) DPH0 load(1, XDATA, add(CFA_XSP16, literal(-1)))
        CFI (cfiCond36) CFA_SP SP+0
        CFI (cfiCond36) CFA_XSP16 add(XSP16, 22)
        CFI Block cfiPicker37 Using cfiCommon1
        CFI (cfiPicker37) NoFunction
        CFI (cfiPicker37) Picker
        MOV     R2,DPL
        MOV     R3,DPH
        CFI EndBlock cfiCond33
        CFI EndBlock cfiCond34
        CFI EndBlock cfiCond35
        CFI EndBlock cfiCond36
        CFI EndBlock cfiPicker37
        REQUIRE ??Subroutine40_0
        ; // Fall through to label ??Subroutine40_0

        RSEG BANKED_CODE:CODE:NOROOT(0)
??Subroutine40_0:
        CFI Block cfiCond38 Using cfiCommon0
        CFI NoFunction
        CFI Conditional ??CrossCallReturnLabel_66
        CFI R6 load(1, XDATA, add(CFA_XSP16, literal(-11)))
        CFI VB load(1, XDATA, add(CFA_XSP16, literal(-10)))
        CFI V0 load(1, XDATA, add(CFA_XSP16, literal(-9)))
        CFI V1 load(1, XDATA, add(CFA_XSP16, literal(-8)))
        CFI V2 load(1, XDATA, add(CFA_XSP16, literal(-7)))
        CFI R7 load(1, XDATA, add(CFA_XSP16, literal(-6)))
        CFI ?RET_LOW load(1, XDATA, add(CFA_XSP16, literal(-5)))
        CFI ?RET_HIGH load(1, XDATA, add(CFA_XSP16, literal(-4)))
        CFI ?BRET_EXT load(1, XDATA, add(CFA_XSP16, literal(-3)))
        CFI DPL0 load(1, XDATA, add(CFA_XSP16, literal(-2)))
        CFI DPH0 load(1, XDATA, add(CFA_XSP16, literal(-1)))
        CFI CFA_SP SP+0
        CFI CFA_XSP16 add(XSP16, 14)
        CFI Block cfiCond39 Using cfiCommon0
        CFI (cfiCond39) NoFunction
        CFI (cfiCond39) Conditional ??CrossCallReturnLabel_62
        CFI (cfiCond39) R6 load(1, XDATA, add(CFA_XSP16, literal(-11)))
        CFI (cfiCond39) VB load(1, XDATA, add(CFA_XSP16, literal(-10)))
        CFI (cfiCond39) V0 load(1, XDATA, add(CFA_XSP16, literal(-9)))
        CFI (cfiCond39) V1 load(1, XDATA, add(CFA_XSP16, literal(-8)))
        CFI (cfiCond39) V2 load(1, XDATA, add(CFA_XSP16, literal(-7)))
        CFI (cfiCond39) R7 load(1, XDATA, add(CFA_XSP16, literal(-6)))
        CFI (cfiCond39) ?RET_LOW load(1, XDATA, add(CFA_XSP16, literal(-5)))
        CFI (cfiCond39) ?RET_HIGH load(1, XDATA, add(CFA_XSP16, literal(-4)))
        CFI (cfiCond39) ?BRET_EXT load(1, XDATA, add(CFA_XSP16, literal(-3)))
        CFI (cfiCond39) DPL0 load(1, XDATA, add(CFA_XSP16, literal(-2)))
        CFI (cfiCond39) DPH0 load(1, XDATA, add(CFA_XSP16, literal(-1)))
        CFI (cfiCond39) CFA_SP SP+0
        CFI (cfiCond39) CFA_XSP16 add(XSP16, 28)
        CFI Block cfiCond40 Using cfiCommon0
        CFI (cfiCond40) NoFunction
        CFI (cfiCond40) Conditional ??CrossCallReturnLabel_63
        CFI (cfiCond40) R6 load(1, XDATA, add(CFA_XSP16, literal(-11)))
        CFI (cfiCond40) VB load(1, XDATA, add(CFA_XSP16, literal(-10)))
        CFI (cfiCond40) V0 load(1, XDATA, add(CFA_XSP16, literal(-9)))
        CFI (cfiCond40) V1 load(1, XDATA, add(CFA_XSP16, literal(-8)))
        CFI (cfiCond40) V2 load(1, XDATA, add(CFA_XSP16, literal(-7)))
        CFI (cfiCond40) R7 load(1, XDATA, add(CFA_XSP16, literal(-6)))
        CFI (cfiCond40) ?RET_LOW load(1, XDATA, add(CFA_XSP16, literal(-5)))
        CFI (cfiCond40) ?RET_HIGH load(1, XDATA, add(CFA_XSP16, literal(-4)))
        CFI (cfiCond40) ?BRET_EXT load(1, XDATA, add(CFA_XSP16, literal(-3)))
        CFI (cfiCond40) DPL0 load(1, XDATA, add(CFA_XSP16, literal(-2)))
        CFI (cfiCond40) DPH0 load(1, XDATA, add(CFA_XSP16, literal(-1)))
        CFI (cfiCond40) CFA_SP SP+0
        CFI (cfiCond40) CFA_XSP16 add(XSP16, 28)
        CFI Block cfiCond41 Using cfiCommon0
        CFI (cfiCond41) NoFunction
        CFI (cfiCond41) Conditional ??CrossCallReturnLabel_64
        CFI (cfiCond41) R6 load(1, XDATA, add(CFA_XSP16, literal(-11)))
        CFI (cfiCond41) VB load(1, XDATA, add(CFA_XSP16, literal(-10)))
        CFI (cfiCond41) V0 load(1, XDATA, add(CFA_XSP16, literal(-9)))
        CFI (cfiCond41) V1 load(1, XDATA, add(CFA_XSP16, literal(-8)))
        CFI (cfiCond41) V2 load(1, XDATA, add(CFA_XSP16, literal(-7)))
        CFI (cfiCond41) R7 load(1, XDATA, add(CFA_XSP16, literal(-6)))
        CFI (cfiCond41) ?RET_LOW load(1, XDATA, add(CFA_XSP16, literal(-5)))
        CFI (cfiCond41) ?RET_HIGH load(1, XDATA, add(CFA_XSP16, literal(-4)))
        CFI (cfiCond41) ?BRET_EXT load(1, XDATA, add(CFA_XSP16, literal(-3)))
        CFI (cfiCond41) DPL0 load(1, XDATA, add(CFA_XSP16, literal(-2)))
        CFI (cfiCond41) DPH0 load(1, XDATA, add(CFA_XSP16, literal(-1)))
        CFI (cfiCond41) CFA_SP SP+0
        CFI (cfiCond41) CFA_XSP16 add(XSP16, 28)
        CFI Block cfiCond42 Using cfiCommon0
        CFI (cfiCond42) NoFunction
        CFI (cfiCond42) Conditional ??CrossCallReturnLabel_65
        CFI (cfiCond42) R6 load(1, XDATA, add(CFA_XSP16, literal(-11)))
        CFI (cfiCond42) VB load(1, XDATA, add(CFA_XSP16, literal(-10)))
        CFI (cfiCond42) V0 load(1, XDATA, add(CFA_XSP16, literal(-9)))
        CFI (cfiCond42) V1 load(1, XDATA, add(CFA_XSP16, literal(-8)))
        CFI (cfiCond42) V2 load(1, XDATA, add(CFA_XSP16, literal(-7)))
        CFI (cfiCond42) R7 load(1, XDATA, add(CFA_XSP16, literal(-6)))
        CFI (cfiCond42) ?RET_LOW load(1, XDATA, add(CFA_XSP16, literal(-5)))
        CFI (cfiCond42) ?RET_HIGH load(1, XDATA, add(CFA_XSP16, literal(-4)))
        CFI (cfiCond42) ?BRET_EXT load(1, XDATA, add(CFA_XSP16, literal(-3)))
        CFI (cfiCond42) DPL0 load(1, XDATA, add(CFA_XSP16, literal(-2)))
        CFI (cfiCond42) DPH0 load(1, XDATA, add(CFA_XSP16, literal(-1)))
        CFI (cfiCond42) CFA_SP SP+0
        CFI (cfiCond42) CFA_XSP16 add(XSP16, 22)
        CFI Block cfiPicker43 Using cfiCommon1
        CFI (cfiPicker43) NoFunction
        CFI (cfiPicker43) Picker
        LCALL   ??osal_memcpy?relay
        MOV     A,#0x3
        RET
        CFI EndBlock cfiCond38
        CFI EndBlock cfiCond39
        CFI EndBlock cfiCond40
        CFI EndBlock cfiCond41
        CFI EndBlock cfiCond42
        CFI EndBlock cfiPicker43
//  615 

        RSEG BANKED_CODE:CODE:NOROOT(0)
//  616 void SHEndPointSendFireAlarmMsg()
SHEndPointSendFireAlarmMsg:
        CFI Block cfiBlock44 Using cfiCommon0
        CFI Function SHEndPointSendFireAlarmMsg
        CODE
//  617 {
        FUNCALL SHEndPointSendFireAlarmMsg, DelayMS
        LOCFRAME ISTACK, 0, STACK
        LOCFRAME PSTACK, 0, STACK
        LOCFRAME XSTACK, 19, STACK
        LOCFRAME IOVERLAY, 0, STATIC
        LOCFRAME DOVERLAY, 0, STATIC
        ARGFRAME ISTACK, 0, STACK
        ARGFRAME PSTACK, 0, STACK
        ARGFRAME XSTACK, 19, STACK
        ARGFRAME IOVERLAY, 0, STATIC
        ARGFRAME DOVERLAY, 0, STATIC
        FUNCALL SHEndPointSendFireAlarmMsg, osal_memcpy
        LOCFRAME ISTACK, 0, STACK
        LOCFRAME PSTACK, 0, STACK
        LOCFRAME XSTACK, 22, STACK
        LOCFRAME IOVERLAY, 0, STATIC
        LOCFRAME DOVERLAY, 0, STATIC
        ARGFRAME ISTACK, 0, STACK
        ARGFRAME PSTACK, 0, STACK
        ARGFRAME XSTACK, 22, STACK
        ARGFRAME IOVERLAY, 0, STATIC
        ARGFRAME DOVERLAY, 0, STATIC
        FUNCALL SHEndPointSendFireAlarmMsg, AF_DataRequest
        LOCFRAME ISTACK, 0, STACK
        LOCFRAME PSTACK, 0, STACK
        LOCFRAME XSTACK, 28, STACK
        LOCFRAME IOVERLAY, 0, STATIC
        LOCFRAME DOVERLAY, 0, STATIC
        ARGFRAME ISTACK, 0, STACK
        ARGFRAME PSTACK, 0, STACK
        ARGFRAME XSTACK, 28, STACK
        ARGFRAME IOVERLAY, 0, STATIC
        ARGFRAME DOVERLAY, 0, STATIC
        MOV     A,#-0xb
        LCALL   ?BANKED_ENTER_XDATA
        CFI DPH0 load(1, XDATA, add(CFA_XSP16, literal(-1)))
        CFI DPL0 load(1, XDATA, add(CFA_XSP16, literal(-2)))
        CFI ?BRET_EXT load(1, XDATA, add(CFA_XSP16, literal(-3)))
        CFI ?RET_HIGH load(1, XDATA, add(CFA_XSP16, literal(-4)))
        CFI ?RET_LOW load(1, XDATA, add(CFA_XSP16, literal(-5)))
        CFI R7 load(1, XDATA, add(CFA_XSP16, literal(-6)))
        CFI V2 load(1, XDATA, add(CFA_XSP16, literal(-7)))
        CFI V1 load(1, XDATA, add(CFA_XSP16, literal(-8)))
        CFI V0 load(1, XDATA, add(CFA_XSP16, literal(-9)))
        CFI VB load(1, XDATA, add(CFA_XSP16, literal(-10)))
        CFI R6 load(1, XDATA, add(CFA_XSP16, literal(-11)))
        CFI CFA_SP SP+0
        CFI CFA_XSP16 add(XSP16, 11)
        ; Saved register size: 11
        ; Auto size: 8
        MOV     A,#-0x8
        LCALL   ?ALLOC_XSTACK8
        CFI CFA_XSP16 add(XSP16, 19)
//  618 	P0DIR &= ~0x20; 
        ANL     0xfd,#0xdf
//  619 	if(SHMQ2ANDFIREPin == 0)         //当浓度高于设定值时 ，执行条件函数        
        MOV     C,0x80.5
        JC      ??SHEndPointSendFireAlarmMsg_0
//  620         {
//  621             DelayMS(10);          //延时抗干扰
        ; Setup parameters for call to function DelayMS
        MOV     R2,#0xa
        MOV     R3,#0x0
        LCALL   ??DelayMS?relay
//  622             if(SHMQ2ANDFIREPin == 0)     //确定 浓度高于设定值时 ，执行条件函数
        MOV     C,0x80.5
        JC      ??SHEndPointSendFireAlarmMsg_0
//  623             {
//  624               	byte data[8];
//  625 				uint8 *macAddr = aExtendedAddress;
//  626 
//  627 				osal_memcpy(data, macAddr, 8);
        ; Setup parameters for call to function osal_memcpy
        MOV     ?V0 + 0,#aExtendedAddress & 0xff
        MOV     ?V0 + 1,#(aExtendedAddress >> 8) & 0xff
        MOV     ?V0 + 2,#0x0
        MOV     R0,#?V0 + 0
        LCALL   ?PUSH_XSTACK_I_THREE
        CFI CFA_XSP16 add(XSP16, 22)
        MOV     R4,#0x8
        MOV     R5,#0x0
        MOV     A,#0x3
        LCALL   ?XSTACK_DISP0_8
        LCALL   ?Subroutine18 & 0xFFFF
??CrossCallReturnLabel_65:
        LCALL   ?DEALLOC_XSTACK8
        CFI CFA_XSP16 add(XSP16, 19)
//  628 				//HalUARTWrite(0,data,8);
//  629 
//  630 				if ( AF_DataRequest( &SmartHomeApp_P2P_DstAddr, &SmartHomeApp_epDesc,
//  631 				                   SMARTHOME_FIREALARM,
//  632 				                   8,
//  633 				                   data,
//  634 				                   &SmartHomeApp_TransID,
//  635 				                   AF_DISCV_ROUTE,
//  636 				                   AF_DEFAULT_RADIUS ) == afStatus_SUCCESS )
        ; Setup parameters for call to function AF_DataRequest
        MOV     ?V0 + 0,#0x1e
        MOV     R0,#?V0 + 0
        LCALL   ?PUSH_XSTACK_I_ONE
        CFI CFA_XSP16 add(XSP16, 20)
        MOV     ?V0 + 0,#SmartHomeApp_TransID & 0xff
        MOV     ?V0 + 1,#(SmartHomeApp_TransID >> 8) & 0xff
        MOV     R0,#?V0 + 0
        LCALL   ?PUSH_XSTACK_I_TWO
        CFI CFA_XSP16 add(XSP16, 22)
        MOV     A,#0x3
        LCALL   ?XSTACK_DISP0_8
        MOV     ?V0 + 0,DPL
        MOV     ?V0 + 1,DPH
        MOV     R0,#?V0 + 0
        LCALL   ?PUSH_XSTACK_I_TWO
        CFI CFA_XSP16 add(XSP16, 24)
        MOV     ?V0 + 0,#0x8
        MOV     ?V0 + 1,#0x0
        MOV     R0,#?V0 + 0
        LCALL   ?PUSH_XSTACK_I_TWO
        CFI CFA_XSP16 add(XSP16, 26)
        MOV     ?V0 + 0,#0x3
        MOV     R0,#?V0 + 0
        LCALL   ?PUSH_XSTACK_I_TWO
        CFI CFA_XSP16 add(XSP16, 28)
        LCALL   ?Subroutine27 & 0xFFFF
//  637 				{
//  638 				}
//  639 				else
//  640 				{
//  641 				// Error occurred in request to send.
//  642 				}
//  643             }
//  644         }
??CrossCallReturnLabel_60:
        LCALL   ?DEALLOC_XSTACK8
        CFI CFA_XSP16 add(XSP16, 19)
//  645 }
??SHEndPointSendFireAlarmMsg_0:
        MOV     A,#0x8
        LJMP    ?Subroutine1 & 0xFFFF
        CFI EndBlock cfiBlock44
        REQUIRE P0DIR
        REQUIRE _A_P0
//  646 

        RSEG BANKED_CODE:CODE:NOROOT(0)
//  647 void SHCoordSendDHT11Msg(afIncomingMSGPacket_t *pkt)
SHCoordSendDHT11Msg:
        CFI Block cfiBlock45 Using cfiCommon0
        CFI Function SHCoordSendDHT11Msg
        CODE
//  648 {
        FUNCALL SHCoordSendDHT11Msg, SHCoordSendUartMsg
        LOCFRAME ISTACK, 2, STACK
        LOCFRAME PSTACK, 0, STACK
        LOCFRAME XSTACK, 50, STACK
        LOCFRAME IOVERLAY, 0, STATIC
        LOCFRAME DOVERLAY, 0, STATIC
        ARGFRAME ISTACK, 2, STACK
        ARGFRAME PSTACK, 0, STACK
        ARGFRAME XSTACK, 50, STACK
        ARGFRAME IOVERLAY, 0, STATIC
        ARGFRAME DOVERLAY, 0, STATIC
        PUSH    DPL
        CFI DPL0 Frame(CFA_SP, 4)
        CFI CFA_SP SP+-4
        PUSH    DPH
        CFI DPH0 Frame(CFA_SP, 5)
        CFI CFA_SP SP+-5
        ; Saved register size: 2
        ; Auto size: 25
        MOV     A,#-0x19
        LCALL   ?ALLOC_XSTACK8
        CFI CFA_XSP16 add(XSP16, 25)
//  649   //HalUARTWrite(0,pkt->cmd.Data,pkt->cmd.DataLength);
//  650   uartSendMsg msg;
//  651   
//  652   msg.header = 0xff;
        LCALL   ?Subroutine11 & 0xFFFF
//  653   msg.shortAddr = pkt->srcAddr.addr.shortAddr;
??CrossCallReturnLabel_10:
        LCALL   ?XSTACK_DISP0_8
        LCALL   ?Subroutine9 & 0xFFFF
//  654   for(int i=0;i<8;i++)
//  655  {
//  656 	msg.extAddr[i] =  pkt->cmd.Data[7-i];
??CrossCallReturnLabel_8:
        LCALL   ?Subroutine20 & 0xFFFF
//  657  }
??CrossCallReturnLabel_22:
        PUSH    A
        CFI CFA_SP SP+-6
        LCALL   ?Subroutine26 & 0xFFFF
??CrossCallReturnLabel_37:
        POP     A
        CFI CFA_SP SP+-5
        LCALL   ?Subroutine4 & 0xFFFF
??CrossCallReturnLabel_1:
        JC      ??CrossCallReturnLabel_8
//  658  #if defined ( ENDDEVICE_DHT11 ) 
//  659   msg.body.msgType = SMARTHOME_TEMPHUMIMSG;
        MOV     A,#0xb
        LCALL   ?XSTACK_DISP0_8
        MOV     A,#0x1
        MOVX    @DPTR,A
//  660   msg.body.len = 2;
        MOV     A,#0xc
        LCALL   ?XSTACK_DISP0_8
        MOV     A,#0x2
        MOVX    @DPTR,A
//  661 #endif
//  662 
//  663 #if defined ( ENDDEVICE_FIREALARM ) 
//  664 	msg.body.msgType = SMARTHOME_FIREALARM;
//  665 	msg.body.len = 0;
//  666 #endif
//  667 
//  668   for(int i=0;i<msg.body.len;i++)
        MOV     R2,#0x0
        MOV     R3,#0x0
        SJMP    ??SHCoordSendDHT11Msg_0
//  669   {
//  670 	  msg.body.data[i] = pkt->cmd.Data[8+i];
??SHCoordSendDHT11Msg_1:
        LCALL   ?Subroutine23 & 0xFFFF
//  671   }
??CrossCallReturnLabel_31:
        PUSH    A
        CFI CFA_SP SP+-6
        LCALL   ?Subroutine24 & 0xFFFF
??CrossCallReturnLabel_33:
        POP     A
        CFI CFA_SP SP+-5
        LCALL   ?Subroutine7 & 0xFFFF
??CrossCallReturnLabel_56:
        MOV     R3,A
??SHCoordSendDHT11Msg_0:
        MOV     A,#0xc
        LCALL   ?XSTACK_DISP0_8
        LCALL   ?Subroutine16 & 0xFFFF
??CrossCallReturnLabel_18:
        JC      ??SHCoordSendDHT11Msg_1
//  672   msg.tailer = 0x11;
        LJMP    ?Subroutine0 & 0xFFFF
        CFI EndBlock cfiBlock45
//  673   
//  674 SHCoordSendUartMsg(msg); 
//  675 }

        RSEG BANKED_CODE:CODE:NOROOT(0)
?Subroutine26:
        CFI Block cfiCond46 Using cfiCommon0
        CFI NoFunction
        CFI Conditional ??CrossCallReturnLabel_36
        CFI DPL0 Frame(CFA_SP, 4)
        CFI DPH0 Frame(CFA_SP, 5)
        CFI CFA_SP SP+-6
        CFI CFA_XSP16 add(XSP16, 25)
        CFI Block cfiCond47 Using cfiCommon0
        CFI (cfiCond47) NoFunction
        CFI (cfiCond47) Conditional ??CrossCallReturnLabel_37
        CFI (cfiCond47) DPL0 Frame(CFA_SP, 4)
        CFI (cfiCond47) DPH0 Frame(CFA_SP, 5)
        CFI (cfiCond47) CFA_SP SP+-6
        CFI (cfiCond47) CFA_XSP16 add(XSP16, 25)
        CFI Block cfiPicker48 Using cfiCommon1
        CFI (cfiPicker48) NoFunction
        CFI (cfiPicker48) Picker
        MOV     DPL,?XSP + 0
        MOV     DPH,?XSP + 1
        MOV     A,DPL
        ADD     A,R4
        MOV     DPL,A
        MOV     A,DPH
        ADDC    A,R5
        MOV     DPH,A
        INC     DPTR
        INC     DPTR
        INC     DPTR
        RET
        CFI EndBlock cfiCond46
        CFI EndBlock cfiCond47
        CFI EndBlock cfiPicker48

        RSEG BANKED_CODE:CODE:NOROOT(0)
?Subroutine24:
        CFI Block cfiCond49 Using cfiCommon0
        CFI NoFunction
        CFI Conditional ??CrossCallReturnLabel_32
        CFI DPL0 Frame(CFA_SP, 4)
        CFI DPH0 Frame(CFA_SP, 5)
        CFI CFA_SP SP+-6
        CFI CFA_XSP16 add(XSP16, 25)
        CFI Block cfiCond50 Using cfiCommon0
        CFI (cfiCond50) NoFunction
        CFI (cfiCond50) Conditional ??CrossCallReturnLabel_33
        CFI (cfiCond50) DPL0 Frame(CFA_SP, 4)
        CFI (cfiCond50) DPH0 Frame(CFA_SP, 5)
        CFI (cfiCond50) CFA_SP SP+-6
        CFI (cfiCond50) CFA_XSP16 add(XSP16, 25)
        CFI Block cfiPicker51 Using cfiCommon1
        CFI (cfiPicker51) NoFunction
        CFI (cfiPicker51) Picker
        MOV     DPL,?XSP + 0
        MOV     DPH,?XSP + 1
        MOV     A,DPL
        ADD     A,R2
        MOV     R4,A
        MOV     A,DPH
        ADDC    A,R3
        MOV     R5,A
        MOV     A,R4
        ADD     A,#0xd
        MOV     DPL,A
        MOV     A,R5
        ADDC    A,#0x0
        MOV     DPH,A
        RET
        CFI EndBlock cfiCond49
        CFI EndBlock cfiCond50
        CFI EndBlock cfiPicker51

        RSEG BANKED_CODE:CODE:NOROOT(0)
?Subroutine23:
        CFI Block cfiCond52 Using cfiCommon0
        CFI NoFunction
        CFI Conditional ??CrossCallReturnLabel_30
        CFI DPL0 Frame(CFA_SP, 4)
        CFI DPH0 Frame(CFA_SP, 5)
        CFI CFA_SP SP+-5
        CFI CFA_XSP16 add(XSP16, 25)
        CFI Block cfiCond53 Using cfiCommon0
        CFI (cfiCond53) NoFunction
        CFI (cfiCond53) Conditional ??CrossCallReturnLabel_31
        CFI (cfiCond53) DPL0 Frame(CFA_SP, 4)
        CFI (cfiCond53) DPH0 Frame(CFA_SP, 5)
        CFI (cfiCond53) CFA_SP SP+-5
        CFI (cfiCond53) CFA_XSP16 add(XSP16, 25)
        CFI Block cfiPicker54 Using cfiCommon1
        CFI (cfiPicker54) NoFunction
        CFI (cfiPicker54) Picker
        LCALL   ?Subroutine32 & 0xFFFF
??CrossCallReturnLabel_49:
        INC     DPTR
        MOVX    A,@DPTR
        RET
        CFI EndBlock cfiCond52
        CFI EndBlock cfiCond53
        CFI EndBlock cfiPicker54

        RSEG BANKED_CODE:CODE:NOROOT(0)
?Subroutine20:
        CFI Block cfiCond55 Using cfiCommon0
        CFI NoFunction
        CFI Conditional ??CrossCallReturnLabel_21
        CFI DPL0 Frame(CFA_SP, 4)
        CFI DPH0 Frame(CFA_SP, 5)
        CFI CFA_SP SP+-5
        CFI CFA_XSP16 add(XSP16, 25)
        CFI Block cfiCond56 Using cfiCommon0
        CFI (cfiCond56) NoFunction
        CFI (cfiCond56) Conditional ??CrossCallReturnLabel_22
        CFI (cfiCond56) DPL0 Frame(CFA_SP, 4)
        CFI (cfiCond56) DPH0 Frame(CFA_SP, 5)
        CFI (cfiCond56) CFA_SP SP+-5
        CFI (cfiCond56) CFA_XSP16 add(XSP16, 25)
        CFI Block cfiPicker57 Using cfiCommon1
        CFI (cfiPicker57) NoFunction
        CFI (cfiPicker57) Picker
        CLR     C
        CLR     A
        SUBB    A,R4
        MOV     R2,A
        CLR     A
        SUBB    A,R5
        MOV     R3,A
        LCALL   ?Subroutine32 & 0xFFFF
??CrossCallReturnLabel_48:
        MOVX    A,@DPTR
        RET
        CFI EndBlock cfiCond55
        CFI EndBlock cfiCond56
        CFI EndBlock cfiPicker57

        RSEG BANKED_CODE:CODE:NOROOT(0)
?Subroutine32:
        CFI Block cfiCond58 Using cfiCommon0
        CFI NoFunction
        CFI Conditional ??CrossCallReturnLabel_49, ??CrossCallReturnLabel_30
        CFI DPL0 Frame(CFA_SP, 4)
        CFI DPH0 Frame(CFA_SP, 5)
        CFI CFA_SP SP+-5
        CFI CFA_XSP16 add(XSP16, 25)
        CFI Block cfiCond59 Using cfiCommon0
        CFI (cfiCond59) NoFunction
        CFI (cfiCond59) Conditional ??CrossCallReturnLabel_49, ??CrossCallReturnLabel_31
        CFI (cfiCond59) DPL0 Frame(CFA_SP, 4)
        CFI (cfiCond59) DPH0 Frame(CFA_SP, 5)
        CFI (cfiCond59) CFA_SP SP+-5
        CFI (cfiCond59) CFA_XSP16 add(XSP16, 25)
        CFI Block cfiCond60 Using cfiCommon0
        CFI (cfiCond60) NoFunction
        CFI (cfiCond60) Conditional ??CrossCallReturnLabel_48, ??CrossCallReturnLabel_21
        CFI (cfiCond60) DPL0 Frame(CFA_SP, 4)
        CFI (cfiCond60) DPH0 Frame(CFA_SP, 5)
        CFI (cfiCond60) CFA_SP SP+-5
        CFI (cfiCond60) CFA_XSP16 add(XSP16, 25)
        CFI Block cfiCond61 Using cfiCommon0
        CFI (cfiCond61) NoFunction
        CFI (cfiCond61) Conditional ??CrossCallReturnLabel_48, ??CrossCallReturnLabel_22
        CFI (cfiCond61) DPL0 Frame(CFA_SP, 4)
        CFI (cfiCond61) DPH0 Frame(CFA_SP, 5)
        CFI (cfiCond61) CFA_SP SP+-5
        CFI (cfiCond61) CFA_XSP16 add(XSP16, 25)
        CFI Block cfiPicker62 Using cfiCommon1
        CFI (cfiPicker62) NoFunction
        CFI (cfiPicker62) Picker
        MOV     A,R0
        ADD     A,R2
        MOV     DPL,A
        MOV     A,R1
        ADDC    A,R3
        MOV     DPH,A
        INC     DPTR
        INC     DPTR
        INC     DPTR
        INC     DPTR
        INC     DPTR
        INC     DPTR
        INC     DPTR
        RET
        CFI EndBlock cfiCond58
        CFI EndBlock cfiCond59
        CFI EndBlock cfiCond60
        CFI EndBlock cfiCond61
        CFI EndBlock cfiPicker62

        RSEG BANKED_CODE:CODE:NOROOT(0)
?Subroutine16:
        CFI Block cfiCond63 Using cfiCommon0
        CFI NoFunction
        CFI Conditional ??CrossCallReturnLabel_17
        CFI DPL0 Frame(CFA_SP, 4)
        CFI DPH0 Frame(CFA_SP, 5)
        CFI CFA_SP SP+-5
        CFI CFA_XSP16 add(XSP16, 25)
        CFI Block cfiCond64 Using cfiCommon0
        CFI (cfiCond64) NoFunction
        CFI (cfiCond64) Conditional ??CrossCallReturnLabel_18
        CFI (cfiCond64) DPL0 Frame(CFA_SP, 4)
        CFI (cfiCond64) DPH0 Frame(CFA_SP, 5)
        CFI (cfiCond64) CFA_SP SP+-5
        CFI (cfiCond64) CFA_XSP16 add(XSP16, 25)
        CFI Block cfiPicker65 Using cfiCommon1
        CFI (cfiPicker65) NoFunction
        CFI (cfiPicker65) Picker
        MOVX    A,@DPTR
        MOV     R4,A
        CLR     C
        MOV     A,R2
        SUBB    A,R4
        MOV     A,R3
        LCALL   ?Subroutine33 & 0xFFFF
??CrossCallReturnLabel_75:
        RET
        CFI EndBlock cfiCond63
        CFI EndBlock cfiCond64
        CFI EndBlock cfiPicker65

        RSEG BANKED_CODE:CODE:NOROOT(0)
?Subroutine11:
        CFI Block cfiCond66 Using cfiCommon0
        CFI NoFunction
        CFI Conditional ??CrossCallReturnLabel_9
        CFI DPL0 Frame(CFA_SP, 4)
        CFI DPH0 Frame(CFA_SP, 5)
        CFI CFA_SP SP+-5
        CFI CFA_XSP16 add(XSP16, 25)
        CFI Block cfiCond67 Using cfiCommon0
        CFI (cfiCond67) NoFunction
        CFI (cfiCond67) Conditional ??CrossCallReturnLabel_10
        CFI (cfiCond67) DPL0 Frame(CFA_SP, 4)
        CFI (cfiCond67) DPH0 Frame(CFA_SP, 5)
        CFI (cfiCond67) CFA_SP SP+-5
        CFI (cfiCond67) CFA_XSP16 add(XSP16, 25)
        CFI Block cfiPicker68 Using cfiCommon1
        CFI (cfiPicker68) NoFunction
        CFI (cfiPicker68) Picker
        MOV     DPL,?XSP + 0
        MOV     DPH,?XSP + 1
        MOV     A,#-0x1
        LCALL   ?Subroutine30 & 0xFFFF
??CrossCallReturnLabel_42:
        INC     DPTR
        INC     DPTR
        INC     DPTR
        LCALL   ?Subroutine31 & 0xFFFF
??CrossCallReturnLabel_47:
        MOV     A,#0x1
        RET
        CFI EndBlock cfiCond66
        CFI EndBlock cfiCond67
        CFI EndBlock cfiPicker68

        RSEG BANKED_CODE:CODE:NOROOT(0)
?Subroutine9:
        CFI Block cfiCond69 Using cfiCommon0
        CFI NoFunction
        CFI Conditional ??CrossCallReturnLabel_7
        CFI DPL0 Frame(CFA_SP, 4)
        CFI DPH0 Frame(CFA_SP, 5)
        CFI CFA_SP SP+-5
        CFI CFA_XSP16 add(XSP16, 25)
        CFI Block cfiCond70 Using cfiCommon0
        CFI (cfiCond70) NoFunction
        CFI (cfiCond70) Conditional ??CrossCallReturnLabel_8
        CFI (cfiCond70) DPL0 Frame(CFA_SP, 4)
        CFI (cfiCond70) DPH0 Frame(CFA_SP, 5)
        CFI (cfiCond70) CFA_SP SP+-5
        CFI (cfiCond70) CFA_XSP16 add(XSP16, 25)
        CFI Block cfiPicker71 Using cfiCommon1
        CFI (cfiPicker71) NoFunction
        CFI (cfiPicker71) Picker
        MOV     A,R0
        MOVX    @DPTR,A
        INC     DPTR
        MOV     A,R1
        MOVX    @DPTR,A
        MOV     R4,#0x0
        MOV     R5,#0x0
        MOV     A,R2
        ADD     A,#0x21
        MOV     DPL,A
        MOV     A,R3
        ADDC    A,#0x0
        MOV     DPH,A
        LCALL   ?Subroutine31 & 0xFFFF
??CrossCallReturnLabel_46:
        RET
        CFI EndBlock cfiCond69
        CFI EndBlock cfiCond70
        CFI EndBlock cfiPicker71

        RSEG BANKED_CODE:CODE:NOROOT(0)
?Subroutine31:
        CFI Block cfiCond72 Using cfiCommon0
        CFI NoFunction
        CFI Conditional ??CrossCallReturnLabel_44
        CFI R6 load(1, XDATA, add(CFA_XSP16, literal(-12)))
        CFI VB load(1, XDATA, add(CFA_XSP16, literal(-11)))
        CFI V0 load(1, XDATA, add(CFA_XSP16, literal(-10)))
        CFI V1 load(1, XDATA, add(CFA_XSP16, literal(-9)))
        CFI V2 load(1, XDATA, add(CFA_XSP16, literal(-8)))
        CFI V3 load(1, XDATA, add(CFA_XSP16, literal(-7)))
        CFI R7 load(1, XDATA, add(CFA_XSP16, literal(-6)))
        CFI ?RET_LOW load(1, XDATA, add(CFA_XSP16, literal(-5)))
        CFI ?RET_HIGH load(1, XDATA, add(CFA_XSP16, literal(-4)))
        CFI ?BRET_EXT load(1, XDATA, add(CFA_XSP16, literal(-3)))
        CFI DPL0 load(1, XDATA, add(CFA_XSP16, literal(-2)))
        CFI DPH0 load(1, XDATA, add(CFA_XSP16, literal(-1)))
        CFI CFA_SP SP+0
        CFI CFA_XSP16 add(XSP16, 12)
        CFI Block cfiCond73 Using cfiCommon0
        CFI (cfiCond73) NoFunction
        CFI (cfiCond73) Conditional ??CrossCallReturnLabel_47, ??CrossCallReturnLabel_9
        CFI (cfiCond73) DPL0 Frame(CFA_SP, 4)
        CFI (cfiCond73) DPH0 Frame(CFA_SP, 5)
        CFI (cfiCond73) CFA_SP SP+-5
        CFI (cfiCond73) CFA_XSP16 add(XSP16, 25)
        CFI Block cfiCond74 Using cfiCommon0
        CFI (cfiCond74) NoFunction
        CFI (cfiCond74) Conditional ??CrossCallReturnLabel_47, ??CrossCallReturnLabel_10
        CFI (cfiCond74) DPL0 Frame(CFA_SP, 4)
        CFI (cfiCond74) DPH0 Frame(CFA_SP, 5)
        CFI (cfiCond74) CFA_SP SP+-5
        CFI (cfiCond74) CFA_XSP16 add(XSP16, 25)
        CFI Block cfiCond75 Using cfiCommon0
        CFI (cfiCond75) NoFunction
        CFI (cfiCond75) Conditional ??CrossCallReturnLabel_46, ??CrossCallReturnLabel_7
        CFI (cfiCond75) DPL0 Frame(CFA_SP, 4)
        CFI (cfiCond75) DPH0 Frame(CFA_SP, 5)
        CFI (cfiCond75) CFA_SP SP+-5
        CFI (cfiCond75) CFA_XSP16 add(XSP16, 25)
        CFI Block cfiCond76 Using cfiCommon0
        CFI (cfiCond76) NoFunction
        CFI (cfiCond76) Conditional ??CrossCallReturnLabel_46, ??CrossCallReturnLabel_8
        CFI (cfiCond76) DPL0 Frame(CFA_SP, 4)
        CFI (cfiCond76) DPH0 Frame(CFA_SP, 5)
        CFI (cfiCond76) CFA_SP SP+-5
        CFI (cfiCond76) CFA_XSP16 add(XSP16, 25)
        CFI Block cfiCond77 Using cfiCommon0
        CFI (cfiCond77) NoFunction
        CFI (cfiCond77) Conditional ??CrossCallReturnLabel_45
        CFI (cfiCond77) R6 load(1, XDATA, add(CFA_XSP16, literal(-10)))
        CFI (cfiCond77) VB load(1, XDATA, add(CFA_XSP16, literal(-9)))
        CFI (cfiCond77) V0 load(1, XDATA, add(CFA_XSP16, literal(-8)))
        CFI (cfiCond77) V1 load(1, XDATA, add(CFA_XSP16, literal(-7)))
        CFI (cfiCond77) R7 load(1, XDATA, add(CFA_XSP16, literal(-6)))
        CFI (cfiCond77) ?RET_LOW load(1, XDATA, add(CFA_XSP16, literal(-5)))
        CFI (cfiCond77) ?RET_HIGH load(1, XDATA, add(CFA_XSP16, literal(-4)))
        CFI (cfiCond77) ?BRET_EXT load(1, XDATA, add(CFA_XSP16, literal(-3)))
        CFI (cfiCond77) DPL0 load(1, XDATA, add(CFA_XSP16, literal(-2)))
        CFI (cfiCond77) DPH0 load(1, XDATA, add(CFA_XSP16, literal(-1)))
        CFI (cfiCond77) CFA_SP SP+0
        CFI (cfiCond77) CFA_XSP16 add(XSP16, 31)
        CFI Block cfiPicker78 Using cfiCommon1
        CFI (cfiPicker78) NoFunction
        CFI (cfiPicker78) Picker
        MOVX    A,@DPTR
        MOV     R0,A
        INC     DPTR
        MOVX    A,@DPTR
        MOV     R1,A
        RET
        CFI EndBlock cfiCond72
        CFI EndBlock cfiCond73
        CFI EndBlock cfiCond74
        CFI EndBlock cfiCond75
        CFI EndBlock cfiCond76
        CFI EndBlock cfiCond77
        CFI EndBlock cfiPicker78

        RSEG BANKED_CODE:CODE:NOROOT(0)
?Subroutine4:
        CFI Block cfiCond79 Using cfiCommon0
        CFI NoFunction
        CFI Conditional ??CrossCallReturnLabel_0
        CFI DPL0 Frame(CFA_SP, 4)
        CFI DPH0 Frame(CFA_SP, 5)
        CFI CFA_SP SP+-5
        CFI CFA_XSP16 add(XSP16, 25)
        CFI Block cfiCond80 Using cfiCommon0
        CFI (cfiCond80) NoFunction
        CFI (cfiCond80) Conditional ??CrossCallReturnLabel_1
        CFI (cfiCond80) DPL0 Frame(CFA_SP, 4)
        CFI (cfiCond80) DPH0 Frame(CFA_SP, 5)
        CFI (cfiCond80) CFA_SP SP+-5
        CFI (cfiCond80) CFA_XSP16 add(XSP16, 25)
        CFI Block cfiPicker81 Using cfiCommon1
        CFI (cfiPicker81) NoFunction
        CFI (cfiPicker81) Picker
        MOVX    @DPTR,A
        MOV     A,R4
        ADD     A,#0x1
        INC     R4
        MOV     A,R5
        ADDC    A,#0x0
        MOV     R5,A
        CLR     C
        MOV     A,R4
        SUBB    A,#0x8
        MOV     A,R5
        LCALL   ?Subroutine33 & 0xFFFF
??CrossCallReturnLabel_74:
        RET
        CFI EndBlock cfiCond79
        CFI EndBlock cfiCond80
        CFI EndBlock cfiPicker81

        RSEG BANKED_CODE:CODE:NOROOT(0)
?Subroutine33:
        CFI Block cfiCond82 Using cfiCommon0
        CFI NoFunction
        CFI Conditional ??CrossCallReturnLabel_75, ??CrossCallReturnLabel_17
        CFI DPL0 Frame(CFA_SP, 4)
        CFI DPH0 Frame(CFA_SP, 5)
        CFI CFA_SP SP+-5
        CFI CFA_XSP16 add(XSP16, 25)
        CFI Block cfiCond83 Using cfiCommon0
        CFI (cfiCond83) NoFunction
        CFI (cfiCond83) Conditional ??CrossCallReturnLabel_75, ??CrossCallReturnLabel_18
        CFI (cfiCond83) DPL0 Frame(CFA_SP, 4)
        CFI (cfiCond83) DPH0 Frame(CFA_SP, 5)
        CFI (cfiCond83) CFA_SP SP+-5
        CFI (cfiCond83) CFA_XSP16 add(XSP16, 25)
        CFI Block cfiCond84 Using cfiCommon0
        CFI (cfiCond84) NoFunction
        CFI (cfiCond84) Conditional ??CrossCallReturnLabel_74, ??CrossCallReturnLabel_0
        CFI (cfiCond84) DPL0 Frame(CFA_SP, 4)
        CFI (cfiCond84) DPH0 Frame(CFA_SP, 5)
        CFI (cfiCond84) CFA_SP SP+-5
        CFI (cfiCond84) CFA_XSP16 add(XSP16, 25)
        CFI Block cfiCond85 Using cfiCommon0
        CFI (cfiCond85) NoFunction
        CFI (cfiCond85) Conditional ??CrossCallReturnLabel_74, ??CrossCallReturnLabel_1
        CFI (cfiCond85) DPL0 Frame(CFA_SP, 4)
        CFI (cfiCond85) DPH0 Frame(CFA_SP, 5)
        CFI (cfiCond85) CFA_SP SP+-5
        CFI (cfiCond85) CFA_XSP16 add(XSP16, 25)
        CFI Block cfiCond86 Using cfiCommon0
        CFI (cfiCond86) NoFunction
        CFI (cfiCond86) Conditional ??CrossCallReturnLabel_76, ??CrossCallReturnLabel_69
        CFI (cfiCond86) DPL0 Frame(CFA_SP, 4)
        CFI (cfiCond86) DPH0 Frame(CFA_SP, 5)
        CFI (cfiCond86) CFA_SP SP+-5
        CFI (cfiCond86) CFA_XSP16 add(XSP16, 50)
        CFI Block cfiCond87 Using cfiCommon0
        CFI (cfiCond87) NoFunction
        CFI (cfiCond87) Conditional ??CrossCallReturnLabel_76, ??CrossCallReturnLabel_70
        CFI (cfiCond87) DPL0 Frame(CFA_SP, 4)
        CFI (cfiCond87) DPH0 Frame(CFA_SP, 5)
        CFI (cfiCond87) CFA_SP SP+-5
        CFI (cfiCond87) CFA_XSP16 add(XSP16, 50)
        CFI Block cfiCond88 Using cfiCommon0
        CFI (cfiCond88) NoFunction
        CFI (cfiCond88) Conditional ??CrossCallReturnLabel_76, ??CrossCallReturnLabel_71
        CFI (cfiCond88) R6 load(1, XDATA, add(CFA_XSP16, literal(-10)))
        CFI (cfiCond88) VB load(1, XDATA, add(CFA_XSP16, literal(-9)))
        CFI (cfiCond88) V0 load(1, XDATA, add(CFA_XSP16, literal(-8)))
        CFI (cfiCond88) V1 load(1, XDATA, add(CFA_XSP16, literal(-7)))
        CFI (cfiCond88) R7 load(1, XDATA, add(CFA_XSP16, literal(-6)))
        CFI (cfiCond88) ?RET_LOW load(1, XDATA, add(CFA_XSP16, literal(-5)))
        CFI (cfiCond88) ?RET_HIGH load(1, XDATA, add(CFA_XSP16, literal(-4)))
        CFI (cfiCond88) ?BRET_EXT load(1, XDATA, add(CFA_XSP16, literal(-3)))
        CFI (cfiCond88) DPL0 load(1, XDATA, add(CFA_XSP16, literal(-2)))
        CFI (cfiCond88) DPH0 load(1, XDATA, add(CFA_XSP16, literal(-1)))
        CFI (cfiCond88) CFA_SP SP+0
        CFI (cfiCond88) CFA_XSP16 add(XSP16, 31)
        CFI Block cfiCond89 Using cfiCommon0
        CFI (cfiCond89) NoFunction
        CFI (cfiCond89) Conditional ??CrossCallReturnLabel_76, ??CrossCallReturnLabel_72
        CFI (cfiCond89) R6 load(1, XDATA, add(CFA_XSP16, literal(-16)))
        CFI (cfiCond89) VB load(1, XDATA, add(CFA_XSP16, literal(-15)))
        CFI (cfiCond89) V0 load(1, XDATA, add(CFA_XSP16, literal(-14)))
        CFI (cfiCond89) V1 load(1, XDATA, add(CFA_XSP16, literal(-13)))
        CFI (cfiCond89) V2 load(1, XDATA, add(CFA_XSP16, literal(-12)))
        CFI (cfiCond89) V3 load(1, XDATA, add(CFA_XSP16, literal(-11)))
        CFI (cfiCond89) V4 load(1, XDATA, add(CFA_XSP16, literal(-10)))
        CFI (cfiCond89) V5 load(1, XDATA, add(CFA_XSP16, literal(-9)))
        CFI (cfiCond89) V6 load(1, XDATA, add(CFA_XSP16, literal(-8)))
        CFI (cfiCond89) V7 load(1, XDATA, add(CFA_XSP16, literal(-7)))
        CFI (cfiCond89) R7 load(1, XDATA, add(CFA_XSP16, literal(-6)))
        CFI (cfiCond89) ?RET_LOW load(1, XDATA, add(CFA_XSP16, literal(-5)))
        CFI (cfiCond89) ?RET_HIGH load(1, XDATA, add(CFA_XSP16, literal(-4)))
        CFI (cfiCond89) ?BRET_EXT load(1, XDATA, add(CFA_XSP16, literal(-3)))
        CFI (cfiCond89) DPL0 load(1, XDATA, add(CFA_XSP16, literal(-2)))
        CFI (cfiCond89) DPH0 load(1, XDATA, add(CFA_XSP16, literal(-1)))
        CFI (cfiCond89) CFA_SP SP+0
        CFI (cfiCond89) CFA_XSP16 add(XSP16, 157)
        CFI Block cfiCond90 Using cfiCommon0
        CFI (cfiCond90) NoFunction
        CFI (cfiCond90) Conditional ??CrossCallReturnLabel_76, ??CrossCallReturnLabel_73
        CFI (cfiCond90) R6 load(1, XDATA, add(CFA_XSP16, literal(-16)))
        CFI (cfiCond90) VB load(1, XDATA, add(CFA_XSP16, literal(-15)))
        CFI (cfiCond90) V0 load(1, XDATA, add(CFA_XSP16, literal(-14)))
        CFI (cfiCond90) V1 load(1, XDATA, add(CFA_XSP16, literal(-13)))
        CFI (cfiCond90) V2 load(1, XDATA, add(CFA_XSP16, literal(-12)))
        CFI (cfiCond90) V3 load(1, XDATA, add(CFA_XSP16, literal(-11)))
        CFI (cfiCond90) V4 load(1, XDATA, add(CFA_XSP16, literal(-10)))
        CFI (cfiCond90) V5 load(1, XDATA, add(CFA_XSP16, literal(-9)))
        CFI (cfiCond90) V6 load(1, XDATA, add(CFA_XSP16, literal(-8)))
        CFI (cfiCond90) V7 load(1, XDATA, add(CFA_XSP16, literal(-7)))
        CFI (cfiCond90) R7 load(1, XDATA, add(CFA_XSP16, literal(-6)))
        CFI (cfiCond90) ?RET_LOW load(1, XDATA, add(CFA_XSP16, literal(-5)))
        CFI (cfiCond90) ?RET_HIGH load(1, XDATA, add(CFA_XSP16, literal(-4)))
        CFI (cfiCond90) ?BRET_EXT load(1, XDATA, add(CFA_XSP16, literal(-3)))
        CFI (cfiCond90) DPL0 load(1, XDATA, add(CFA_XSP16, literal(-2)))
        CFI (cfiCond90) DPH0 load(1, XDATA, add(CFA_XSP16, literal(-1)))
        CFI (cfiCond90) CFA_SP SP+0
        CFI (cfiCond90) CFA_XSP16 add(XSP16, 157)
        CFI Block cfiCond91 Using cfiCommon0
        CFI (cfiCond91) NoFunction
        CFI (cfiCond91) Conditional ??CrossCallReturnLabel_76, ??CrossCallReturnLabel_67
        CFI (cfiCond91) R6 load(1, XDATA, add(CFA_XSP16, literal(-16)))
        CFI (cfiCond91) VB load(1, XDATA, add(CFA_XSP16, literal(-15)))
        CFI (cfiCond91) V0 load(1, XDATA, add(CFA_XSP16, literal(-14)))
        CFI (cfiCond91) V1 load(1, XDATA, add(CFA_XSP16, literal(-13)))
        CFI (cfiCond91) V2 load(1, XDATA, add(CFA_XSP16, literal(-12)))
        CFI (cfiCond91) V3 load(1, XDATA, add(CFA_XSP16, literal(-11)))
        CFI (cfiCond91) V4 load(1, XDATA, add(CFA_XSP16, literal(-10)))
        CFI (cfiCond91) V5 load(1, XDATA, add(CFA_XSP16, literal(-9)))
        CFI (cfiCond91) V6 load(1, XDATA, add(CFA_XSP16, literal(-8)))
        CFI (cfiCond91) V7 load(1, XDATA, add(CFA_XSP16, literal(-7)))
        CFI (cfiCond91) R7 load(1, XDATA, add(CFA_XSP16, literal(-6)))
        CFI (cfiCond91) ?RET_LOW load(1, XDATA, add(CFA_XSP16, literal(-5)))
        CFI (cfiCond91) ?RET_HIGH load(1, XDATA, add(CFA_XSP16, literal(-4)))
        CFI (cfiCond91) ?BRET_EXT load(1, XDATA, add(CFA_XSP16, literal(-3)))
        CFI (cfiCond91) DPL0 load(1, XDATA, add(CFA_XSP16, literal(-2)))
        CFI (cfiCond91) DPH0 load(1, XDATA, add(CFA_XSP16, literal(-1)))
        CFI (cfiCond91) CFA_SP SP+0
        CFI (cfiCond91) CFA_XSP16 add(XSP16, 157)
        CFI Block cfiCond92 Using cfiCommon0
        CFI (cfiCond92) NoFunction
        CFI (cfiCond92) Conditional ??CrossCallReturnLabel_76, ??CrossCallReturnLabel_68
        CFI (cfiCond92) R6 load(1, XDATA, add(CFA_XSP16, literal(-16)))
        CFI (cfiCond92) VB load(1, XDATA, add(CFA_XSP16, literal(-15)))
        CFI (cfiCond92) V0 load(1, XDATA, add(CFA_XSP16, literal(-14)))
        CFI (cfiCond92) V1 load(1, XDATA, add(CFA_XSP16, literal(-13)))
        CFI (cfiCond92) V2 load(1, XDATA, add(CFA_XSP16, literal(-12)))
        CFI (cfiCond92) V3 load(1, XDATA, add(CFA_XSP16, literal(-11)))
        CFI (cfiCond92) V4 load(1, XDATA, add(CFA_XSP16, literal(-10)))
        CFI (cfiCond92) V5 load(1, XDATA, add(CFA_XSP16, literal(-9)))
        CFI (cfiCond92) V6 load(1, XDATA, add(CFA_XSP16, literal(-8)))
        CFI (cfiCond92) V7 load(1, XDATA, add(CFA_XSP16, literal(-7)))
        CFI (cfiCond92) R7 load(1, XDATA, add(CFA_XSP16, literal(-6)))
        CFI (cfiCond92) ?RET_LOW load(1, XDATA, add(CFA_XSP16, literal(-5)))
        CFI (cfiCond92) ?RET_HIGH load(1, XDATA, add(CFA_XSP16, literal(-4)))
        CFI (cfiCond92) ?BRET_EXT load(1, XDATA, add(CFA_XSP16, literal(-3)))
        CFI (cfiCond92) DPL0 load(1, XDATA, add(CFA_XSP16, literal(-2)))
        CFI (cfiCond92) DPH0 load(1, XDATA, add(CFA_XSP16, literal(-1)))
        CFI (cfiCond92) CFA_SP SP+0
        CFI (cfiCond92) CFA_XSP16 add(XSP16, 157)
        CFI Block cfiPicker93 Using cfiCommon1
        CFI (cfiPicker93) NoFunction
        CFI (cfiPicker93) Picker
        SUBB    A,#0x0
        MOV     C,0xD0 /* PSW */.2
        XRL     A,PSW
        RLC     A
        RET
        CFI EndBlock cfiCond82
        CFI EndBlock cfiCond83
        CFI EndBlock cfiCond84
        CFI EndBlock cfiCond85
        CFI EndBlock cfiCond86
        CFI EndBlock cfiCond87
        CFI EndBlock cfiCond88
        CFI EndBlock cfiCond89
        CFI EndBlock cfiCond90
        CFI EndBlock cfiCond91
        CFI EndBlock cfiCond92
        CFI EndBlock cfiPicker93
//  676 

        RSEG BANKED_CODE:CODE:NOROOT(0)
//  677 void SHCoordSendFireAlarmMsg(afIncomingMSGPacket_t *pkt)
SHCoordSendFireAlarmMsg:
        CFI Block cfiBlock94 Using cfiCommon0
        CFI Function SHCoordSendFireAlarmMsg
        CODE
//  678 {
        FUNCALL SHCoordSendFireAlarmMsg, SHCoordSendDHT11Msg
        LOCFRAME ISTACK, 2, STACK
        LOCFRAME PSTACK, 0, STACK
        LOCFRAME XSTACK, 0, STACK
        LOCFRAME IOVERLAY, 0, STATIC
        LOCFRAME DOVERLAY, 0, STATIC
        ARGFRAME ISTACK, 2, STACK
        ARGFRAME PSTACK, 0, STACK
        ARGFRAME XSTACK, 0, STACK
        ARGFRAME IOVERLAY, 0, STATIC
        ARGFRAME DOVERLAY, 0, STATIC
        PUSH    DPL
        CFI DPL0 Frame(CFA_SP, 4)
        CFI CFA_SP SP+-4
        PUSH    DPH
        CFI DPH0 Frame(CFA_SP, 5)
        CFI CFA_SP SP+-5
        ; Saved register size: 2
        ; Auto size: 0
//  679 	SHCoordSendDHT11Msg(pkt);
        ; Setup parameters for call to function SHCoordSendDHT11Msg
        LCALL   ??SHCoordSendDHT11Msg?relay
//  680 }
        LJMP    ??Subroutine44_0 & 0xFFFF
        CFI EndBlock cfiBlock94
//  681 

        RSEG BANKED_CODE:CODE:NOROOT(0)
//  682 void SHCoordSendUartMsg(uartSendMsg msg)
SHCoordSendUartMsg:
        CFI Block cfiBlock95 Using cfiCommon0
        CFI Function SHCoordSendUartMsg
        CODE
//  683 {
        FUNCALL SHCoordSendUartMsg, HalUARTWrite
        LOCFRAME ISTACK, 2, STACK
        LOCFRAME PSTACK, 0, STACK
        LOCFRAME XSTACK, 50, STACK
        LOCFRAME IOVERLAY, 0, STATIC
        LOCFRAME DOVERLAY, 0, STATIC
        ARGFRAME ISTACK, 2, STACK
        ARGFRAME PSTACK, 0, STACK
        ARGFRAME XSTACK, 50, STACK
        ARGFRAME IOVERLAY, 0, STATIC
        ARGFRAME DOVERLAY, 0, STATIC
        PUSH    DPL
        CFI DPL0 Frame(CFA_SP, 4)
        CFI CFA_SP SP+-4
        PUSH    DPH
        CFI DPH0 Frame(CFA_SP, 5)
        CFI CFA_SP SP+-5
        ; Saved register size: 2
        ; Auto size: 50
        MOV     A,#-0x32
        LCALL   ?ALLOC_XSTACK8
        CFI CFA_XSP16 add(XSP16, 50)
//  684 	uint8 data[50]={0};
        MOV     DPL,?XSP + 0
        MOV     DPH,?XSP + 1
        MOV     R4,DPL
        MOV     R5,DPH
        MOV     DPH,#(`?<Constant {0}>` >> 8) & 0xff
        MOV     DPL,#`?<Constant {0}>` & 0xff
        MOV     A,#0x32
        LCALL   ?MOVE_LONG8_XDATA_XDATA
//  685      data[0] = msg.header;
        MOV     A,#0x32
        LCALL   ?XSTACK_DISP0_8
        MOVX    A,@DPTR
        MOV     DPL,?XSP + 0
        MOV     DPH,?XSP + 1
        MOVX    @DPTR,A
//  686      data[1] = msg.shortAddr>>8;
        MOV     A,#0x33
        LCALL   ?XSTACK_DISP0_8
        MOVX    A,@DPTR
        MOV     R2,A
        INC     DPTR
        MOVX    A,@DPTR
        PUSH    A
        CFI CFA_SP SP+-6
        MOV     A,#0x1
        LCALL   ?XSTACK_DISP0_8
        POP     A
        CFI CFA_SP SP+-5
        MOVX    @DPTR,A
//  687      data[2] = msg.shortAddr;
        MOV     A,#0x2
        LCALL   ?XSTACK_DISP0_8
        MOV     A,R2
        MOVX    @DPTR,A
//  688       for(int i=0;i<8;i++)
        MOV     R0,#0x0
        MOV     R1,#0x0
//  689      {
//  690     	data[3+i] =  msg.extAddr[i];
??SHCoordSendUartMsg_0:
        MOV     A,#0x32
        LCALL   ?XSTACK_DISP0_8
        LCALL   ?Subroutine21 & 0xFFFF
//  691      }
??CrossCallReturnLabel_23:
        MOVX    A,@DPTR
        PUSH    A
        CFI CFA_SP SP+-6
        MOV     DPL,?XSP + 0
        MOV     DPH,?XSP + 1
        LCALL   ?Subroutine21 & 0xFFFF
??CrossCallReturnLabel_24:
        POP     A
        CFI CFA_SP SP+-5
        LCALL   ?Subroutine5 & 0xFFFF
??CrossCallReturnLabel_2:
        SUBB    A,#0x8
        LCALL   ?Subroutine19 & 0xFFFF
??CrossCallReturnLabel_69:
        JC      ??SHCoordSendUartMsg_0
//  692      data[11] = msg.body.msgType;
        MOV     A,#0x3d
        LCALL   ?XSTACK_DISP0_8
        MOVX    A,@DPTR
        PUSH    A
        CFI CFA_SP SP+-6
        MOV     A,#0xb
        LCALL   ?XSTACK_DISP0_8
        POP     A
        CFI CFA_SP SP+-5
        MOVX    @DPTR,A
//  693      data[12] = msg.body.len;
        MOV     A,#0x3e
        LCALL   ?XSTACK_DISP0_8
        MOVX    A,@DPTR
        MOV     R2,A
        MOV     A,#0xc
        LCALL   ?XSTACK_DISP0_8
        MOV     A,R2
        MOVX    @DPTR,A
//  694 	for(int i=0;i<msg.body.len;i++)
        MOV     R0,#0x0
        MOV     R1,#0x0
        SJMP    ??CrossCallReturnLabel_77
//  695 	 {
//  696 	  	data[13 + i] = msg.body.data[i];
??SHCoordSendUartMsg_1:
        MOV     A,#0x32
        LCALL   ?XSTACK_DISP0_8
        LCALL   ?Subroutine25 & 0xFFFF
//  697 	 }
??CrossCallReturnLabel_34:
        LCALL   ??Subroutine47_0 & 0xFFFF
??CrossCallReturnLabel_84:
        PUSH    A
        CFI CFA_SP SP+-6
        MOV     DPL,?XSP + 0
        MOV     DPH,?XSP + 1
        LCALL   ?Subroutine25 & 0xFFFF
??CrossCallReturnLabel_35:
        ADDC    A,#0x0
        MOV     DPH,A
        POP     A
        CFI CFA_SP SP+-5
        LCALL   ?Subroutine6 & 0xFFFF
??CrossCallReturnLabel_77:
        CLR     C
        MOV     A,R0
        SUBB    A,R2
        LCALL   ?Subroutine19 & 0xFFFF
??CrossCallReturnLabel_70:
        JC      ??SHCoordSendUartMsg_1
//  698      data[13+msg.body.len] = msg.tailer;
        MOV     A,#0x49
        LCALL   ?XSTACK_DISP0_8
        MOVX    A,@DPTR
        PUSH    A
        CFI CFA_SP SP+-6
        MOV     DPL,?XSP + 0
        MOV     DPH,?XSP + 1
        MOV     A,DPL
        ADD     A,R2
        MOV     R0,A
        MOV     A,DPH
        ADDC    A,#0x0
        MOV     R1,A
        MOV     A,R0
        ADD     A,#0xd
        MOV     DPL,A
        MOV     A,R1
        ADDC    A,#0x0
        MOV     DPH,A
        POP     A
        CFI CFA_SP SP+-5
        MOVX    @DPTR,A
//  699 
//  700      HalUARTWrite(0,data,14+msg.body.len);
        ; Setup parameters for call to function HalUARTWrite
        MOV     A,R2
        ADD     A,#0xe
        MOV     R4,A
        CLR     A
        ADDC    A,#0x0
        MOV     R5,A
        MOV     DPL,?XSP + 0
        MOV     DPH,?XSP + 1
        MOV     R2,DPL
        MOV     R3,DPH
        MOV     R1,#0x0
        LCALL   ??HalUARTWrite?relay
//  701 }
        MOV     A,#0x32
        SJMP    ??Subroutine43_0
        CFI EndBlock cfiBlock95

        RSEG BANKED_CODE:CODE:NOROOT(0)
?Subroutine25:
        CFI Block cfiCond96 Using cfiCommon0
        CFI NoFunction
        CFI Conditional ??CrossCallReturnLabel_34
        CFI DPL0 Frame(CFA_SP, 4)
        CFI DPH0 Frame(CFA_SP, 5)
        CFI CFA_SP SP+-5
        CFI CFA_XSP16 add(XSP16, 50)
        CFI Block cfiCond97 Using cfiCommon0
        CFI (cfiCond97) NoFunction
        CFI (cfiCond97) Conditional ??CrossCallReturnLabel_35
        CFI (cfiCond97) DPL0 Frame(CFA_SP, 4)
        CFI (cfiCond97) DPH0 Frame(CFA_SP, 5)
        CFI (cfiCond97) CFA_SP SP+-6
        CFI (cfiCond97) CFA_XSP16 add(XSP16, 50)
        CFI Block cfiPicker98 Using cfiCommon1
        CFI (cfiPicker98) NoFunction
        CFI (cfiPicker98) Picker
        MOV     A,DPL
        ADD     A,R0
        MOV     R4,A
        MOV     A,DPH
        ADDC    A,R1
        MOV     R5,A
        MOV     A,R4
        ADD     A,#0xd
        MOV     DPL,A
        MOV     A,R5
        RET
        CFI EndBlock cfiCond96
        CFI EndBlock cfiCond97
        CFI EndBlock cfiPicker98

        RSEG BANKED_CODE:CODE:NOROOT(0)
?Subroutine19:
        CFI Block cfiCond99 Using cfiCommon0
        CFI NoFunction
        CFI Conditional ??CrossCallReturnLabel_69
        CFI DPL0 Frame(CFA_SP, 4)
        CFI DPH0 Frame(CFA_SP, 5)
        CFI CFA_SP SP+-5
        CFI CFA_XSP16 add(XSP16, 50)
        CFI Block cfiCond100 Using cfiCommon0
        CFI (cfiCond100) NoFunction
        CFI (cfiCond100) Conditional ??CrossCallReturnLabel_70
        CFI (cfiCond100) DPL0 Frame(CFA_SP, 4)
        CFI (cfiCond100) DPH0 Frame(CFA_SP, 5)
        CFI (cfiCond100) CFA_SP SP+-5
        CFI (cfiCond100) CFA_XSP16 add(XSP16, 50)
        CFI Block cfiCond101 Using cfiCommon0
        CFI (cfiCond101) NoFunction
        CFI (cfiCond101) Conditional ??CrossCallReturnLabel_71
        CFI (cfiCond101) R6 load(1, XDATA, add(CFA_XSP16, literal(-10)))
        CFI (cfiCond101) VB load(1, XDATA, add(CFA_XSP16, literal(-9)))
        CFI (cfiCond101) V0 load(1, XDATA, add(CFA_XSP16, literal(-8)))
        CFI (cfiCond101) V1 load(1, XDATA, add(CFA_XSP16, literal(-7)))
        CFI (cfiCond101) R7 load(1, XDATA, add(CFA_XSP16, literal(-6)))
        CFI (cfiCond101) ?RET_LOW load(1, XDATA, add(CFA_XSP16, literal(-5)))
        CFI (cfiCond101) ?RET_HIGH load(1, XDATA, add(CFA_XSP16, literal(-4)))
        CFI (cfiCond101) ?BRET_EXT load(1, XDATA, add(CFA_XSP16, literal(-3)))
        CFI (cfiCond101) DPL0 load(1, XDATA, add(CFA_XSP16, literal(-2)))
        CFI (cfiCond101) DPH0 load(1, XDATA, add(CFA_XSP16, literal(-1)))
        CFI (cfiCond101) CFA_SP SP+0
        CFI (cfiCond101) CFA_XSP16 add(XSP16, 31)
        CFI Block cfiCond102 Using cfiCommon0
        CFI (cfiCond102) NoFunction
        CFI (cfiCond102) Conditional ??CrossCallReturnLabel_72
        CFI (cfiCond102) R6 load(1, XDATA, add(CFA_XSP16, literal(-16)))
        CFI (cfiCond102) VB load(1, XDATA, add(CFA_XSP16, literal(-15)))
        CFI (cfiCond102) V0 load(1, XDATA, add(CFA_XSP16, literal(-14)))
        CFI (cfiCond102) V1 load(1, XDATA, add(CFA_XSP16, literal(-13)))
        CFI (cfiCond102) V2 load(1, XDATA, add(CFA_XSP16, literal(-12)))
        CFI (cfiCond102) V3 load(1, XDATA, add(CFA_XSP16, literal(-11)))
        CFI (cfiCond102) V4 load(1, XDATA, add(CFA_XSP16, literal(-10)))
        CFI (cfiCond102) V5 load(1, XDATA, add(CFA_XSP16, literal(-9)))
        CFI (cfiCond102) V6 load(1, XDATA, add(CFA_XSP16, literal(-8)))
        CFI (cfiCond102) V7 load(1, XDATA, add(CFA_XSP16, literal(-7)))
        CFI (cfiCond102) R7 load(1, XDATA, add(CFA_XSP16, literal(-6)))
        CFI (cfiCond102) ?RET_LOW load(1, XDATA, add(CFA_XSP16, literal(-5)))
        CFI (cfiCond102) ?RET_HIGH load(1, XDATA, add(CFA_XSP16, literal(-4)))
        CFI (cfiCond102) ?BRET_EXT load(1, XDATA, add(CFA_XSP16, literal(-3)))
        CFI (cfiCond102) DPL0 load(1, XDATA, add(CFA_XSP16, literal(-2)))
        CFI (cfiCond102) DPH0 load(1, XDATA, add(CFA_XSP16, literal(-1)))
        CFI (cfiCond102) CFA_SP SP+0
        CFI (cfiCond102) CFA_XSP16 add(XSP16, 157)
        CFI Block cfiCond103 Using cfiCommon0
        CFI (cfiCond103) NoFunction
        CFI (cfiCond103) Conditional ??CrossCallReturnLabel_73
        CFI (cfiCond103) R6 load(1, XDATA, add(CFA_XSP16, literal(-16)))
        CFI (cfiCond103) VB load(1, XDATA, add(CFA_XSP16, literal(-15)))
        CFI (cfiCond103) V0 load(1, XDATA, add(CFA_XSP16, literal(-14)))
        CFI (cfiCond103) V1 load(1, XDATA, add(CFA_XSP16, literal(-13)))
        CFI (cfiCond103) V2 load(1, XDATA, add(CFA_XSP16, literal(-12)))
        CFI (cfiCond103) V3 load(1, XDATA, add(CFA_XSP16, literal(-11)))
        CFI (cfiCond103) V4 load(1, XDATA, add(CFA_XSP16, literal(-10)))
        CFI (cfiCond103) V5 load(1, XDATA, add(CFA_XSP16, literal(-9)))
        CFI (cfiCond103) V6 load(1, XDATA, add(CFA_XSP16, literal(-8)))
        CFI (cfiCond103) V7 load(1, XDATA, add(CFA_XSP16, literal(-7)))
        CFI (cfiCond103) R7 load(1, XDATA, add(CFA_XSP16, literal(-6)))
        CFI (cfiCond103) ?RET_LOW load(1, XDATA, add(CFA_XSP16, literal(-5)))
        CFI (cfiCond103) ?RET_HIGH load(1, XDATA, add(CFA_XSP16, literal(-4)))
        CFI (cfiCond103) ?BRET_EXT load(1, XDATA, add(CFA_XSP16, literal(-3)))
        CFI (cfiCond103) DPL0 load(1, XDATA, add(CFA_XSP16, literal(-2)))
        CFI (cfiCond103) DPH0 load(1, XDATA, add(CFA_XSP16, literal(-1)))
        CFI (cfiCond103) CFA_SP SP+0
        CFI (cfiCond103) CFA_XSP16 add(XSP16, 157)
        CFI Block cfiPicker104 Using cfiCommon1
        CFI (cfiPicker104) NoFunction
        CFI (cfiPicker104) Picker
        MOV     A,R1
        CFI EndBlock cfiCond99
        CFI EndBlock cfiCond100
        CFI EndBlock cfiCond101
        CFI EndBlock cfiCond102
        CFI EndBlock cfiCond103
        CFI EndBlock cfiPicker104
        REQUIRE ??Subroutine41_0
        ; // Fall through to label ??Subroutine41_0

        RSEG BANKED_CODE:CODE:NOROOT(0)
??Subroutine41_0:
        CFI Block cfiCond105 Using cfiCommon0
        CFI NoFunction
        CFI Conditional ??CrossCallReturnLabel_67
        CFI R6 load(1, XDATA, add(CFA_XSP16, literal(-16)))
        CFI VB load(1, XDATA, add(CFA_XSP16, literal(-15)))
        CFI V0 load(1, XDATA, add(CFA_XSP16, literal(-14)))
        CFI V1 load(1, XDATA, add(CFA_XSP16, literal(-13)))
        CFI V2 load(1, XDATA, add(CFA_XSP16, literal(-12)))
        CFI V3 load(1, XDATA, add(CFA_XSP16, literal(-11)))
        CFI V4 load(1, XDATA, add(CFA_XSP16, literal(-10)))
        CFI V5 load(1, XDATA, add(CFA_XSP16, literal(-9)))
        CFI V6 load(1, XDATA, add(CFA_XSP16, literal(-8)))
        CFI V7 load(1, XDATA, add(CFA_XSP16, literal(-7)))
        CFI R7 load(1, XDATA, add(CFA_XSP16, literal(-6)))
        CFI ?RET_LOW load(1, XDATA, add(CFA_XSP16, literal(-5)))
        CFI ?RET_HIGH load(1, XDATA, add(CFA_XSP16, literal(-4)))
        CFI ?BRET_EXT load(1, XDATA, add(CFA_XSP16, literal(-3)))
        CFI DPL0 load(1, XDATA, add(CFA_XSP16, literal(-2)))
        CFI DPH0 load(1, XDATA, add(CFA_XSP16, literal(-1)))
        CFI CFA_SP SP+0
        CFI CFA_XSP16 add(XSP16, 157)
        CFI Block cfiCond106 Using cfiCommon0
        CFI (cfiCond106) NoFunction
        CFI (cfiCond106) Conditional ??CrossCallReturnLabel_68
        CFI (cfiCond106) R6 load(1, XDATA, add(CFA_XSP16, literal(-16)))
        CFI (cfiCond106) VB load(1, XDATA, add(CFA_XSP16, literal(-15)))
        CFI (cfiCond106) V0 load(1, XDATA, add(CFA_XSP16, literal(-14)))
        CFI (cfiCond106) V1 load(1, XDATA, add(CFA_XSP16, literal(-13)))
        CFI (cfiCond106) V2 load(1, XDATA, add(CFA_XSP16, literal(-12)))
        CFI (cfiCond106) V3 load(1, XDATA, add(CFA_XSP16, literal(-11)))
        CFI (cfiCond106) V4 load(1, XDATA, add(CFA_XSP16, literal(-10)))
        CFI (cfiCond106) V5 load(1, XDATA, add(CFA_XSP16, literal(-9)))
        CFI (cfiCond106) V6 load(1, XDATA, add(CFA_XSP16, literal(-8)))
        CFI (cfiCond106) V7 load(1, XDATA, add(CFA_XSP16, literal(-7)))
        CFI (cfiCond106) R7 load(1, XDATA, add(CFA_XSP16, literal(-6)))
        CFI (cfiCond106) ?RET_LOW load(1, XDATA, add(CFA_XSP16, literal(-5)))
        CFI (cfiCond106) ?RET_HIGH load(1, XDATA, add(CFA_XSP16, literal(-4)))
        CFI (cfiCond106) ?BRET_EXT load(1, XDATA, add(CFA_XSP16, literal(-3)))
        CFI (cfiCond106) DPL0 load(1, XDATA, add(CFA_XSP16, literal(-2)))
        CFI (cfiCond106) DPH0 load(1, XDATA, add(CFA_XSP16, literal(-1)))
        CFI (cfiCond106) CFA_SP SP+0
        CFI (cfiCond106) CFA_XSP16 add(XSP16, 157)
        CFI Block cfiCond107 Using cfiCommon0
        CFI (cfiCond107) NoFunction
        CFI (cfiCond107) Conditional ??CrossCallReturnLabel_69
        CFI (cfiCond107) DPL0 Frame(CFA_SP, 4)
        CFI (cfiCond107) DPH0 Frame(CFA_SP, 5)
        CFI (cfiCond107) CFA_SP SP+-5
        CFI (cfiCond107) CFA_XSP16 add(XSP16, 50)
        CFI Block cfiCond108 Using cfiCommon0
        CFI (cfiCond108) NoFunction
        CFI (cfiCond108) Conditional ??CrossCallReturnLabel_70
        CFI (cfiCond108) DPL0 Frame(CFA_SP, 4)
        CFI (cfiCond108) DPH0 Frame(CFA_SP, 5)
        CFI (cfiCond108) CFA_SP SP+-5
        CFI (cfiCond108) CFA_XSP16 add(XSP16, 50)
        CFI Block cfiCond109 Using cfiCommon0
        CFI (cfiCond109) NoFunction
        CFI (cfiCond109) Conditional ??CrossCallReturnLabel_71
        CFI (cfiCond109) R6 load(1, XDATA, add(CFA_XSP16, literal(-10)))
        CFI (cfiCond109) VB load(1, XDATA, add(CFA_XSP16, literal(-9)))
        CFI (cfiCond109) V0 load(1, XDATA, add(CFA_XSP16, literal(-8)))
        CFI (cfiCond109) V1 load(1, XDATA, add(CFA_XSP16, literal(-7)))
        CFI (cfiCond109) R7 load(1, XDATA, add(CFA_XSP16, literal(-6)))
        CFI (cfiCond109) ?RET_LOW load(1, XDATA, add(CFA_XSP16, literal(-5)))
        CFI (cfiCond109) ?RET_HIGH load(1, XDATA, add(CFA_XSP16, literal(-4)))
        CFI (cfiCond109) ?BRET_EXT load(1, XDATA, add(CFA_XSP16, literal(-3)))
        CFI (cfiCond109) DPL0 load(1, XDATA, add(CFA_XSP16, literal(-2)))
        CFI (cfiCond109) DPH0 load(1, XDATA, add(CFA_XSP16, literal(-1)))
        CFI (cfiCond109) CFA_SP SP+0
        CFI (cfiCond109) CFA_XSP16 add(XSP16, 31)
        CFI Block cfiCond110 Using cfiCommon0
        CFI (cfiCond110) NoFunction
        CFI (cfiCond110) Conditional ??CrossCallReturnLabel_72
        CFI (cfiCond110) R6 load(1, XDATA, add(CFA_XSP16, literal(-16)))
        CFI (cfiCond110) VB load(1, XDATA, add(CFA_XSP16, literal(-15)))
        CFI (cfiCond110) V0 load(1, XDATA, add(CFA_XSP16, literal(-14)))
        CFI (cfiCond110) V1 load(1, XDATA, add(CFA_XSP16, literal(-13)))
        CFI (cfiCond110) V2 load(1, XDATA, add(CFA_XSP16, literal(-12)))
        CFI (cfiCond110) V3 load(1, XDATA, add(CFA_XSP16, literal(-11)))
        CFI (cfiCond110) V4 load(1, XDATA, add(CFA_XSP16, literal(-10)))
        CFI (cfiCond110) V5 load(1, XDATA, add(CFA_XSP16, literal(-9)))
        CFI (cfiCond110) V6 load(1, XDATA, add(CFA_XSP16, literal(-8)))
        CFI (cfiCond110) V7 load(1, XDATA, add(CFA_XSP16, literal(-7)))
        CFI (cfiCond110) R7 load(1, XDATA, add(CFA_XSP16, literal(-6)))
        CFI (cfiCond110) ?RET_LOW load(1, XDATA, add(CFA_XSP16, literal(-5)))
        CFI (cfiCond110) ?RET_HIGH load(1, XDATA, add(CFA_XSP16, literal(-4)))
        CFI (cfiCond110) ?BRET_EXT load(1, XDATA, add(CFA_XSP16, literal(-3)))
        CFI (cfiCond110) DPL0 load(1, XDATA, add(CFA_XSP16, literal(-2)))
        CFI (cfiCond110) DPH0 load(1, XDATA, add(CFA_XSP16, literal(-1)))
        CFI (cfiCond110) CFA_SP SP+0
        CFI (cfiCond110) CFA_XSP16 add(XSP16, 157)
        CFI Block cfiCond111 Using cfiCommon0
        CFI (cfiCond111) NoFunction
        CFI (cfiCond111) Conditional ??CrossCallReturnLabel_73
        CFI (cfiCond111) R6 load(1, XDATA, add(CFA_XSP16, literal(-16)))
        CFI (cfiCond111) VB load(1, XDATA, add(CFA_XSP16, literal(-15)))
        CFI (cfiCond111) V0 load(1, XDATA, add(CFA_XSP16, literal(-14)))
        CFI (cfiCond111) V1 load(1, XDATA, add(CFA_XSP16, literal(-13)))
        CFI (cfiCond111) V2 load(1, XDATA, add(CFA_XSP16, literal(-12)))
        CFI (cfiCond111) V3 load(1, XDATA, add(CFA_XSP16, literal(-11)))
        CFI (cfiCond111) V4 load(1, XDATA, add(CFA_XSP16, literal(-10)))
        CFI (cfiCond111) V5 load(1, XDATA, add(CFA_XSP16, literal(-9)))
        CFI (cfiCond111) V6 load(1, XDATA, add(CFA_XSP16, literal(-8)))
        CFI (cfiCond111) V7 load(1, XDATA, add(CFA_XSP16, literal(-7)))
        CFI (cfiCond111) R7 load(1, XDATA, add(CFA_XSP16, literal(-6)))
        CFI (cfiCond111) ?RET_LOW load(1, XDATA, add(CFA_XSP16, literal(-5)))
        CFI (cfiCond111) ?RET_HIGH load(1, XDATA, add(CFA_XSP16, literal(-4)))
        CFI (cfiCond111) ?BRET_EXT load(1, XDATA, add(CFA_XSP16, literal(-3)))
        CFI (cfiCond111) DPL0 load(1, XDATA, add(CFA_XSP16, literal(-2)))
        CFI (cfiCond111) DPH0 load(1, XDATA, add(CFA_XSP16, literal(-1)))
        CFI (cfiCond111) CFA_SP SP+0
        CFI (cfiCond111) CFA_XSP16 add(XSP16, 157)
        CFI Block cfiPicker112 Using cfiCommon1
        CFI (cfiPicker112) NoFunction
        CFI (cfiPicker112) Picker
        LCALL   ?Subroutine33 & 0xFFFF
??CrossCallReturnLabel_76:
        RET
        CFI EndBlock cfiCond105
        CFI EndBlock cfiCond106
        CFI EndBlock cfiCond107
        CFI EndBlock cfiCond108
        CFI EndBlock cfiCond109
        CFI EndBlock cfiCond110
        CFI EndBlock cfiCond111
        CFI EndBlock cfiPicker112

        RSEG BANKED_CODE:CODE:NOROOT(0)
?Subroutine6:
        CFI Block cfiCond113 Using cfiCommon0
        CFI NoFunction
        CFI Conditional ??CrossCallReturnLabel_77
        CFI DPL0 Frame(CFA_SP, 4)
        CFI DPH0 Frame(CFA_SP, 5)
        CFI CFA_SP SP+-5
        CFI CFA_XSP16 add(XSP16, 50)
        CFI Block cfiCond114 Using cfiCommon0
        CFI (cfiCond114) NoFunction
        CFI (cfiCond114) Conditional ??CrossCallReturnLabel_78
        CFI (cfiCond114) R6 load(1, XDATA, add(CFA_XSP16, literal(-10)))
        CFI (cfiCond114) VB load(1, XDATA, add(CFA_XSP16, literal(-9)))
        CFI (cfiCond114) V0 load(1, XDATA, add(CFA_XSP16, literal(-8)))
        CFI (cfiCond114) V1 load(1, XDATA, add(CFA_XSP16, literal(-7)))
        CFI (cfiCond114) R7 load(1, XDATA, add(CFA_XSP16, literal(-6)))
        CFI (cfiCond114) ?RET_LOW load(1, XDATA, add(CFA_XSP16, literal(-5)))
        CFI (cfiCond114) ?RET_HIGH load(1, XDATA, add(CFA_XSP16, literal(-4)))
        CFI (cfiCond114) ?BRET_EXT load(1, XDATA, add(CFA_XSP16, literal(-3)))
        CFI (cfiCond114) DPL0 load(1, XDATA, add(CFA_XSP16, literal(-2)))
        CFI (cfiCond114) DPH0 load(1, XDATA, add(CFA_XSP16, literal(-1)))
        CFI (cfiCond114) CFA_SP SP+0
        CFI (cfiCond114) CFA_XSP16 add(XSP16, 31)
        CFI Block cfiPicker115 Using cfiCommon1
        CFI (cfiPicker115) NoFunction
        CFI (cfiPicker115) Picker
        MOVX    @DPTR,A
        CFI EndBlock cfiCond113
        CFI EndBlock cfiCond114
        CFI EndBlock cfiPicker115
        REQUIRE ??Subroutine42_0
        ; // Fall through to label ??Subroutine42_0

        RSEG BANKED_CODE:CODE:NOROOT(0)
??Subroutine42_0:
        CFI Block cfiCond116 Using cfiCommon0
        CFI NoFunction
        CFI Conditional ??CrossCallReturnLabel_79
        CFI Block cfiCond117 Using cfiCommon0
        CFI (cfiCond117) NoFunction
        CFI (cfiCond117) Conditional ??CrossCallReturnLabel_77
        CFI (cfiCond117) DPL0 Frame(CFA_SP, 4)
        CFI (cfiCond117) DPH0 Frame(CFA_SP, 5)
        CFI (cfiCond117) CFA_SP SP+-5
        CFI (cfiCond117) CFA_XSP16 add(XSP16, 50)
        CFI Block cfiCond118 Using cfiCommon0
        CFI (cfiCond118) NoFunction
        CFI (cfiCond118) Conditional ??CrossCallReturnLabel_78
        CFI (cfiCond118) R6 load(1, XDATA, add(CFA_XSP16, literal(-10)))
        CFI (cfiCond118) VB load(1, XDATA, add(CFA_XSP16, literal(-9)))
        CFI (cfiCond118) V0 load(1, XDATA, add(CFA_XSP16, literal(-8)))
        CFI (cfiCond118) V1 load(1, XDATA, add(CFA_XSP16, literal(-7)))
        CFI (cfiCond118) R7 load(1, XDATA, add(CFA_XSP16, literal(-6)))
        CFI (cfiCond118) ?RET_LOW load(1, XDATA, add(CFA_XSP16, literal(-5)))
        CFI (cfiCond118) ?RET_HIGH load(1, XDATA, add(CFA_XSP16, literal(-4)))
        CFI (cfiCond118) ?BRET_EXT load(1, XDATA, add(CFA_XSP16, literal(-3)))
        CFI (cfiCond118) DPL0 load(1, XDATA, add(CFA_XSP16, literal(-2)))
        CFI (cfiCond118) DPH0 load(1, XDATA, add(CFA_XSP16, literal(-1)))
        CFI (cfiCond118) CFA_SP SP+0
        CFI (cfiCond118) CFA_XSP16 add(XSP16, 31)
        CFI Block cfiPicker119 Using cfiCommon1
        CFI (cfiPicker119) NoFunction
        CFI (cfiPicker119) Picker
        MOV     A,R0
        ADD     A,#0x1
        INC     R0
        MOV     A,R1
        ADDC    A,#0x0
        MOV     R1,A
        RET
        CFI EndBlock cfiCond116
        CFI EndBlock cfiCond117
        CFI EndBlock cfiCond118
        CFI EndBlock cfiPicker119

        RSEG BANKED_CODE:CODE:NOROOT(0)
?Subroutine0:
        CFI Block cfiBlock120 Using cfiCommon0
        CFI NoFunction
        CFI CFA_SP SP+-5
        CFI CFA_XSP16 add(XSP16, 25)
        CFI DPL0 Frame(CFA_SP, 4)
        CFI DPH0 Frame(CFA_SP, 5)
        MOV     A,#0x17
        LCALL   ?XSTACK_DISP0_8
        MOV     A,#0x11
        LCALL   ?Subroutine12 & 0xFFFF
??CrossCallReturnLabel_11:
        MOV     A,#0x19
        LCALL   ?PUSH_XSTACK8_X
        CFI CFA_XSP16 add(XSP16, 50)
        LCALL   ??SHCoordSendUartMsg?relay
        MOV     A,#0x19
        LCALL   ?DEALLOC_XSTACK8
        CFI CFA_XSP16 add(XSP16, 25)
        MOV     A,#0x19
        CFI EndBlock cfiBlock120
        REQUIRE ??Subroutine43_0
        ; // Fall through to label ??Subroutine43_0

        RSEG BANKED_CODE:CODE:NOROOT(0)
??Subroutine43_0:
        CFI Block cfiBlock121 Using cfiCommon0
        CFI NoFunction
        CFI CFA_SP SP+-5
        CFI CFA_XSP16 add(XSP16, 50)
        CFI DPL0 Frame(CFA_SP, 4)
        CFI DPH0 Frame(CFA_SP, 5)
        CFI Invalid
        LCALL   ?DEALLOC_XSTACK8
        CFI EndBlock cfiBlock121
        REQUIRE ??Subroutine44_0
        ; // Fall through to label ??Subroutine44_0

        RSEG BANKED_CODE:CODE:NOROOT(0)
??Subroutine44_0:
        CFI Block cfiBlock122 Using cfiCommon0
        CFI NoFunction
        CFI CFA_SP SP+-5
        CFI DPL0 Frame(CFA_SP, 4)
        CFI DPH0 Frame(CFA_SP, 5)
        POP     DPH
        CFI CFA_SP SP+-4
        CFI DPH0 SameValue
        POP     DPL
        CFI CFA_SP SP+-3
        CFI DPL0 SameValue
        LJMP    ?BRET
        CFI EndBlock cfiBlock122
//  702 

        RSEG BANKED_CODE:CODE:NOROOT(0)
//  703 void SHCoordReveiceUartMsg(uint8 *receiveMsg,uint16 len)
SHCoordReveiceUartMsg:
        CFI Block cfiBlock123 Using cfiCommon0
        CFI Function SHCoordReveiceUartMsg
        CODE
//  704 {
        FUNCALL SHCoordReveiceUartMsg, AF_DataRequest
        LOCFRAME ISTACK, 0, STACK
        LOCFRAME PSTACK, 0, STACK
        LOCFRAME XSTACK, 40, STACK
        LOCFRAME IOVERLAY, 0, STATIC
        LOCFRAME DOVERLAY, 0, STATIC
        ARGFRAME ISTACK, 0, STACK
        ARGFRAME PSTACK, 0, STACK
        ARGFRAME XSTACK, 40, STACK
        ARGFRAME IOVERLAY, 0, STATIC
        ARGFRAME DOVERLAY, 0, STATIC
        MOV     A,#-0xa
        LCALL   ?BANKED_ENTER_XDATA
        CFI DPH0 load(1, XDATA, add(CFA_XSP16, literal(-1)))
        CFI DPL0 load(1, XDATA, add(CFA_XSP16, literal(-2)))
        CFI ?BRET_EXT load(1, XDATA, add(CFA_XSP16, literal(-3)))
        CFI ?RET_HIGH load(1, XDATA, add(CFA_XSP16, literal(-4)))
        CFI ?RET_LOW load(1, XDATA, add(CFA_XSP16, literal(-5)))
        CFI R7 load(1, XDATA, add(CFA_XSP16, literal(-6)))
        CFI V1 load(1, XDATA, add(CFA_XSP16, literal(-7)))
        CFI V0 load(1, XDATA, add(CFA_XSP16, literal(-8)))
        CFI VB load(1, XDATA, add(CFA_XSP16, literal(-9)))
        CFI R6 load(1, XDATA, add(CFA_XSP16, literal(-10)))
        CFI CFA_SP SP+0
        CFI CFA_XSP16 add(XSP16, 10)
        ; Saved register size: 10
        ; Auto size: 21
        MOV     A,#-0x15
        LCALL   ?ALLOC_XSTACK8
        CFI CFA_XSP16 add(XSP16, 31)
//  705 	uartReceiveMsg msgData;
//  706 	
//  707 	msgData.header = receiveMsg[0];
        MOV     DPL,R2
        MOV     DPH,R3
        MOVX    A,@DPTR
        PUSH    A
        CFI CFA_SP SP+-1
        MOV     A,#0x4
        LCALL   ?XSTACK_DISP0_8
        POP     A
        CFI CFA_SP SP+0
        MOVX    @DPTR,A
//  708 	msgData.tailer= receiveMsg[len-1];
        MOV     A,R2
        ADD     A,R4
        MOV     R0,A
        MOV     A,R3
        ADDC    A,R5
        MOV     R1,A
        MOV     A,R0
        ADD     A,#-0x1
        MOV     DPL,A
        MOV     A,R1
        ADDC    A,#-0x1
        MOV     DPH,A
        MOVX    A,@DPTR
        MOV     R0,A
        MOV     A,#0x13
        LCALL   ?XSTACK_DISP0_8
        MOV     A,R0
        LCALL   ?Subroutine14 & 0xFFFF
//  709 	uint16 shortAdr[2]; 
//  710 	shortAdr[0] = receiveMsg[1];
??CrossCallReturnLabel_13:
        MOVX    A,@DPTR
        MOV     DPL,?XSP + 0
        MOV     DPH,?XSP + 1
        LCALL   ?Subroutine14 & 0xFFFF
//  711 	shortAdr[1] = receiveMsg[2];
??CrossCallReturnLabel_14:
        INC     DPTR
        MOVX    A,@DPTR
        MOV     R4,A
        MOV     A,#0x2
        LCALL   ?XSTACK_DISP0_8
        MOV     A,R4
        LCALL   ?Subroutine12 & 0xFFFF
//  712 	msgData.shortAddr= (shortAdr[0] << 8) | shortAdr[1];
??CrossCallReturnLabel_12:
        MOVX    A,@DPTR
        MOV     R1,A
        MOV     A,R4
        MOV     R0,A
        MOV     A,#0x5
        LCALL   ?XSTACK_DISP0_8
        MOV     A,R0
        MOVX    @DPTR,A
        INC     DPTR
        MOV     A,R1
        LCALL   ?Subroutine15 & 0xFFFF
//  713 	msgData.body.msgType = receiveMsg[3];
??CrossCallReturnLabel_15:
        MOVX    A,@DPTR
        PUSH    A
        CFI CFA_SP SP+-1
        MOV     A,#0x7
        LCALL   ?XSTACK_DISP0_8
        POP     A
        CFI CFA_SP SP+0
        LCALL   ?Subroutine15 & 0xFFFF
//  714 	msgData.body.len = receiveMsg[4];
??CrossCallReturnLabel_16:
        INC     DPTR
        MOVX    A,@DPTR
        PUSH    A
        CFI CFA_SP SP+-1
        MOV     A,#0x8
        LCALL   ?XSTACK_DISP0_8
        POP     A
        CFI CFA_SP SP+0
        MOVX    @DPTR,A
//  715 	for(int i = 0;i<msgData.body.len;i++)
        MOV     R0,#0x0
        MOV     R1,#0x0
        SJMP    ??CrossCallReturnLabel_78
//  716 	{
//  717 		msgData.body.data[i] = receiveMsg[5+i];
??SHCoordReveiceUartMsg_0:
        MOV     A,R2
        ADD     A,R0
        MOV     DPL,A
        MOV     A,R3
        ADDC    A,R1
        MOV     DPH,A
        INC     DPTR
        INC     DPTR
        INC     DPTR
        INC     DPTR
        INC     DPTR
        MOVX    A,@DPTR
        PUSH    A
        CFI CFA_SP SP+-1
        MOV     A,#0x4
        LCALL   ?XSTACK_DISP0_8
        LCALL   ?Subroutine21 & 0xFFFF
//  718 	}
??CrossCallReturnLabel_25:
        INC     DPTR
        INC     DPTR
        POP     A
        CFI CFA_SP SP+0
        LCALL   ?Subroutine6 & 0xFFFF
??CrossCallReturnLabel_78:
        MOV     A,#0x8
        LCALL   ?XSTACK_DISP0_8
        MOVX    A,@DPTR
        MOV     R4,A
        MOV     ?V0 + 0,R4
        CLR     C
        MOV     A,R0
        SUBB    A,?V0 + 0
        LCALL   ?Subroutine19 & 0xFFFF
??CrossCallReturnLabel_71:
        JC      ??SHCoordReveiceUartMsg_0
//  719 
//  720 	if(msgData.body.msgType == SMARTHOME_AIRCONDITIONMSG)
        MOV     A,#0x7
        LCALL   ?XSTACK_DISP0_8
        MOVX    A,@DPTR
        XRL     A,#0x2
        JNZ     ??SHCoordReveiceUartMsg_1
//  721 	{
//  722 	  	SmartHomeApp_AirContidion_DstAddr.addrMode = (afAddrMode_t)Addr16Bit;//广播
        MOV     DPTR,#SmartHomeApp_AirContidion_DstAddr + 8
        LCALL   ?Subroutine13 & 0xFFFF
//  723 	  	SmartHomeApp_AirContidion_DstAddr.endPoint = SMARTHOMEAPP_ENDPOINT;
//  724 	 	SmartHomeApp_AirContidion_DstAddr.addr.shortAddr = msgData.shortAddr;
??CrossCallReturnLabel_81:
        MOV     A,#0x5
        LCALL   ?XSTACK_DISP0_8
        LCALL   ?Subroutine31 & 0xFFFF
??CrossCallReturnLabel_45:
        MOV     DPTR,#SmartHomeApp_AirContidion_DstAddr
        MOV     A,R0
        MOVX    @DPTR,A
        INC     DPTR
        MOV     A,R1
        MOVX    @DPTR,A
//  725 
//  726 	    if ( AF_DataRequest( &SmartHomeApp_AirContidion_DstAddr, &SmartHomeApp_epDesc,
//  727 	                       SMARTHOME_AIRCONDITIONMSG,
//  728 	                       msgData.body.len ,
//  729 	                       msgData.body.data,
//  730 	                       &SmartHomeApp_TransID,
//  731 	                       AF_DISCV_ROUTE,
//  732 	                       AF_DEFAULT_RADIUS ) == afStatus_SUCCESS )
        ; Setup parameters for call to function AF_DataRequest
        MOV     ?V0 + 0,#0x1e
        MOV     R0,#?V0 + 0
        LCALL   ?PUSH_XSTACK_I_ONE
        CFI CFA_XSP16 add(XSP16, 32)
        MOV     ?V0 + 0,#SmartHomeApp_TransID & 0xff
        MOV     ?V0 + 1,#(SmartHomeApp_TransID >> 8) & 0xff
        MOV     R0,#?V0 + 0
        LCALL   ?PUSH_XSTACK_I_TWO
        CFI CFA_XSP16 add(XSP16, 34)
        MOV     A,#0xc
        LCALL   ?XSTACK_DISP0_8
        MOV     ?V0 + 0,DPL
        MOV     ?V0 + 1,DPH
        MOV     R0,#?V0 + 0
        LCALL   ?PUSH_XSTACK_I_TWO
        CFI CFA_XSP16 add(XSP16, 36)
        MOV     ?V0 + 0,R4
        MOV     ?V0 + 1,#0x0
        MOV     R0,#?V0 + 0
        LCALL   ?PUSH_XSTACK_I_TWO
        CFI CFA_XSP16 add(XSP16, 38)
        MOV     ?V0 + 0,#0x2
        MOV     R0,#?V0 + 0
        LCALL   ?PUSH_XSTACK_I_TWO
        CFI CFA_XSP16 add(XSP16, 40)
        MOV     R1,#0x20
        MOV     R4,#SmartHomeApp_epDesc & 0xff
        MOV     R5,#(SmartHomeApp_epDesc >> 8) & 0xff
        MOV     R2,#SmartHomeApp_AirContidion_DstAddr & 0xff
        MOV     R3,#(SmartHomeApp_AirContidion_DstAddr >> 8) & 0xff
        LCALL   ??Subroutine39_0 & 0xFFFF
//  733 	  {
//  734 	  }
//  735 	  else
//  736 	  {
//  737 	    // Error occurred in request to send.
//  738 	  }
//  739 	}
??CrossCallReturnLabel_61:
        LCALL   ?DEALLOC_XSTACK8
        CFI CFA_XSP16 add(XSP16, 31)
//  740 }
??SHCoordReveiceUartMsg_1:
        MOV     A,#0x15
        LJMP    ?Subroutine3 & 0xFFFF
        CFI EndBlock cfiBlock123

        RSEG BANKED_CODE:CODE:NOROOT(0)
?Subroutine21:
        CFI Block cfiCond124 Using cfiCommon0
        CFI NoFunction
        CFI Conditional ??CrossCallReturnLabel_23
        CFI DPL0 Frame(CFA_SP, 4)
        CFI DPH0 Frame(CFA_SP, 5)
        CFI CFA_SP SP+-5
        CFI CFA_XSP16 add(XSP16, 50)
        CFI Block cfiCond125 Using cfiCommon0
        CFI (cfiCond125) NoFunction
        CFI (cfiCond125) Conditional ??CrossCallReturnLabel_24
        CFI (cfiCond125) DPL0 Frame(CFA_SP, 4)
        CFI (cfiCond125) DPH0 Frame(CFA_SP, 5)
        CFI (cfiCond125) CFA_SP SP+-6
        CFI (cfiCond125) CFA_XSP16 add(XSP16, 50)
        CFI Block cfiCond126 Using cfiCommon0
        CFI (cfiCond126) NoFunction
        CFI (cfiCond126) Conditional ??CrossCallReturnLabel_25
        CFI (cfiCond126) R6 load(1, XDATA, add(CFA_XSP16, literal(-10)))
        CFI (cfiCond126) VB load(1, XDATA, add(CFA_XSP16, literal(-9)))
        CFI (cfiCond126) V0 load(1, XDATA, add(CFA_XSP16, literal(-8)))
        CFI (cfiCond126) V1 load(1, XDATA, add(CFA_XSP16, literal(-7)))
        CFI (cfiCond126) R7 load(1, XDATA, add(CFA_XSP16, literal(-6)))
        CFI (cfiCond126) ?RET_LOW load(1, XDATA, add(CFA_XSP16, literal(-5)))
        CFI (cfiCond126) ?RET_HIGH load(1, XDATA, add(CFA_XSP16, literal(-4)))
        CFI (cfiCond126) ?BRET_EXT load(1, XDATA, add(CFA_XSP16, literal(-3)))
        CFI (cfiCond126) DPL0 load(1, XDATA, add(CFA_XSP16, literal(-2)))
        CFI (cfiCond126) DPH0 load(1, XDATA, add(CFA_XSP16, literal(-1)))
        CFI (cfiCond126) CFA_SP SP+-1
        CFI (cfiCond126) CFA_XSP16 add(XSP16, 31)
        CFI Block cfiPicker127 Using cfiCommon1
        CFI (cfiPicker127) NoFunction
        CFI (cfiPicker127) Picker
        LCALL   ?Subroutine35 & 0xFFFF
??CrossCallReturnLabel_53:
        INC     DPTR
        INC     DPTR
        INC     DPTR
        RET
        CFI EndBlock cfiCond124
        CFI EndBlock cfiCond125
        CFI EndBlock cfiCond126
        CFI EndBlock cfiPicker127

        RSEG BANKED_CODE:CODE:NOROOT(0)
?Subroutine15:
        CFI Block cfiCond128 Using cfiCommon0
        CFI NoFunction
        CFI Conditional ??CrossCallReturnLabel_15
        CFI R6 load(1, XDATA, add(CFA_XSP16, literal(-10)))
        CFI VB load(1, XDATA, add(CFA_XSP16, literal(-9)))
        CFI V0 load(1, XDATA, add(CFA_XSP16, literal(-8)))
        CFI V1 load(1, XDATA, add(CFA_XSP16, literal(-7)))
        CFI R7 load(1, XDATA, add(CFA_XSP16, literal(-6)))
        CFI ?RET_LOW load(1, XDATA, add(CFA_XSP16, literal(-5)))
        CFI ?RET_HIGH load(1, XDATA, add(CFA_XSP16, literal(-4)))
        CFI ?BRET_EXT load(1, XDATA, add(CFA_XSP16, literal(-3)))
        CFI DPL0 load(1, XDATA, add(CFA_XSP16, literal(-2)))
        CFI DPH0 load(1, XDATA, add(CFA_XSP16, literal(-1)))
        CFI CFA_SP SP+0
        CFI CFA_XSP16 add(XSP16, 31)
        CFI Block cfiCond129 Using cfiCommon0
        CFI (cfiCond129) NoFunction
        CFI (cfiCond129) Conditional ??CrossCallReturnLabel_16
        CFI (cfiCond129) R6 load(1, XDATA, add(CFA_XSP16, literal(-10)))
        CFI (cfiCond129) VB load(1, XDATA, add(CFA_XSP16, literal(-9)))
        CFI (cfiCond129) V0 load(1, XDATA, add(CFA_XSP16, literal(-8)))
        CFI (cfiCond129) V1 load(1, XDATA, add(CFA_XSP16, literal(-7)))
        CFI (cfiCond129) R7 load(1, XDATA, add(CFA_XSP16, literal(-6)))
        CFI (cfiCond129) ?RET_LOW load(1, XDATA, add(CFA_XSP16, literal(-5)))
        CFI (cfiCond129) ?RET_HIGH load(1, XDATA, add(CFA_XSP16, literal(-4)))
        CFI (cfiCond129) ?BRET_EXT load(1, XDATA, add(CFA_XSP16, literal(-3)))
        CFI (cfiCond129) DPL0 load(1, XDATA, add(CFA_XSP16, literal(-2)))
        CFI (cfiCond129) DPH0 load(1, XDATA, add(CFA_XSP16, literal(-1)))
        CFI (cfiCond129) CFA_SP SP+0
        CFI (cfiCond129) CFA_XSP16 add(XSP16, 31)
        CFI Block cfiPicker130 Using cfiCommon1
        CFI (cfiPicker130) NoFunction
        CFI (cfiPicker130) Picker
        LCALL   ?Subroutine30 & 0xFFFF
??CrossCallReturnLabel_43:
        RET
        CFI EndBlock cfiCond128
        CFI EndBlock cfiCond129
        CFI EndBlock cfiPicker130

        RSEG BANKED_CODE:CODE:NOROOT(0)
?Subroutine30:
        CFI Block cfiCond131 Using cfiCommon0
        CFI NoFunction
        CFI Conditional ??CrossCallReturnLabel_42, ??CrossCallReturnLabel_9
        CFI DPL0 Frame(CFA_SP, 4)
        CFI DPH0 Frame(CFA_SP, 5)
        CFI CFA_SP SP+-5
        CFI CFA_XSP16 add(XSP16, 25)
        CFI Block cfiCond132 Using cfiCommon0
        CFI (cfiCond132) NoFunction
        CFI (cfiCond132) Conditional ??CrossCallReturnLabel_42, ??CrossCallReturnLabel_10
        CFI (cfiCond132) DPL0 Frame(CFA_SP, 4)
        CFI (cfiCond132) DPH0 Frame(CFA_SP, 5)
        CFI (cfiCond132) CFA_SP SP+-5
        CFI (cfiCond132) CFA_XSP16 add(XSP16, 25)
        CFI Block cfiCond133 Using cfiCommon0
        CFI (cfiCond133) NoFunction
        CFI (cfiCond133) Conditional ??CrossCallReturnLabel_43, ??CrossCallReturnLabel_15
        CFI (cfiCond133) R6 load(1, XDATA, add(CFA_XSP16, literal(-10)))
        CFI (cfiCond133) VB load(1, XDATA, add(CFA_XSP16, literal(-9)))
        CFI (cfiCond133) V0 load(1, XDATA, add(CFA_XSP16, literal(-8)))
        CFI (cfiCond133) V1 load(1, XDATA, add(CFA_XSP16, literal(-7)))
        CFI (cfiCond133) R7 load(1, XDATA, add(CFA_XSP16, literal(-6)))
        CFI (cfiCond133) ?RET_LOW load(1, XDATA, add(CFA_XSP16, literal(-5)))
        CFI (cfiCond133) ?RET_HIGH load(1, XDATA, add(CFA_XSP16, literal(-4)))
        CFI (cfiCond133) ?BRET_EXT load(1, XDATA, add(CFA_XSP16, literal(-3)))
        CFI (cfiCond133) DPL0 load(1, XDATA, add(CFA_XSP16, literal(-2)))
        CFI (cfiCond133) DPH0 load(1, XDATA, add(CFA_XSP16, literal(-1)))
        CFI (cfiCond133) CFA_SP SP+0
        CFI (cfiCond133) CFA_XSP16 add(XSP16, 31)
        CFI Block cfiCond134 Using cfiCommon0
        CFI (cfiCond134) NoFunction
        CFI (cfiCond134) Conditional ??CrossCallReturnLabel_43, ??CrossCallReturnLabel_16
        CFI (cfiCond134) R6 load(1, XDATA, add(CFA_XSP16, literal(-10)))
        CFI (cfiCond134) VB load(1, XDATA, add(CFA_XSP16, literal(-9)))
        CFI (cfiCond134) V0 load(1, XDATA, add(CFA_XSP16, literal(-8)))
        CFI (cfiCond134) V1 load(1, XDATA, add(CFA_XSP16, literal(-7)))
        CFI (cfiCond134) R7 load(1, XDATA, add(CFA_XSP16, literal(-6)))
        CFI (cfiCond134) ?RET_LOW load(1, XDATA, add(CFA_XSP16, literal(-5)))
        CFI (cfiCond134) ?RET_HIGH load(1, XDATA, add(CFA_XSP16, literal(-4)))
        CFI (cfiCond134) ?BRET_EXT load(1, XDATA, add(CFA_XSP16, literal(-3)))
        CFI (cfiCond134) DPL0 load(1, XDATA, add(CFA_XSP16, literal(-2)))
        CFI (cfiCond134) DPH0 load(1, XDATA, add(CFA_XSP16, literal(-1)))
        CFI (cfiCond134) CFA_SP SP+0
        CFI (cfiCond134) CFA_XSP16 add(XSP16, 31)
        CFI Block cfiPicker135 Using cfiCommon1
        CFI (cfiPicker135) NoFunction
        CFI (cfiPicker135) Picker
        MOVX    @DPTR,A
        MOV     DPL,R2
        MOV     DPH,R3
        INC     DPTR
        INC     DPTR
        INC     DPTR
        RET
        CFI EndBlock cfiCond131
        CFI EndBlock cfiCond132
        CFI EndBlock cfiCond133
        CFI EndBlock cfiCond134
        CFI EndBlock cfiPicker135

        RSEG BANKED_CODE:CODE:NOROOT(0)
?Subroutine14:
        CFI Block cfiCond136 Using cfiCommon0
        CFI NoFunction
        CFI Conditional ??CrossCallReturnLabel_13
        CFI R6 load(1, XDATA, add(CFA_XSP16, literal(-10)))
        CFI VB load(1, XDATA, add(CFA_XSP16, literal(-9)))
        CFI V0 load(1, XDATA, add(CFA_XSP16, literal(-8)))
        CFI V1 load(1, XDATA, add(CFA_XSP16, literal(-7)))
        CFI R7 load(1, XDATA, add(CFA_XSP16, literal(-6)))
        CFI ?RET_LOW load(1, XDATA, add(CFA_XSP16, literal(-5)))
        CFI ?RET_HIGH load(1, XDATA, add(CFA_XSP16, literal(-4)))
        CFI ?BRET_EXT load(1, XDATA, add(CFA_XSP16, literal(-3)))
        CFI DPL0 load(1, XDATA, add(CFA_XSP16, literal(-2)))
        CFI DPH0 load(1, XDATA, add(CFA_XSP16, literal(-1)))
        CFI CFA_SP SP+0
        CFI CFA_XSP16 add(XSP16, 31)
        CFI Block cfiCond137 Using cfiCommon0
        CFI (cfiCond137) NoFunction
        CFI (cfiCond137) Conditional ??CrossCallReturnLabel_14
        CFI (cfiCond137) R6 load(1, XDATA, add(CFA_XSP16, literal(-10)))
        CFI (cfiCond137) VB load(1, XDATA, add(CFA_XSP16, literal(-9)))
        CFI (cfiCond137) V0 load(1, XDATA, add(CFA_XSP16, literal(-8)))
        CFI (cfiCond137) V1 load(1, XDATA, add(CFA_XSP16, literal(-7)))
        CFI (cfiCond137) R7 load(1, XDATA, add(CFA_XSP16, literal(-6)))
        CFI (cfiCond137) ?RET_LOW load(1, XDATA, add(CFA_XSP16, literal(-5)))
        CFI (cfiCond137) ?RET_HIGH load(1, XDATA, add(CFA_XSP16, literal(-4)))
        CFI (cfiCond137) ?BRET_EXT load(1, XDATA, add(CFA_XSP16, literal(-3)))
        CFI (cfiCond137) DPL0 load(1, XDATA, add(CFA_XSP16, literal(-2)))
        CFI (cfiCond137) DPH0 load(1, XDATA, add(CFA_XSP16, literal(-1)))
        CFI (cfiCond137) CFA_SP SP+0
        CFI (cfiCond137) CFA_XSP16 add(XSP16, 31)
        CFI Block cfiPicker138 Using cfiCommon1
        CFI (cfiPicker138) NoFunction
        CFI (cfiPicker138) Picker
        MOVX    @DPTR,A
        INC     DPTR
        CLR     A
        MOVX    @DPTR,A
        MOV     DPL,R2
        MOV     DPH,R3
        INC     DPTR
        RET
        CFI EndBlock cfiCond136
        CFI EndBlock cfiCond137
        CFI EndBlock cfiPicker138

        RSEG BANKED_CODE:CODE:NOROOT(0)
?Subroutine13:
        CFI Block cfiCond139 Using cfiCommon0
        CFI NoFunction
        CFI Conditional ??CrossCallReturnLabel_80
        CFI R6 load(1, XDATA, add(CFA_XSP16, literal(-11)))
        CFI VB load(1, XDATA, add(CFA_XSP16, literal(-10)))
        CFI V0 load(1, XDATA, add(CFA_XSP16, literal(-9)))
        CFI V1 load(1, XDATA, add(CFA_XSP16, literal(-8)))
        CFI V2 load(1, XDATA, add(CFA_XSP16, literal(-7)))
        CFI R7 load(1, XDATA, add(CFA_XSP16, literal(-6)))
        CFI ?RET_LOW load(1, XDATA, add(CFA_XSP16, literal(-5)))
        CFI ?RET_HIGH load(1, XDATA, add(CFA_XSP16, literal(-4)))
        CFI ?BRET_EXT load(1, XDATA, add(CFA_XSP16, literal(-3)))
        CFI DPL0 load(1, XDATA, add(CFA_XSP16, literal(-2)))
        CFI DPH0 load(1, XDATA, add(CFA_XSP16, literal(-1)))
        CFI CFA_SP SP+0
        CFI CFA_XSP16 add(XSP16, 11)
        CFI Block cfiCond140 Using cfiCommon0
        CFI (cfiCond140) NoFunction
        CFI (cfiCond140) Conditional ??CrossCallReturnLabel_81
        CFI (cfiCond140) R6 load(1, XDATA, add(CFA_XSP16, literal(-10)))
        CFI (cfiCond140) VB load(1, XDATA, add(CFA_XSP16, literal(-9)))
        CFI (cfiCond140) V0 load(1, XDATA, add(CFA_XSP16, literal(-8)))
        CFI (cfiCond140) V1 load(1, XDATA, add(CFA_XSP16, literal(-7)))
        CFI (cfiCond140) R7 load(1, XDATA, add(CFA_XSP16, literal(-6)))
        CFI (cfiCond140) ?RET_LOW load(1, XDATA, add(CFA_XSP16, literal(-5)))
        CFI (cfiCond140) ?RET_HIGH load(1, XDATA, add(CFA_XSP16, literal(-4)))
        CFI (cfiCond140) ?BRET_EXT load(1, XDATA, add(CFA_XSP16, literal(-3)))
        CFI (cfiCond140) DPL0 load(1, XDATA, add(CFA_XSP16, literal(-2)))
        CFI (cfiCond140) DPH0 load(1, XDATA, add(CFA_XSP16, literal(-1)))
        CFI (cfiCond140) CFA_SP SP+0
        CFI (cfiCond140) CFA_XSP16 add(XSP16, 31)
        CFI Block cfiPicker141 Using cfiCommon1
        CFI (cfiPicker141) NoFunction
        CFI (cfiPicker141) Picker
        MOV     A,#0x2
        CFI EndBlock cfiCond139
        CFI EndBlock cfiCond140
        CFI EndBlock cfiPicker141
        REQUIRE ??Subroutine45_0
        ; // Fall through to label ??Subroutine45_0

        RSEG BANKED_CODE:CODE:NOROOT(0)
??Subroutine45_0:
        CFI Block cfiCond142 Using cfiCommon0
        CFI NoFunction
        CFI Conditional ??CrossCallReturnLabel_82
        CFI R6 load(1, XDATA, add(CFA_XSP16, literal(-11)))
        CFI VB load(1, XDATA, add(CFA_XSP16, literal(-10)))
        CFI V0 load(1, XDATA, add(CFA_XSP16, literal(-9)))
        CFI V1 load(1, XDATA, add(CFA_XSP16, literal(-8)))
        CFI V2 load(1, XDATA, add(CFA_XSP16, literal(-7)))
        CFI R7 load(1, XDATA, add(CFA_XSP16, literal(-6)))
        CFI ?RET_LOW load(1, XDATA, add(CFA_XSP16, literal(-5)))
        CFI ?RET_HIGH load(1, XDATA, add(CFA_XSP16, literal(-4)))
        CFI ?BRET_EXT load(1, XDATA, add(CFA_XSP16, literal(-3)))
        CFI DPL0 load(1, XDATA, add(CFA_XSP16, literal(-2)))
        CFI DPH0 load(1, XDATA, add(CFA_XSP16, literal(-1)))
        CFI CFA_SP SP+0
        CFI CFA_XSP16 add(XSP16, 11)
        CFI Block cfiCond143 Using cfiCommon0
        CFI (cfiCond143) NoFunction
        CFI (cfiCond143) Conditional ??CrossCallReturnLabel_83
        CFI (cfiCond143) R6 load(1, XDATA, add(CFA_XSP16, literal(-11)))
        CFI (cfiCond143) VB load(1, XDATA, add(CFA_XSP16, literal(-10)))
        CFI (cfiCond143) V0 load(1, XDATA, add(CFA_XSP16, literal(-9)))
        CFI (cfiCond143) V1 load(1, XDATA, add(CFA_XSP16, literal(-8)))
        CFI (cfiCond143) V2 load(1, XDATA, add(CFA_XSP16, literal(-7)))
        CFI (cfiCond143) R7 load(1, XDATA, add(CFA_XSP16, literal(-6)))
        CFI (cfiCond143) ?RET_LOW load(1, XDATA, add(CFA_XSP16, literal(-5)))
        CFI (cfiCond143) ?RET_HIGH load(1, XDATA, add(CFA_XSP16, literal(-4)))
        CFI (cfiCond143) ?BRET_EXT load(1, XDATA, add(CFA_XSP16, literal(-3)))
        CFI (cfiCond143) DPL0 load(1, XDATA, add(CFA_XSP16, literal(-2)))
        CFI (cfiCond143) DPH0 load(1, XDATA, add(CFA_XSP16, literal(-1)))
        CFI (cfiCond143) CFA_SP SP+0
        CFI (cfiCond143) CFA_XSP16 add(XSP16, 11)
        CFI Block cfiCond144 Using cfiCommon0
        CFI (cfiCond144) NoFunction
        CFI (cfiCond144) Conditional ??CrossCallReturnLabel_80
        CFI (cfiCond144) R6 load(1, XDATA, add(CFA_XSP16, literal(-11)))
        CFI (cfiCond144) VB load(1, XDATA, add(CFA_XSP16, literal(-10)))
        CFI (cfiCond144) V0 load(1, XDATA, add(CFA_XSP16, literal(-9)))
        CFI (cfiCond144) V1 load(1, XDATA, add(CFA_XSP16, literal(-8)))
        CFI (cfiCond144) V2 load(1, XDATA, add(CFA_XSP16, literal(-7)))
        CFI (cfiCond144) R7 load(1, XDATA, add(CFA_XSP16, literal(-6)))
        CFI (cfiCond144) ?RET_LOW load(1, XDATA, add(CFA_XSP16, literal(-5)))
        CFI (cfiCond144) ?RET_HIGH load(1, XDATA, add(CFA_XSP16, literal(-4)))
        CFI (cfiCond144) ?BRET_EXT load(1, XDATA, add(CFA_XSP16, literal(-3)))
        CFI (cfiCond144) DPL0 load(1, XDATA, add(CFA_XSP16, literal(-2)))
        CFI (cfiCond144) DPH0 load(1, XDATA, add(CFA_XSP16, literal(-1)))
        CFI (cfiCond144) CFA_SP SP+0
        CFI (cfiCond144) CFA_XSP16 add(XSP16, 11)
        CFI Block cfiCond145 Using cfiCommon0
        CFI (cfiCond145) NoFunction
        CFI (cfiCond145) Conditional ??CrossCallReturnLabel_81
        CFI (cfiCond145) R6 load(1, XDATA, add(CFA_XSP16, literal(-10)))
        CFI (cfiCond145) VB load(1, XDATA, add(CFA_XSP16, literal(-9)))
        CFI (cfiCond145) V0 load(1, XDATA, add(CFA_XSP16, literal(-8)))
        CFI (cfiCond145) V1 load(1, XDATA, add(CFA_XSP16, literal(-7)))
        CFI (cfiCond145) R7 load(1, XDATA, add(CFA_XSP16, literal(-6)))
        CFI (cfiCond145) ?RET_LOW load(1, XDATA, add(CFA_XSP16, literal(-5)))
        CFI (cfiCond145) ?RET_HIGH load(1, XDATA, add(CFA_XSP16, literal(-4)))
        CFI (cfiCond145) ?BRET_EXT load(1, XDATA, add(CFA_XSP16, literal(-3)))
        CFI (cfiCond145) DPL0 load(1, XDATA, add(CFA_XSP16, literal(-2)))
        CFI (cfiCond145) DPH0 load(1, XDATA, add(CFA_XSP16, literal(-1)))
        CFI (cfiCond145) CFA_SP SP+0
        CFI (cfiCond145) CFA_XSP16 add(XSP16, 31)
        CFI Block cfiPicker146 Using cfiCommon1
        CFI (cfiPicker146) NoFunction
        CFI (cfiPicker146) Picker
        MOVX    @DPTR,A
        INC     DPTR
        MOV     A,#0x14
        MOVX    @DPTR,A
        RET
        CFI EndBlock cfiCond142
        CFI EndBlock cfiCond143
        CFI EndBlock cfiCond144
        CFI EndBlock cfiCond145
        CFI EndBlock cfiPicker146

        RSEG BANKED_CODE:CODE:NOROOT(0)
?Subroutine12:
        CFI Block cfiCond147 Using cfiCommon0
        CFI NoFunction
        CFI Conditional ??CrossCallReturnLabel_11
        CFI DPL0 Frame(CFA_SP, 4)
        CFI DPH0 Frame(CFA_SP, 5)
        CFI CFA_SP SP+-5
        CFI CFA_XSP16 add(XSP16, 25)
        CFI Block cfiCond148 Using cfiCommon0
        CFI (cfiCond148) NoFunction
        CFI (cfiCond148) Conditional ??CrossCallReturnLabel_11
        CFI (cfiCond148) DPL0 Frame(CFA_SP, 4)
        CFI (cfiCond148) DPH0 Frame(CFA_SP, 5)
        CFI (cfiCond148) CFA_SP SP+-5
        CFI (cfiCond148) CFA_XSP16 add(XSP16, 25)
        CFI Block cfiCond149 Using cfiCommon0
        CFI (cfiCond149) NoFunction
        CFI (cfiCond149) Conditional ??CrossCallReturnLabel_12
        CFI (cfiCond149) R6 load(1, XDATA, add(CFA_XSP16, literal(-10)))
        CFI (cfiCond149) VB load(1, XDATA, add(CFA_XSP16, literal(-9)))
        CFI (cfiCond149) V0 load(1, XDATA, add(CFA_XSP16, literal(-8)))
        CFI (cfiCond149) V1 load(1, XDATA, add(CFA_XSP16, literal(-7)))
        CFI (cfiCond149) R7 load(1, XDATA, add(CFA_XSP16, literal(-6)))
        CFI (cfiCond149) ?RET_LOW load(1, XDATA, add(CFA_XSP16, literal(-5)))
        CFI (cfiCond149) ?RET_HIGH load(1, XDATA, add(CFA_XSP16, literal(-4)))
        CFI (cfiCond149) ?BRET_EXT load(1, XDATA, add(CFA_XSP16, literal(-3)))
        CFI (cfiCond149) DPL0 load(1, XDATA, add(CFA_XSP16, literal(-2)))
        CFI (cfiCond149) DPH0 load(1, XDATA, add(CFA_XSP16, literal(-1)))
        CFI (cfiCond149) CFA_SP SP+0
        CFI (cfiCond149) CFA_XSP16 add(XSP16, 31)
        CFI Block cfiPicker150 Using cfiCommon1
        CFI (cfiPicker150) NoFunction
        CFI (cfiPicker150) Picker
        MOVX    @DPTR,A
        INC     DPTR
        CLR     A
        MOVX    @DPTR,A
        ; Setup parameters for call to function SHCoordSendUartMsg
        ; Setup parameters for call to function SHCoordSendUartMsg
        MOV     DPL,?XSP + 0
        MOV     DPH,?XSP + 1
        RET
        CFI EndBlock cfiCond147
        CFI EndBlock cfiCond148
        CFI EndBlock cfiCond149
        CFI EndBlock cfiPicker150
//  741 

        RSEG BANKED_CODE:CODE:NOROOT(0)
//  742  void SHEndPointReveiceAirConMsg(afIncomingMSGPacket_t *pkt)
SHEndPointReveiceAirConMsg:
        CFI Block cfiBlock151 Using cfiCommon0
        CFI Function SHEndPointReveiceAirConMsg
        CODE
//  743  {
        FUNCALL SHEndPointReveiceAirConMsg, memset
        LOCFRAME ISTACK, 0, STACK
        LOCFRAME PSTACK, 0, STACK
        LOCFRAME XSTACK, 159, STACK
        LOCFRAME IOVERLAY, 0, STATIC
        LOCFRAME DOVERLAY, 0, STATIC
        ARGFRAME ISTACK, 0, STACK
        ARGFRAME PSTACK, 0, STACK
        ARGFRAME XSTACK, 159, STACK
        ARGFRAME IOVERLAY, 0, STATIC
        ARGFRAME DOVERLAY, 0, STATIC
        FUNCALL SHEndPointReveiceAirConMsg, SHIR_Sending
        LOCFRAME ISTACK, 0, STACK
        LOCFRAME PSTACK, 0, STACK
        LOCFRAME XSTACK, 157, STACK
        LOCFRAME IOVERLAY, 0, STATIC
        LOCFRAME DOVERLAY, 0, STATIC
        ARGFRAME ISTACK, 0, STACK
        ARGFRAME PSTACK, 0, STACK
        ARGFRAME XSTACK, 157, STACK
        ARGFRAME IOVERLAY, 0, STATIC
        ARGFRAME DOVERLAY, 0, STATIC
        MOV     A,#-0x10
        LCALL   ?BANKED_ENTER_XDATA
        CFI DPH0 load(1, XDATA, add(CFA_XSP16, literal(-1)))
        CFI DPL0 load(1, XDATA, add(CFA_XSP16, literal(-2)))
        CFI ?BRET_EXT load(1, XDATA, add(CFA_XSP16, literal(-3)))
        CFI ?RET_HIGH load(1, XDATA, add(CFA_XSP16, literal(-4)))
        CFI ?RET_LOW load(1, XDATA, add(CFA_XSP16, literal(-5)))
        CFI R7 load(1, XDATA, add(CFA_XSP16, literal(-6)))
        CFI V7 load(1, XDATA, add(CFA_XSP16, literal(-7)))
        CFI V6 load(1, XDATA, add(CFA_XSP16, literal(-8)))
        CFI V5 load(1, XDATA, add(CFA_XSP16, literal(-9)))
        CFI V4 load(1, XDATA, add(CFA_XSP16, literal(-10)))
        CFI V3 load(1, XDATA, add(CFA_XSP16, literal(-11)))
        CFI V2 load(1, XDATA, add(CFA_XSP16, literal(-12)))
        CFI V1 load(1, XDATA, add(CFA_XSP16, literal(-13)))
        CFI V0 load(1, XDATA, add(CFA_XSP16, literal(-14)))
        CFI VB load(1, XDATA, add(CFA_XSP16, literal(-15)))
        CFI R6 load(1, XDATA, add(CFA_XSP16, literal(-16)))
        CFI CFA_SP SP+0
        CFI CFA_XSP16 add(XSP16, 16)
        ; Saved register size: 16
        ; Auto size: 141
        MOV     A,#0x73
        LCALL   ?ALLOC_XSTACK8
        CFI CFA_XSP16 add(XSP16, 157)
        MOV     A,R2
        MOV     R6,A
        MOV     A,R3
        MOV     R7,A
//  744  	uint16 lenHex = pkt->cmd.DataLength;
        LCALL   ?Subroutine10 & 0xFFFF
??CrossCallReturnLabel_88:
        MOV     ?V0 + 0,A
        INC     DPTR
        MOVX    A,@DPTR
        MOV     ?V0 + 1,A
//  745 	
//  746  	uint8 binStr[72];
//  747 	memset(binStr,'0',72);
        ; Setup parameters for call to function memset
        MOV     ?V0 + 2,#0x48
        MOV     ?V0 + 3,#0x0
        MOV     R0,#?V0 + 2
        LCALL   ?PUSH_XSTACK_I_TWO
        CFI CFA_XSP16 add(XSP16, 159)
        MOV     R4,#0x30
        MOV     R5,#0x0
        MOV     A,#0x47
        LCALL   ?XSTACK_DISP0_8
        MOV     R2,DPL
        MOV     R3,DPH
        LCALL   ??memset?relay
        MOV     A,#0x2
        LCALL   ?DEALLOC_XSTACK8
        CFI CFA_XSP16 add(XSP16, 157)
//  748 	uint8 hexChar[2];    
//  749 	for (int i = 0; i < lenHex; i++)    
        MOV     R4,#0x0
        MOV     R5,#0x0
        LJMP    ??SHEndPointReveiceAirConMsg_0 & 0xFFFF
//  750 	{        
//  751 		hexChar[0] = (pkt->cmd.Data[i] & 0xF0) >> 4;        
??SHEndPointReveiceAirConMsg_1:
        MOV     A,R6
        ADD     A,#0x21
        LCALL   ??Subroutine46_0 & 0xFFFF
??CrossCallReturnLabel_86:
        ADD     A,R4
        MOV     R0,A
        INC     DPTR
        MOVX    A,@DPTR
        ADDC    A,R5
        MOV     R1,A
        MOV     DPL,R0
        MOV     DPH,R1
        MOVX    A,@DPTR
        SWAP    A
        ANL     A,#0xf
        MOV     DPL,?XSP + 0
        MOV     DPH,?XSP + 1
        MOVX    @DPTR,A
//  752 		hexChar[1] = pkt->cmd.Data[i] & 0x0F;        
        MOV     DPL,R0
        MOV     DPH,R1
        MOVX    A,@DPTR
        ANL     A,#0xf
        PUSH    A
        CFI CFA_SP SP+-1
        MOV     A,#0x1
        LCALL   ?XSTACK_DISP0_8
        POP     A
        CFI CFA_SP SP+0
        MOVX    @DPTR,A
//  753 		for (int j = 0; j < 2; j++)        
        MOV     ?V0 + 2,#0x0
        MOV     ?V0 + 3,#0x0
//  754 		{           
//  755 			 for (int k = 0; k < 4; k++)            
??SHEndPointReveiceAirConMsg_2:
        MOV     R2,#0x0
        MOV     R3,#0x0
//  756 			{               
//  757 				if (hexChar[j] & (0x08 >> k))                
??SHEndPointReveiceAirConMsg_3:
        MOV     ?V0 + 4,#0x8
        MOV     ?V0 + 5,#0x0
        MOV     A,R2
        MOV     R0,#?V0 + 4
        LCALL   ?SS_SHR
        MOV     DPL,?XSP + 0
        MOV     DPH,?XSP + 1
        MOV     A,DPL
        ADD     A,?V0 + 2
        MOV     DPL,A
        MOV     A,DPH
        ADDC    A,?V0 + 3
        MOV     DPH,A
        MOVX    A,@DPTR
        ANL     A,?V0 + 4
        JZ      ??SHEndPointReveiceAirConMsg_4
//  758 				{                    
//  759 					binStr[8 * i + 4 * j + k] = '1';                
        MOV     ?V0 + 6,R4
        MOV     ?V0 + 7,R5
        MOV     A,#0x3
        MOV     R0,#?V0 + 6
        LCALL   ?S_SHL
        MOV     ?V0 + 4,?V0 + 2
        MOV     ?V0 + 5,?V0 + 3
        MOV     A,#0x2
        MOV     R0,#?V0 + 4
        LCALL   ?S_SHL
        MOV     A,?V0 + 6
        ADD     A,?V0 + 4
        MOV     R0,A
        MOV     A,?V0 + 7
        ADDC    A,?V0 + 5
        MOV     R1,A
        MOV     A,R0
        ADD     A,R2
        MOV     R0,A
        MOV     A,R1
        ADDC    A,R3
        MOV     R1,A
        MOV     A,#0x45
        LCALL   ?XSTACK_DISP0_8
        LCALL   ?Subroutine22 & 0xFFFF
//  760 				}            
//  761 			}        
??CrossCallReturnLabel_26:
        MOV     A,#0x31
        MOVX    @DPTR,A
??SHEndPointReveiceAirConMsg_4:
        LCALL   ??Subroutine37_0 & 0xFFFF
??CrossCallReturnLabel_57:
        MOV     R3,A
        CLR     C
        MOV     A,R2
        SUBB    A,#0x4
        MOV     A,R3
        LCALL   ??Subroutine41_0 & 0xFFFF
//  762 		}    
??CrossCallReturnLabel_67:
        JC      ??SHEndPointReveiceAirConMsg_3
        MOV     A,?V0 + 2
        ADD     A,#0x1
        MOV     ?V0 + 2,A
        MOV     A,?V0 + 3
        ADDC    A,#0x0
        MOV     ?V0 + 3,A
        CLR     C
        MOV     A,?V0 + 2
        SUBB    A,#0x2
        MOV     A,?V0 + 3
        LCALL   ??Subroutine41_0 & 0xFFFF
//  763 	}
??CrossCallReturnLabel_68:
        JC      ??SHEndPointReveiceAirConMsg_2
        MOV     A,R4
        ADD     A,#0x1
        INC     R4
        MOV     A,R5
        ADDC    A,#0x0
        MOV     R5,A
??SHEndPointReveiceAirConMsg_0:
        CLR     C
        MOV     A,R4
        SUBB    A,?V0 + 0
        MOV     A,R5
        SUBB    A,?V0 + 1
        JNC     $+5
        LJMP    ??SHEndPointReveiceAirConMsg_1 & 0xFFFF
//  764 
//  765 	uint8 Sendcode35[35],Sendcode32[32];
//  766 	for(int i = 0;i<35;i++)
        MOV     R0,#0x0
        MOV     R1,#0x0
//  767 	{
//  768 		Sendcode35[i] = binStr[i];
??SHEndPointReveiceAirConMsg_5:
        MOV     A,#0x45
        LCALL   ?XSTACK_DISP0_8
        LCALL   ?Subroutine22 & 0xFFFF
//  769 	}
??CrossCallReturnLabel_27:
        MOVX    A,@DPTR
        PUSH    A
        CFI CFA_SP SP+-1
        MOV     A,#0x22
        LCALL   ?XSTACK_DISP0_8
        LCALL   ?Subroutine22 & 0xFFFF
??CrossCallReturnLabel_28:
        POP     A
        CFI CFA_SP SP+0
        LCALL   ?Subroutine5 & 0xFFFF
??CrossCallReturnLabel_3:
        SUBB    A,#0x23
        LCALL   ?Subroutine19 & 0xFFFF
??CrossCallReturnLabel_72:
        JC      ??SHEndPointReveiceAirConMsg_5
//  770 	
//  771 	for(int i = 0;i<32;i++)
        MOV     R0,#0x0
        MOV     R1,#0x0
//  772 	{
//  773 		Sendcode32[i] = binStr[40 + i];
??SHEndPointReveiceAirConMsg_6:
        MOV     A,#0x45
        LCALL   ?XSTACK_DISP0_8
        MOV     A,DPL
        ADD     A,R0
        MOV     R2,A
        MOV     A,DPH
        ADDC    A,R1
        MOV     R3,A
        MOV     A,R2
        ADD     A,#0x28
        MOV     DPL,A
        MOV     A,R3
        LCALL   ??Subroutine47_0 & 0xFFFF
//  774 	}
??CrossCallReturnLabel_85:
        PUSH    A
        CFI CFA_SP SP+-1
        MOV     A,#0x2
        LCALL   ?XSTACK_DISP0_8
        LCALL   ?Subroutine22 & 0xFFFF
??CrossCallReturnLabel_29:
        POP     A
        CFI CFA_SP SP+0
        LCALL   ?Subroutine5 & 0xFFFF
??CrossCallReturnLabel_4:
        SUBB    A,#0x20
        LCALL   ?Subroutine19 & 0xFFFF
??CrossCallReturnLabel_73:
        JC      ??SHEndPointReveiceAirConMsg_6
//  775 	
//  776 	SHIR_Sending(Sendcode35,Sendcode32);	
        ; Setup parameters for call to function SHIR_Sending
        MOV     A,#0x2
        LCALL   ?XSTACK_DISP0_8
        MOV     R4,DPL
        MOV     R5,DPH
        MOV     A,#0x22
        LCALL   ?XSTACK_DISP0_8
        MOV     R2,DPL
        MOV     R3,DPH
        LCALL   ??SHIR_Sending?relay
//  777  }
        MOV     A,#-0x73
        LCALL   ?DEALLOC_XSTACK8
        CFI CFA_XSP16 add(XSP16, 16)
        MOV     R7,#0x8
        LJMP    ?BANKED_LEAVE_XDATA
        CFI EndBlock cfiBlock151

        RSEG BANKED_CODE:CODE:NOROOT(0)
?Subroutine22:
        CFI Block cfiCond152 Using cfiCommon0
        CFI NoFunction
        CFI Conditional ??CrossCallReturnLabel_26
        CFI R6 load(1, XDATA, add(CFA_XSP16, literal(-16)))
        CFI VB load(1, XDATA, add(CFA_XSP16, literal(-15)))
        CFI V0 load(1, XDATA, add(CFA_XSP16, literal(-14)))
        CFI V1 load(1, XDATA, add(CFA_XSP16, literal(-13)))
        CFI V2 load(1, XDATA, add(CFA_XSP16, literal(-12)))
        CFI V3 load(1, XDATA, add(CFA_XSP16, literal(-11)))
        CFI V4 load(1, XDATA, add(CFA_XSP16, literal(-10)))
        CFI V5 load(1, XDATA, add(CFA_XSP16, literal(-9)))
        CFI V6 load(1, XDATA, add(CFA_XSP16, literal(-8)))
        CFI V7 load(1, XDATA, add(CFA_XSP16, literal(-7)))
        CFI R7 load(1, XDATA, add(CFA_XSP16, literal(-6)))
        CFI ?RET_LOW load(1, XDATA, add(CFA_XSP16, literal(-5)))
        CFI ?RET_HIGH load(1, XDATA, add(CFA_XSP16, literal(-4)))
        CFI ?BRET_EXT load(1, XDATA, add(CFA_XSP16, literal(-3)))
        CFI DPL0 load(1, XDATA, add(CFA_XSP16, literal(-2)))
        CFI DPH0 load(1, XDATA, add(CFA_XSP16, literal(-1)))
        CFI CFA_SP SP+0
        CFI CFA_XSP16 add(XSP16, 157)
        CFI Block cfiCond153 Using cfiCommon0
        CFI (cfiCond153) NoFunction
        CFI (cfiCond153) Conditional ??CrossCallReturnLabel_27
        CFI (cfiCond153) R6 load(1, XDATA, add(CFA_XSP16, literal(-16)))
        CFI (cfiCond153) VB load(1, XDATA, add(CFA_XSP16, literal(-15)))
        CFI (cfiCond153) V0 load(1, XDATA, add(CFA_XSP16, literal(-14)))
        CFI (cfiCond153) V1 load(1, XDATA, add(CFA_XSP16, literal(-13)))
        CFI (cfiCond153) V2 load(1, XDATA, add(CFA_XSP16, literal(-12)))
        CFI (cfiCond153) V3 load(1, XDATA, add(CFA_XSP16, literal(-11)))
        CFI (cfiCond153) V4 load(1, XDATA, add(CFA_XSP16, literal(-10)))
        CFI (cfiCond153) V5 load(1, XDATA, add(CFA_XSP16, literal(-9)))
        CFI (cfiCond153) V6 load(1, XDATA, add(CFA_XSP16, literal(-8)))
        CFI (cfiCond153) V7 load(1, XDATA, add(CFA_XSP16, literal(-7)))
        CFI (cfiCond153) R7 load(1, XDATA, add(CFA_XSP16, literal(-6)))
        CFI (cfiCond153) ?RET_LOW load(1, XDATA, add(CFA_XSP16, literal(-5)))
        CFI (cfiCond153) ?RET_HIGH load(1, XDATA, add(CFA_XSP16, literal(-4)))
        CFI (cfiCond153) ?BRET_EXT load(1, XDATA, add(CFA_XSP16, literal(-3)))
        CFI (cfiCond153) DPL0 load(1, XDATA, add(CFA_XSP16, literal(-2)))
        CFI (cfiCond153) DPH0 load(1, XDATA, add(CFA_XSP16, literal(-1)))
        CFI (cfiCond153) CFA_SP SP+0
        CFI (cfiCond153) CFA_XSP16 add(XSP16, 157)
        CFI Block cfiCond154 Using cfiCommon0
        CFI (cfiCond154) NoFunction
        CFI (cfiCond154) Conditional ??CrossCallReturnLabel_28
        CFI (cfiCond154) R6 load(1, XDATA, add(CFA_XSP16, literal(-16)))
        CFI (cfiCond154) VB load(1, XDATA, add(CFA_XSP16, literal(-15)))
        CFI (cfiCond154) V0 load(1, XDATA, add(CFA_XSP16, literal(-14)))
        CFI (cfiCond154) V1 load(1, XDATA, add(CFA_XSP16, literal(-13)))
        CFI (cfiCond154) V2 load(1, XDATA, add(CFA_XSP16, literal(-12)))
        CFI (cfiCond154) V3 load(1, XDATA, add(CFA_XSP16, literal(-11)))
        CFI (cfiCond154) V4 load(1, XDATA, add(CFA_XSP16, literal(-10)))
        CFI (cfiCond154) V5 load(1, XDATA, add(CFA_XSP16, literal(-9)))
        CFI (cfiCond154) V6 load(1, XDATA, add(CFA_XSP16, literal(-8)))
        CFI (cfiCond154) V7 load(1, XDATA, add(CFA_XSP16, literal(-7)))
        CFI (cfiCond154) R7 load(1, XDATA, add(CFA_XSP16, literal(-6)))
        CFI (cfiCond154) ?RET_LOW load(1, XDATA, add(CFA_XSP16, literal(-5)))
        CFI (cfiCond154) ?RET_HIGH load(1, XDATA, add(CFA_XSP16, literal(-4)))
        CFI (cfiCond154) ?BRET_EXT load(1, XDATA, add(CFA_XSP16, literal(-3)))
        CFI (cfiCond154) DPL0 load(1, XDATA, add(CFA_XSP16, literal(-2)))
        CFI (cfiCond154) DPH0 load(1, XDATA, add(CFA_XSP16, literal(-1)))
        CFI (cfiCond154) CFA_SP SP+-1
        CFI (cfiCond154) CFA_XSP16 add(XSP16, 157)
        CFI Block cfiCond155 Using cfiCommon0
        CFI (cfiCond155) NoFunction
        CFI (cfiCond155) Conditional ??CrossCallReturnLabel_29
        CFI (cfiCond155) R6 load(1, XDATA, add(CFA_XSP16, literal(-16)))
        CFI (cfiCond155) VB load(1, XDATA, add(CFA_XSP16, literal(-15)))
        CFI (cfiCond155) V0 load(1, XDATA, add(CFA_XSP16, literal(-14)))
        CFI (cfiCond155) V1 load(1, XDATA, add(CFA_XSP16, literal(-13)))
        CFI (cfiCond155) V2 load(1, XDATA, add(CFA_XSP16, literal(-12)))
        CFI (cfiCond155) V3 load(1, XDATA, add(CFA_XSP16, literal(-11)))
        CFI (cfiCond155) V4 load(1, XDATA, add(CFA_XSP16, literal(-10)))
        CFI (cfiCond155) V5 load(1, XDATA, add(CFA_XSP16, literal(-9)))
        CFI (cfiCond155) V6 load(1, XDATA, add(CFA_XSP16, literal(-8)))
        CFI (cfiCond155) V7 load(1, XDATA, add(CFA_XSP16, literal(-7)))
        CFI (cfiCond155) R7 load(1, XDATA, add(CFA_XSP16, literal(-6)))
        CFI (cfiCond155) ?RET_LOW load(1, XDATA, add(CFA_XSP16, literal(-5)))
        CFI (cfiCond155) ?RET_HIGH load(1, XDATA, add(CFA_XSP16, literal(-4)))
        CFI (cfiCond155) ?BRET_EXT load(1, XDATA, add(CFA_XSP16, literal(-3)))
        CFI (cfiCond155) DPL0 load(1, XDATA, add(CFA_XSP16, literal(-2)))
        CFI (cfiCond155) DPH0 load(1, XDATA, add(CFA_XSP16, literal(-1)))
        CFI (cfiCond155) CFA_SP SP+-1
        CFI (cfiCond155) CFA_XSP16 add(XSP16, 157)
        CFI Block cfiPicker156 Using cfiCommon1
        CFI (cfiPicker156) NoFunction
        CFI (cfiPicker156) Picker
        LCALL   ?Subroutine35 & 0xFFFF
??CrossCallReturnLabel_54:
        RET
        CFI EndBlock cfiCond152
        CFI EndBlock cfiCond153
        CFI EndBlock cfiCond154
        CFI EndBlock cfiCond155
        CFI EndBlock cfiPicker156

        RSEG BANKED_CODE:CODE:NOROOT(0)
?Subroutine35:
        CFI Block cfiCond157 Using cfiCommon0
        CFI NoFunction
        CFI Conditional ??CrossCallReturnLabel_53, ??CrossCallReturnLabel_23
        CFI DPL0 Frame(CFA_SP, 4)
        CFI DPH0 Frame(CFA_SP, 5)
        CFI CFA_SP SP+-5
        CFI CFA_XSP16 add(XSP16, 50)
        CFI Block cfiCond158 Using cfiCommon0
        CFI (cfiCond158) NoFunction
        CFI (cfiCond158) Conditional ??CrossCallReturnLabel_53, ??CrossCallReturnLabel_24
        CFI (cfiCond158) DPL0 Frame(CFA_SP, 4)
        CFI (cfiCond158) DPH0 Frame(CFA_SP, 5)
        CFI (cfiCond158) CFA_SP SP+-6
        CFI (cfiCond158) CFA_XSP16 add(XSP16, 50)
        CFI Block cfiCond159 Using cfiCommon0
        CFI (cfiCond159) NoFunction
        CFI (cfiCond159) Conditional ??CrossCallReturnLabel_53, ??CrossCallReturnLabel_25
        CFI (cfiCond159) R6 load(1, XDATA, add(CFA_XSP16, literal(-10)))
        CFI (cfiCond159) VB load(1, XDATA, add(CFA_XSP16, literal(-9)))
        CFI (cfiCond159) V0 load(1, XDATA, add(CFA_XSP16, literal(-8)))
        CFI (cfiCond159) V1 load(1, XDATA, add(CFA_XSP16, literal(-7)))
        CFI (cfiCond159) R7 load(1, XDATA, add(CFA_XSP16, literal(-6)))
        CFI (cfiCond159) ?RET_LOW load(1, XDATA, add(CFA_XSP16, literal(-5)))
        CFI (cfiCond159) ?RET_HIGH load(1, XDATA, add(CFA_XSP16, literal(-4)))
        CFI (cfiCond159) ?BRET_EXT load(1, XDATA, add(CFA_XSP16, literal(-3)))
        CFI (cfiCond159) DPL0 load(1, XDATA, add(CFA_XSP16, literal(-2)))
        CFI (cfiCond159) DPH0 load(1, XDATA, add(CFA_XSP16, literal(-1)))
        CFI (cfiCond159) CFA_SP SP+-1
        CFI (cfiCond159) CFA_XSP16 add(XSP16, 31)
        CFI Block cfiCond160 Using cfiCommon0
        CFI (cfiCond160) NoFunction
        CFI (cfiCond160) Conditional ??CrossCallReturnLabel_54, ??CrossCallReturnLabel_26
        CFI (cfiCond160) R6 load(1, XDATA, add(CFA_XSP16, literal(-16)))
        CFI (cfiCond160) VB load(1, XDATA, add(CFA_XSP16, literal(-15)))
        CFI (cfiCond160) V0 load(1, XDATA, add(CFA_XSP16, literal(-14)))
        CFI (cfiCond160) V1 load(1, XDATA, add(CFA_XSP16, literal(-13)))
        CFI (cfiCond160) V2 load(1, XDATA, add(CFA_XSP16, literal(-12)))
        CFI (cfiCond160) V3 load(1, XDATA, add(CFA_XSP16, literal(-11)))
        CFI (cfiCond160) V4 load(1, XDATA, add(CFA_XSP16, literal(-10)))
        CFI (cfiCond160) V5 load(1, XDATA, add(CFA_XSP16, literal(-9)))
        CFI (cfiCond160) V6 load(1, XDATA, add(CFA_XSP16, literal(-8)))
        CFI (cfiCond160) V7 load(1, XDATA, add(CFA_XSP16, literal(-7)))
        CFI (cfiCond160) R7 load(1, XDATA, add(CFA_XSP16, literal(-6)))
        CFI (cfiCond160) ?RET_LOW load(1, XDATA, add(CFA_XSP16, literal(-5)))
        CFI (cfiCond160) ?RET_HIGH load(1, XDATA, add(CFA_XSP16, literal(-4)))
        CFI (cfiCond160) ?BRET_EXT load(1, XDATA, add(CFA_XSP16, literal(-3)))
        CFI (cfiCond160) DPL0 load(1, XDATA, add(CFA_XSP16, literal(-2)))
        CFI (cfiCond160) DPH0 load(1, XDATA, add(CFA_XSP16, literal(-1)))
        CFI (cfiCond160) CFA_SP SP+0
        CFI (cfiCond160) CFA_XSP16 add(XSP16, 157)
        CFI Block cfiCond161 Using cfiCommon0
        CFI (cfiCond161) NoFunction
        CFI (cfiCond161) Conditional ??CrossCallReturnLabel_54, ??CrossCallReturnLabel_27
        CFI (cfiCond161) R6 load(1, XDATA, add(CFA_XSP16, literal(-16)))
        CFI (cfiCond161) VB load(1, XDATA, add(CFA_XSP16, literal(-15)))
        CFI (cfiCond161) V0 load(1, XDATA, add(CFA_XSP16, literal(-14)))
        CFI (cfiCond161) V1 load(1, XDATA, add(CFA_XSP16, literal(-13)))
        CFI (cfiCond161) V2 load(1, XDATA, add(CFA_XSP16, literal(-12)))
        CFI (cfiCond161) V3 load(1, XDATA, add(CFA_XSP16, literal(-11)))
        CFI (cfiCond161) V4 load(1, XDATA, add(CFA_XSP16, literal(-10)))
        CFI (cfiCond161) V5 load(1, XDATA, add(CFA_XSP16, literal(-9)))
        CFI (cfiCond161) V6 load(1, XDATA, add(CFA_XSP16, literal(-8)))
        CFI (cfiCond161) V7 load(1, XDATA, add(CFA_XSP16, literal(-7)))
        CFI (cfiCond161) R7 load(1, XDATA, add(CFA_XSP16, literal(-6)))
        CFI (cfiCond161) ?RET_LOW load(1, XDATA, add(CFA_XSP16, literal(-5)))
        CFI (cfiCond161) ?RET_HIGH load(1, XDATA, add(CFA_XSP16, literal(-4)))
        CFI (cfiCond161) ?BRET_EXT load(1, XDATA, add(CFA_XSP16, literal(-3)))
        CFI (cfiCond161) DPL0 load(1, XDATA, add(CFA_XSP16, literal(-2)))
        CFI (cfiCond161) DPH0 load(1, XDATA, add(CFA_XSP16, literal(-1)))
        CFI (cfiCond161) CFA_SP SP+0
        CFI (cfiCond161) CFA_XSP16 add(XSP16, 157)
        CFI Block cfiCond162 Using cfiCommon0
        CFI (cfiCond162) NoFunction
        CFI (cfiCond162) Conditional ??CrossCallReturnLabel_54, ??CrossCallReturnLabel_28
        CFI (cfiCond162) R6 load(1, XDATA, add(CFA_XSP16, literal(-16)))
        CFI (cfiCond162) VB load(1, XDATA, add(CFA_XSP16, literal(-15)))
        CFI (cfiCond162) V0 load(1, XDATA, add(CFA_XSP16, literal(-14)))
        CFI (cfiCond162) V1 load(1, XDATA, add(CFA_XSP16, literal(-13)))
        CFI (cfiCond162) V2 load(1, XDATA, add(CFA_XSP16, literal(-12)))
        CFI (cfiCond162) V3 load(1, XDATA, add(CFA_XSP16, literal(-11)))
        CFI (cfiCond162) V4 load(1, XDATA, add(CFA_XSP16, literal(-10)))
        CFI (cfiCond162) V5 load(1, XDATA, add(CFA_XSP16, literal(-9)))
        CFI (cfiCond162) V6 load(1, XDATA, add(CFA_XSP16, literal(-8)))
        CFI (cfiCond162) V7 load(1, XDATA, add(CFA_XSP16, literal(-7)))
        CFI (cfiCond162) R7 load(1, XDATA, add(CFA_XSP16, literal(-6)))
        CFI (cfiCond162) ?RET_LOW load(1, XDATA, add(CFA_XSP16, literal(-5)))
        CFI (cfiCond162) ?RET_HIGH load(1, XDATA, add(CFA_XSP16, literal(-4)))
        CFI (cfiCond162) ?BRET_EXT load(1, XDATA, add(CFA_XSP16, literal(-3)))
        CFI (cfiCond162) DPL0 load(1, XDATA, add(CFA_XSP16, literal(-2)))
        CFI (cfiCond162) DPH0 load(1, XDATA, add(CFA_XSP16, literal(-1)))
        CFI (cfiCond162) CFA_SP SP+-1
        CFI (cfiCond162) CFA_XSP16 add(XSP16, 157)
        CFI Block cfiCond163 Using cfiCommon0
        CFI (cfiCond163) NoFunction
        CFI (cfiCond163) Conditional ??CrossCallReturnLabel_54, ??CrossCallReturnLabel_29
        CFI (cfiCond163) R6 load(1, XDATA, add(CFA_XSP16, literal(-16)))
        CFI (cfiCond163) VB load(1, XDATA, add(CFA_XSP16, literal(-15)))
        CFI (cfiCond163) V0 load(1, XDATA, add(CFA_XSP16, literal(-14)))
        CFI (cfiCond163) V1 load(1, XDATA, add(CFA_XSP16, literal(-13)))
        CFI (cfiCond163) V2 load(1, XDATA, add(CFA_XSP16, literal(-12)))
        CFI (cfiCond163) V3 load(1, XDATA, add(CFA_XSP16, literal(-11)))
        CFI (cfiCond163) V4 load(1, XDATA, add(CFA_XSP16, literal(-10)))
        CFI (cfiCond163) V5 load(1, XDATA, add(CFA_XSP16, literal(-9)))
        CFI (cfiCond163) V6 load(1, XDATA, add(CFA_XSP16, literal(-8)))
        CFI (cfiCond163) V7 load(1, XDATA, add(CFA_XSP16, literal(-7)))
        CFI (cfiCond163) R7 load(1, XDATA, add(CFA_XSP16, literal(-6)))
        CFI (cfiCond163) ?RET_LOW load(1, XDATA, add(CFA_XSP16, literal(-5)))
        CFI (cfiCond163) ?RET_HIGH load(1, XDATA, add(CFA_XSP16, literal(-4)))
        CFI (cfiCond163) ?BRET_EXT load(1, XDATA, add(CFA_XSP16, literal(-3)))
        CFI (cfiCond163) DPL0 load(1, XDATA, add(CFA_XSP16, literal(-2)))
        CFI (cfiCond163) DPH0 load(1, XDATA, add(CFA_XSP16, literal(-1)))
        CFI (cfiCond163) CFA_SP SP+-1
        CFI (cfiCond163) CFA_XSP16 add(XSP16, 157)
        CFI Block cfiPicker164 Using cfiCommon1
        CFI (cfiPicker164) NoFunction
        CFI (cfiPicker164) Picker
        MOV     A,DPL
        ADD     A,R0
        MOV     DPL,A
        MOV     A,DPH
        ADDC    A,R1
        MOV     DPH,A
        RET
        CFI EndBlock cfiCond157
        CFI EndBlock cfiCond158
        CFI EndBlock cfiCond159
        CFI EndBlock cfiCond160
        CFI EndBlock cfiCond161
        CFI EndBlock cfiCond162
        CFI EndBlock cfiCond163
        CFI EndBlock cfiPicker164

        RSEG BANKED_CODE:CODE:NOROOT(0)
?Subroutine10:
        CFI Block cfiCond165 Using cfiCommon0
        CFI NoFunction
        CFI Conditional ??CrossCallReturnLabel_87
        CFI R6 load(1, XDATA, add(CFA_XSP16, literal(-12)))
        CFI VB load(1, XDATA, add(CFA_XSP16, literal(-11)))
        CFI V0 load(1, XDATA, add(CFA_XSP16, literal(-10)))
        CFI V1 load(1, XDATA, add(CFA_XSP16, literal(-9)))
        CFI V2 load(1, XDATA, add(CFA_XSP16, literal(-8)))
        CFI V3 load(1, XDATA, add(CFA_XSP16, literal(-7)))
        CFI R7 load(1, XDATA, add(CFA_XSP16, literal(-6)))
        CFI ?RET_LOW load(1, XDATA, add(CFA_XSP16, literal(-5)))
        CFI ?RET_HIGH load(1, XDATA, add(CFA_XSP16, literal(-4)))
        CFI ?BRET_EXT load(1, XDATA, add(CFA_XSP16, literal(-3)))
        CFI DPL0 load(1, XDATA, add(CFA_XSP16, literal(-2)))
        CFI DPH0 load(1, XDATA, add(CFA_XSP16, literal(-1)))
        CFI CFA_SP SP+0
        CFI CFA_XSP16 add(XSP16, 12)
        CFI Block cfiCond166 Using cfiCommon0
        CFI (cfiCond166) NoFunction
        CFI (cfiCond166) Conditional ??CrossCallReturnLabel_88
        CFI (cfiCond166) R6 load(1, XDATA, add(CFA_XSP16, literal(-16)))
        CFI (cfiCond166) VB load(1, XDATA, add(CFA_XSP16, literal(-15)))
        CFI (cfiCond166) V0 load(1, XDATA, add(CFA_XSP16, literal(-14)))
        CFI (cfiCond166) V1 load(1, XDATA, add(CFA_XSP16, literal(-13)))
        CFI (cfiCond166) V2 load(1, XDATA, add(CFA_XSP16, literal(-12)))
        CFI (cfiCond166) V3 load(1, XDATA, add(CFA_XSP16, literal(-11)))
        CFI (cfiCond166) V4 load(1, XDATA, add(CFA_XSP16, literal(-10)))
        CFI (cfiCond166) V5 load(1, XDATA, add(CFA_XSP16, literal(-9)))
        CFI (cfiCond166) V6 load(1, XDATA, add(CFA_XSP16, literal(-8)))
        CFI (cfiCond166) V7 load(1, XDATA, add(CFA_XSP16, literal(-7)))
        CFI (cfiCond166) R7 load(1, XDATA, add(CFA_XSP16, literal(-6)))
        CFI (cfiCond166) ?RET_LOW load(1, XDATA, add(CFA_XSP16, literal(-5)))
        CFI (cfiCond166) ?RET_HIGH load(1, XDATA, add(CFA_XSP16, literal(-4)))
        CFI (cfiCond166) ?BRET_EXT load(1, XDATA, add(CFA_XSP16, literal(-3)))
        CFI (cfiCond166) DPL0 load(1, XDATA, add(CFA_XSP16, literal(-2)))
        CFI (cfiCond166) DPH0 load(1, XDATA, add(CFA_XSP16, literal(-1)))
        CFI (cfiCond166) CFA_SP SP+0
        CFI (cfiCond166) CFA_XSP16 add(XSP16, 157)
        CFI Block cfiPicker167 Using cfiCommon1
        CFI (cfiPicker167) NoFunction
        CFI (cfiPicker167) Picker
        MOV     A,R6
        ADD     A,#0x1f
        CFI EndBlock cfiCond165
        CFI EndBlock cfiCond166
        CFI EndBlock cfiPicker167
        REQUIRE ??Subroutine46_0
        ; // Fall through to label ??Subroutine46_0

        RSEG BANKED_CODE:CODE:NOROOT(0)
??Subroutine46_0:
        CFI Block cfiCond168 Using cfiCommon0
        CFI NoFunction
        CFI Conditional ??CrossCallReturnLabel_86
        CFI R6 load(1, XDATA, add(CFA_XSP16, literal(-16)))
        CFI VB load(1, XDATA, add(CFA_XSP16, literal(-15)))
        CFI V0 load(1, XDATA, add(CFA_XSP16, literal(-14)))
        CFI V1 load(1, XDATA, add(CFA_XSP16, literal(-13)))
        CFI V2 load(1, XDATA, add(CFA_XSP16, literal(-12)))
        CFI V3 load(1, XDATA, add(CFA_XSP16, literal(-11)))
        CFI V4 load(1, XDATA, add(CFA_XSP16, literal(-10)))
        CFI V5 load(1, XDATA, add(CFA_XSP16, literal(-9)))
        CFI V6 load(1, XDATA, add(CFA_XSP16, literal(-8)))
        CFI V7 load(1, XDATA, add(CFA_XSP16, literal(-7)))
        CFI R7 load(1, XDATA, add(CFA_XSP16, literal(-6)))
        CFI ?RET_LOW load(1, XDATA, add(CFA_XSP16, literal(-5)))
        CFI ?RET_HIGH load(1, XDATA, add(CFA_XSP16, literal(-4)))
        CFI ?BRET_EXT load(1, XDATA, add(CFA_XSP16, literal(-3)))
        CFI DPL0 load(1, XDATA, add(CFA_XSP16, literal(-2)))
        CFI DPH0 load(1, XDATA, add(CFA_XSP16, literal(-1)))
        CFI CFA_SP SP+0
        CFI CFA_XSP16 add(XSP16, 157)
        CFI Block cfiCond169 Using cfiCommon0
        CFI (cfiCond169) NoFunction
        CFI (cfiCond169) Conditional ??CrossCallReturnLabel_87
        CFI (cfiCond169) R6 load(1, XDATA, add(CFA_XSP16, literal(-12)))
        CFI (cfiCond169) VB load(1, XDATA, add(CFA_XSP16, literal(-11)))
        CFI (cfiCond169) V0 load(1, XDATA, add(CFA_XSP16, literal(-10)))
        CFI (cfiCond169) V1 load(1, XDATA, add(CFA_XSP16, literal(-9)))
        CFI (cfiCond169) V2 load(1, XDATA, add(CFA_XSP16, literal(-8)))
        CFI (cfiCond169) V3 load(1, XDATA, add(CFA_XSP16, literal(-7)))
        CFI (cfiCond169) R7 load(1, XDATA, add(CFA_XSP16, literal(-6)))
        CFI (cfiCond169) ?RET_LOW load(1, XDATA, add(CFA_XSP16, literal(-5)))
        CFI (cfiCond169) ?RET_HIGH load(1, XDATA, add(CFA_XSP16, literal(-4)))
        CFI (cfiCond169) ?BRET_EXT load(1, XDATA, add(CFA_XSP16, literal(-3)))
        CFI (cfiCond169) DPL0 load(1, XDATA, add(CFA_XSP16, literal(-2)))
        CFI (cfiCond169) DPH0 load(1, XDATA, add(CFA_XSP16, literal(-1)))
        CFI (cfiCond169) CFA_SP SP+0
        CFI (cfiCond169) CFA_XSP16 add(XSP16, 12)
        CFI Block cfiCond170 Using cfiCommon0
        CFI (cfiCond170) NoFunction
        CFI (cfiCond170) Conditional ??CrossCallReturnLabel_88
        CFI (cfiCond170) R6 load(1, XDATA, add(CFA_XSP16, literal(-16)))
        CFI (cfiCond170) VB load(1, XDATA, add(CFA_XSP16, literal(-15)))
        CFI (cfiCond170) V0 load(1, XDATA, add(CFA_XSP16, literal(-14)))
        CFI (cfiCond170) V1 load(1, XDATA, add(CFA_XSP16, literal(-13)))
        CFI (cfiCond170) V2 load(1, XDATA, add(CFA_XSP16, literal(-12)))
        CFI (cfiCond170) V3 load(1, XDATA, add(CFA_XSP16, literal(-11)))
        CFI (cfiCond170) V4 load(1, XDATA, add(CFA_XSP16, literal(-10)))
        CFI (cfiCond170) V5 load(1, XDATA, add(CFA_XSP16, literal(-9)))
        CFI (cfiCond170) V6 load(1, XDATA, add(CFA_XSP16, literal(-8)))
        CFI (cfiCond170) V7 load(1, XDATA, add(CFA_XSP16, literal(-7)))
        CFI (cfiCond170) R7 load(1, XDATA, add(CFA_XSP16, literal(-6)))
        CFI (cfiCond170) ?RET_LOW load(1, XDATA, add(CFA_XSP16, literal(-5)))
        CFI (cfiCond170) ?RET_HIGH load(1, XDATA, add(CFA_XSP16, literal(-4)))
        CFI (cfiCond170) ?BRET_EXT load(1, XDATA, add(CFA_XSP16, literal(-3)))
        CFI (cfiCond170) DPL0 load(1, XDATA, add(CFA_XSP16, literal(-2)))
        CFI (cfiCond170) DPH0 load(1, XDATA, add(CFA_XSP16, literal(-1)))
        CFI (cfiCond170) CFA_SP SP+0
        CFI (cfiCond170) CFA_XSP16 add(XSP16, 157)
        CFI Block cfiPicker171 Using cfiCommon1
        CFI (cfiPicker171) NoFunction
        CFI (cfiPicker171) Picker
        MOV     DPL,A
        MOV     A,R7
        CFI EndBlock cfiCond168
        CFI EndBlock cfiCond169
        CFI EndBlock cfiCond170
        CFI EndBlock cfiPicker171
        REQUIRE ??Subroutine47_0
        ; // Fall through to label ??Subroutine47_0

        RSEG BANKED_CODE:CODE:NOROOT(0)
??Subroutine47_0:
        CFI Block cfiCond172 Using cfiCommon0
        CFI NoFunction
        CFI Conditional ??CrossCallReturnLabel_84
        CFI DPL0 Frame(CFA_SP, 4)
        CFI DPH0 Frame(CFA_SP, 5)
        CFI CFA_SP SP+-5
        CFI CFA_XSP16 add(XSP16, 50)
        CFI Block cfiCond173 Using cfiCommon0
        CFI (cfiCond173) NoFunction
        CFI (cfiCond173) Conditional ??CrossCallReturnLabel_85
        CFI (cfiCond173) R6 load(1, XDATA, add(CFA_XSP16, literal(-16)))
        CFI (cfiCond173) VB load(1, XDATA, add(CFA_XSP16, literal(-15)))
        CFI (cfiCond173) V0 load(1, XDATA, add(CFA_XSP16, literal(-14)))
        CFI (cfiCond173) V1 load(1, XDATA, add(CFA_XSP16, literal(-13)))
        CFI (cfiCond173) V2 load(1, XDATA, add(CFA_XSP16, literal(-12)))
        CFI (cfiCond173) V3 load(1, XDATA, add(CFA_XSP16, literal(-11)))
        CFI (cfiCond173) V4 load(1, XDATA, add(CFA_XSP16, literal(-10)))
        CFI (cfiCond173) V5 load(1, XDATA, add(CFA_XSP16, literal(-9)))
        CFI (cfiCond173) V6 load(1, XDATA, add(CFA_XSP16, literal(-8)))
        CFI (cfiCond173) V7 load(1, XDATA, add(CFA_XSP16, literal(-7)))
        CFI (cfiCond173) R7 load(1, XDATA, add(CFA_XSP16, literal(-6)))
        CFI (cfiCond173) ?RET_LOW load(1, XDATA, add(CFA_XSP16, literal(-5)))
        CFI (cfiCond173) ?RET_HIGH load(1, XDATA, add(CFA_XSP16, literal(-4)))
        CFI (cfiCond173) ?BRET_EXT load(1, XDATA, add(CFA_XSP16, literal(-3)))
        CFI (cfiCond173) DPL0 load(1, XDATA, add(CFA_XSP16, literal(-2)))
        CFI (cfiCond173) DPH0 load(1, XDATA, add(CFA_XSP16, literal(-1)))
        CFI (cfiCond173) CFA_SP SP+0
        CFI (cfiCond173) CFA_XSP16 add(XSP16, 157)
        CFI Block cfiCond174 Using cfiCommon0
        CFI (cfiCond174) NoFunction
        CFI (cfiCond174) Conditional ??CrossCallReturnLabel_86
        CFI (cfiCond174) R6 load(1, XDATA, add(CFA_XSP16, literal(-16)))
        CFI (cfiCond174) VB load(1, XDATA, add(CFA_XSP16, literal(-15)))
        CFI (cfiCond174) V0 load(1, XDATA, add(CFA_XSP16, literal(-14)))
        CFI (cfiCond174) V1 load(1, XDATA, add(CFA_XSP16, literal(-13)))
        CFI (cfiCond174) V2 load(1, XDATA, add(CFA_XSP16, literal(-12)))
        CFI (cfiCond174) V3 load(1, XDATA, add(CFA_XSP16, literal(-11)))
        CFI (cfiCond174) V4 load(1, XDATA, add(CFA_XSP16, literal(-10)))
        CFI (cfiCond174) V5 load(1, XDATA, add(CFA_XSP16, literal(-9)))
        CFI (cfiCond174) V6 load(1, XDATA, add(CFA_XSP16, literal(-8)))
        CFI (cfiCond174) V7 load(1, XDATA, add(CFA_XSP16, literal(-7)))
        CFI (cfiCond174) R7 load(1, XDATA, add(CFA_XSP16, literal(-6)))
        CFI (cfiCond174) ?RET_LOW load(1, XDATA, add(CFA_XSP16, literal(-5)))
        CFI (cfiCond174) ?RET_HIGH load(1, XDATA, add(CFA_XSP16, literal(-4)))
        CFI (cfiCond174) ?BRET_EXT load(1, XDATA, add(CFA_XSP16, literal(-3)))
        CFI (cfiCond174) DPL0 load(1, XDATA, add(CFA_XSP16, literal(-2)))
        CFI (cfiCond174) DPH0 load(1, XDATA, add(CFA_XSP16, literal(-1)))
        CFI (cfiCond174) CFA_SP SP+0
        CFI (cfiCond174) CFA_XSP16 add(XSP16, 157)
        CFI Block cfiCond175 Using cfiCommon0
        CFI (cfiCond175) NoFunction
        CFI (cfiCond175) Conditional ??CrossCallReturnLabel_87
        CFI (cfiCond175) R6 load(1, XDATA, add(CFA_XSP16, literal(-12)))
        CFI (cfiCond175) VB load(1, XDATA, add(CFA_XSP16, literal(-11)))
        CFI (cfiCond175) V0 load(1, XDATA, add(CFA_XSP16, literal(-10)))
