///////////////////////////////////////////////////////////////////////////////
//                                                                            /
// IAR C/C++ Compiler V8.10.3.10338/W32 for 8051        19/Dec/2020  15:24:06 /
// Copyright 2004-2011 IAR Systems AB.                                        /
//                                                                            /
//    Core               =  plain                                             /
//    Code model         =  banked                                            /
//    Data model         =  large                                             /
//    Calling convention =  xdata reentrant                                   /
//    Constant location  =  data_rom                                          /
//    Dptr setup         =  1,16                                              /
//    Source file        =  C:\Users\Administrator\Desktop\SmartHomeApp\Proje /
//                          cts\zstack\Samples\SmartHomeApp\Source\SmartHomeA /
//                          pp.c                                              /
//    Command line       =  -f C:\Users\Administrator\Desktop\SmartHomeApp\Pr /
//                          ojects\zstack\Samples\SmartHomeApp\CC2530DB\..\.. /
//                          \..\Tools\CC2530DB\f8wEndev.cfg (-DCPU32MHZ       /
//                          -DROOT=__near_func -DBLINK_LEDS) -f               /
//                          C:\Users\Administrator\Desktop\SmartHomeApp\Proje /
//                          cts\zstack\Samples\SmartHomeApp\CC2530DB\..\..\.. /
//                          \Tools\CC2530DB\f8wConfig.cfg (-DSECURE=0         /
//                          -DZG_SECURE_DYNAMIC=0 -DREFLECTOR                 /
//                          -DDEFAULT_CHANLIST=0x00000800                     /
//                          -DZDAPP_CONFIG_PAN_ID=0xFFF1                      /
//                          -DNWK_START_DELAY=100 -DEXTENDED_JOINING_RANDOM_M /
//                          ASK=0x007F -DBEACON_REQUEST_DELAY=100             /
//                          -DBEACON_REQ_DELAY_MASK=0x00FF                    /
//                          -DROUTE_EXPIRY_TIME=30 -DAPSC_ACK_WAIT_DURATION_P /
//                          OLLED=3000 -DNWK_INDIRECT_MSG_TIMEOUT=7           /
//                          -DMAX_RREQ_ENTRIES=8 -DAPSC_MAX_FRAME_RETRIES=3   /
//                          -DNWK_MAX_DATA_RETRIES=2                          /
//                          -DMAX_POLL_FAILURE_RETRIES=2 -DMAX_BCAST=9        /
//                          -DAPS_MAX_GROUPS=16 -DMAX_RTG_ENTRIES=40          /
//                          -DNWK_MAX_BINDING_ENTRIES=4                       /
//                          -DMAX_BINDING_CLUSTER_IDS=4                       /
//                          "-DDEFAULT_KEY={0x01, 0x03, 0x05, 0x07, 0x09,     /
//                          0x0B, 0x0D, 0x0F, 0x00, 0x02, 0x04, 0x06, 0x08,   /
//                          0x0A, 0x0C, 0x0D}" -DMAC_MAX_FRAME_SIZE=116       /
//                          "-DCONST=const __code" -DGENERIC=__generic        /
//                          -DRFD_RCVC_ALWAYS_ON=FALSE -DPOLL_RATE=1000       /
//                          -DQUEUED_POLL_RATE=100 -DRESPONSE_POLL_RATE=100)  /
//                          -DREJOIN_POLL_RATE=440 C:\Users\Administrator\Des /
//                          ktop\SmartHomeApp\Projects\zstack\Samples\SmartHo /
//                          meApp\Source\SmartHomeApp.c -D ZIGBEEPRO -D       /
//                          NWK_AUTO_POLL -D ZTOOL_P1 -D xMT_TASK -D          /
//                          xMT_SYS_FUNC -D xMT_ZDO_FUNC -D                   /
//                          LCD_SUPPORTED=DEBUG -D ENDDEVICE_FIREALARM -lC    /
//                          C:\Users\Administrator\Desktop\SmartHomeApp\Proje /
//                          cts\zstack\Samples\SmartHomeApp\CC2530DB\EndDevic /
//                          e_FireAlarm\List\ -lA C:\Users\Administrator\Desk /
//                          top\SmartHomeApp\Projects\zstack\Samples\SmartHom /
//                          eApp\CC2530DB\EndDevice_FireAlarm\List\           /
//                          --diag_suppress Pe001,Pa010 -o                    /
//                          C:\Users\Administrator\Desktop\SmartHomeApp\Proje /
//                          cts\zstack\Samples\SmartHomeApp\CC2530DB\EndDevic /
//                          e_FireAlarm\Obj\ -e --debug --core=plain          /
//                          --dptr=16,1 --data_model=large                    /
//                          --code_model=banked --calling_convention=xdata_re /
//                          entrant --place_constants=data_rom                /
//                          --nr_virtual_regs 16 -I                           /
//                          C:\Users\Administrator\Desktop\SmartHomeApp\Proje /
//                          cts\zstack\Samples\SmartHomeApp\CC2530DB\ -I      /
//                          C:\Users\Administrator\Desktop\SmartHomeApp\Proje /
//                          cts\zstack\Samples\SmartHomeApp\CC2530DB\..\SOURC /
//                          E\ -I C:\Users\Administrator\Desktop\SmartHomeApp /
//                          \Projects\zstack\Samples\SmartHomeApp\CC2530DB\.. /
//                          \..\..\ZMAIN\TI2530DB\ -I                         /
//                          C:\Users\Administrator\Desktop\SmartHomeApp\Proje /
//                          cts\zstack\Samples\SmartHomeApp\CC2530DB\..\..\.. /
//                          \..\..\COMPONENTS\MT\ -I                          /
//                          C:\Users\Administrator\Desktop\SmartHomeApp\Proje /
//                          cts\zstack\Samples\SmartHomeApp\CC2530DB\..\..\.. /
//                          \..\..\COMPONENTS\HAL\INCLUDE\ -I                 /
//                          C:\Users\Administrator\Desktop\SmartHomeApp\Proje /
//                          cts\zstack\Samples\SmartHomeApp\CC2530DB\..\..\.. /
//                          \..\..\COMPONENTS\HAL\TARGET\CC2530EB\ -I         /
//                          C:\Users\Administrator\Desktop\SmartHomeApp\Proje /
//                          cts\zstack\Samples\SmartHomeApp\CC2530DB\..\..\.. /
//                          \..\..\COMPONENTS\OSAL\MCU\CCSOC\ -I              /
//                          C:\Users\Administrator\Desktop\SmartHomeApp\Proje /
//                          cts\zstack\Samples\SmartHomeApp\CC2530DB\..\..\.. /
//                          \..\..\COMPONENTS\OSAL\INCLUDE\ -I                /
//                          C:\Users\Administrator\Desktop\SmartHomeApp\Proje /
//                          cts\zstack\Samples\SmartHomeApp\CC2530DB\..\..\.. /
//                          \..\..\COMPONENTS\STACK\AF\ -I                    /
//                          C:\Users\Administrator\Desktop\SmartHomeApp\Proje /
//                          cts\zstack\Samples\SmartHomeApp\CC2530DB\..\..\.. /
//                          \..\..\COMPONENTS\STACK\NWK\ -I                   /
//                          C:\Users\Administrator\Desktop\SmartHomeApp\Proje /
//                          cts\zstack\Samples\SmartHomeApp\CC2530DB\..\..\.. /
//                          \..\..\COMPONENTS\STACK\SEC\ -I                   /
//                          C:\Users\Administrator\Desktop\SmartHomeApp\Proje /
//                          cts\zstack\Samples\SmartHomeApp\CC2530DB\..\..\.. /
//                          \..\..\COMPONENTS\STACK\SAPI\ -I                  /
//                          C:\Users\Administrator\Desktop\SmartHomeApp\Proje /
//                          cts\zstack\Samples\SmartHomeApp\CC2530DB\..\..\.. /
//                          \..\..\COMPONENTS\STACK\SYS\ -I                   /
//                          C:\Users\Administrator\Desktop\SmartHomeApp\Proje /
//                          cts\zstack\Samples\SmartHomeApp\CC2530DB\..\..\.. /
//                          \..\..\COMPONENTS\STACK\ZDO\ -I                   /
//                          C:\Users\Administrator\Desktop\SmartHomeApp\Proje /
//                          cts\zstack\Samples\SmartHomeApp\CC2530DB\..\..\.. /
//                          \..\..\COMPONENTS\ZMAC\F8W\ -I                    /
//                          C:\Users\Administrator\Desktop\SmartHomeApp\Proje /
//                          cts\zstack\Samples\SmartHomeApp\CC2530DB\..\..\.. /
//                          \..\..\COMPONENTS\ZMAC\ -I                        /
//                          C:\Users\Administrator\Desktop\SmartHomeApp\Proje /
//                          cts\zstack\Samples\SmartHomeApp\CC2530DB\..\..\.. /
//                          \..\..\COMPONENTS\SERVICES\SADDR\ -I              /
//                          C:\Users\Administrator\Desktop\SmartHomeApp\Proje /
//                          cts\zstack\Samples\SmartHomeApp\CC2530DB\..\..\.. /
//                          \..\..\COMPONENTS\SERVICES\SDATA\ -I              /
//                          C:\Users\Administrator\Desktop\SmartHomeApp\Proje /
//                          cts\zstack\Samples\SmartHomeApp\CC2530DB\..\..\.. /
//                          \..\..\COMPONENTS\MAC\INCLUDE\ -I                 /
//                          C:\Users\Administrator\Desktop\SmartHomeApp\Proje /
//                          cts\zstack\Samples\SmartHomeApp\CC2530DB\..\..\.. /
//                          \..\..\COMPONENTS\MAC\HIGH_LEVEL\ -I              /
//                          C:\Users\Administrator\Desktop\SmartHomeApp\Proje /
//                          cts\zstack\Samples\SmartHomeApp\CC2530DB\..\..\.. /
//                          \..\..\COMPONENTS\MAC\LOW_LEVEL\srf04\ -I         /
//                          C:\Users\Administrator\Desktop\SmartHomeApp\Proje /
//                          cts\zstack\Samples\SmartHomeApp\CC2530DB\..\..\.. /
//                          \..\..\COMPONENTS\MAC\LOW_LEVEL\srf04\SINGLE_CHIP /
//                          \ -Ohz                                            /
//    List file          =  C:\Users\Administrator\Desktop\SmartHomeApp\Proje /
//                          cts\zstack\Samples\SmartHomeApp\CC2530DB\EndDevic /
//                          e_FireAlarm\List\SmartHomeApp.s51                 /
//                                                                            /
//                                                                            /
///////////////////////////////////////////////////////////////////////////////

        NAME SmartHomeApp

        RTMODEL "__SystemLibrary", "CLib"
        RTMODEL "__calling_convention", "xdata_reentrant"
        RTMODEL "__code_model", "banked"
        RTMODEL "__core", "plain"
        RTMODEL "__data_model", "large"
        RTMODEL "__dptr_size", "16"
        RTMODEL "__extended_stack", "disabled"
        RTMODEL "__location_for_constants", "data"
        RTMODEL "__number_of_dptrs", "1"
        RTMODEL "__rt_version", "1"

        RSEG DOVERLAY:DATA:NOROOT(0)
        RSEG IOVERLAY:IDATA:NOROOT(0)
        RSEG ISTACK:IDATA:NOROOT(0)
        RSEG PSTACK:XDATA:NOROOT(0)
        RSEG XSTACK:XDATA:NOROOT(0)

        EXTERN ?ALLOC_XSTACK8
        EXTERN ?BANKED_ENTER_XDATA
        EXTERN ?BANKED_LEAVE_XDATA
        EXTERN ?BDISPATCH
        EXTERN ?BRET
        EXTERN ?DEALLOC_XSTACK8
        EXTERN ?MOVE_LONG8_XDATA_XDATA
        EXTERN ?PUSH_XSTACK8_X
        EXTERN ?PUSH_XSTACK_I_ONE
        EXTERN ?PUSH_XSTACK_I_THREE
        EXTERN ?PUSH_XSTACK_I_TWO
        EXTERN ?SS_SHR
        EXTERN ?S_SHL
        EXTERN ?UC_SWITCH_SPARSE
        EXTERN ?US_SHR
        EXTERN ?V0
        EXTERN ?XLOAD_R2345
        EXTERN ?XSP
        EXTERN ?XSTACK_DISP0_8
        EXTERN __INIT_XDATA_Z

        PUBLIC ??SHCoordReveiceUartMsg?relay
        FUNCTION ??SHCoordReveiceUartMsg?relay,0203H
        PUBLIC ??SHCoordSendDHT11Msg?relay
        FUNCTION ??SHCoordSendDHT11Msg?relay,0203H
        PUBLIC ??SHCoordSendFireAlarmMsg?relay
        FUNCTION ??SHCoordSendFireAlarmMsg?relay,0203H
        PUBLIC ??SHCoordSendMacAddrMsg?relay
        FUNCTION ??SHCoordSendMacAddrMsg?relay,0203H
        PUBLIC ??SHCoordSendSmokeAlarmMsg?relay
        FUNCTION ??SHCoordSendSmokeAlarmMsg?relay,0203H
        PUBLIC ??SHCoordSendUartMsg?relay
        FUNCTION ??SHCoordSendUartMsg?relay,0203H
        PUBLIC ??SHEndPointReveiceAirConMsg?relay
        FUNCTION ??SHEndPointReveiceAirConMsg?relay,0203H
        PUBLIC ??SHEndPointSendDHT11Msg?relay
        FUNCTION ??SHEndPointSendDHT11Msg?relay,0203H
        PUBLIC ??SHEndPointSendFireAlarmMsg?relay
        FUNCTION ??SHEndPointSendFireAlarmMsg?relay,0203H
        PUBLIC ??SHEndPointSendMacAddrMsg?relay
        FUNCTION ??SHEndPointSendMacAddrMsg?relay,0203H
        PUBLIC ??SHEndPointSendSmokeAlarmMsg?relay
        FUNCTION ??SHEndPointSendSmokeAlarmMsg?relay,0203H
        PUBLIC ??SHIRSendDelay_10us?relay
        FUNCTION ??SHIRSendDelay_10us?relay,0203H
        PUBLIC ??SHIR_Sending?relay
        FUNCTION ??SHIR_Sending?relay,0203H
        PUBLIC ??SmartHomeApp_HandleKeys?relay
        FUNCTION ??SmartHomeApp_HandleKeys?relay,0203H
        PUBLIC ??SmartHomeApp_Init?relay
        FUNCTION ??SmartHomeApp_Init?relay,0203H
        PUBLIC ??SmartHomeApp_MessageMSGCB?relay
        FUNCTION ??SmartHomeApp_MessageMSGCB?relay,0203H
        PUBLIC ??SmartHomeApp_ProcessEvent?relay
        FUNCTION ??SmartHomeApp_ProcessEvent?relay,0203H
        PUBLIC ??SmartHomeApp_SendFlashMessage?relay
        FUNCTION ??SmartHomeApp_SendFlashMessage?relay,0203H
        PUBLIC ??SmartHomeApp_SendPeriodicMessage?relay
        FUNCTION ??SmartHomeApp_SendPeriodicMessage?relay,0203H
        PUBLIC ??SmartHomeApp_Send_P2P_Message?relay
        FUNCTION ??SmartHomeApp_Send_P2P_Message?relay,0203H
        PUBLIC ??callBackFunction?relay
        FUNCTION ??callBackFunction?relay,0203H
        PUBWEAK P0DIR
        PUBWEAK P0INP
        PUBWEAK P0SEL
        PUBLIC SHCoordReveiceUartMsg
        FUNCTION SHCoordReveiceUartMsg,021203H
        ARGFRAME XSTACK, 0, STACK
        LOCFRAME ISTACK, 1, STACK
        LOCFRAME XSTACK, 40, STACK
        PUBLIC SHCoordSendDHT11Msg
        FUNCTION SHCoordSendDHT11Msg,021203H
        ARGFRAME XSTACK, 12, STACK
        ARGFRAME IOVERLAY, 0, STATIC
        ARGFRAME DOVERLAY, 0, STATIC
        LOCFRAME ISTACK, 3, STACK
        LOCFRAME XSTACK, 50, STACK
        PUBLIC SHCoordSendFireAlarmMsg
        FUNCTION SHCoordSendFireAlarmMsg,021203H
        ARGFRAME XSTACK, 12, STACK
        ARGFRAME IOVERLAY, 0, STATIC
        ARGFRAME DOVERLAY, 0, STATIC
        LOCFRAME ISTACK, 3, STACK
        LOCFRAME XSTACK, 50, STACK
        PUBLIC SHCoordSendMacAddrMsg
        FUNCTION SHCoordSendMacAddrMsg,021203H
        ARGFRAME XSTACK, 12, STACK
        ARGFRAME IOVERLAY, 0, STATIC
        ARGFRAME DOVERLAY, 0, STATIC
        LOCFRAME ISTACK, 3, STACK
        LOCFRAME XSTACK, 50, STACK
        PUBLIC SHCoordSendSmokeAlarmMsg
        FUNCTION SHCoordSendSmokeAlarmMsg,021203H
        ARGFRAME XSTACK, 12, STACK
        ARGFRAME IOVERLAY, 0, STATIC
        ARGFRAME DOVERLAY, 0, STATIC
        LOCFRAME ISTACK, 3, STACK
        LOCFRAME XSTACK, 50, STACK
        PUBLIC SHCoordSendUartMsg
        FUNCTION SHCoordSendUartMsg,021203H
        ARGFRAME XSTACK, 50, STACK
        ARGFRAME IOVERLAY, 0, STATIC
        ARGFRAME DOVERLAY, 0, STATIC
        LOCFRAME ISTACK, 4, STACK
        LOCFRAME XSTACK, 50, STACK
        PUBLIC SHEndPointReveiceAirConMsg
        FUNCTION SHEndPointReveiceAirConMsg,021203H
        ARGFRAME XSTACK, 12, STACK
        ARGFRAME IOVERLAY, 0, STATIC
        ARGFRAME DOVERLAY, 0, STATIC
        LOCFRAME ISTACK, 1, STACK
        LOCFRAME XSTACK, 159, STACK
        PUBLIC SHEndPointSendDHT11Msg
        FUNCTION SHEndPointSendDHT11Msg,021203H
        ARGFRAME XSTACK, 10, STACK
        ARGFRAME IOVERLAY, 0, STATIC
        ARGFRAME DOVERLAY, 0, STATIC
        LOCFRAME ISTACK, 2, STACK
        LOCFRAME XSTACK, 34, STACK
        PUBLIC SHEndPointSendFireAlarmMsg
        FUNCTION SHEndPointSendFireAlarmMsg,021203H
        ARGFRAME XSTACK, 12, STACK
        ARGFRAME IOVERLAY, 0, STATIC
        ARGFRAME DOVERLAY, 0, STATIC
        LOCFRAME XSTACK, 28, STACK
        PUBLIC SHEndPointSendMacAddrMsg
        FUNCTION SHEndPointSendMacAddrMsg,021203H
        ARGFRAME XSTACK, 12, STACK
        ARGFRAME IOVERLAY, 0, STATIC
        ARGFRAME DOVERLAY, 0, STATIC
        LOCFRAME XSTACK, 19, STACK
        PUBLIC SHEndPointSendSmokeAlarmMsg
        FUNCTION SHEndPointSendSmokeAlarmMsg,021203H
        ARGFRAME XSTACK, 0, STACK
        LOCFRAME XSTACK, 28, STACK
        PUBLIC SHIRSendDelay_10us
        FUNCTION SHIRSendDelay_10us,0203H
        ARGFRAME XSTACK, 12, STACK
        ARGFRAME IOVERLAY, 0, STATIC
        ARGFRAME DOVERLAY, 0, STATIC
        PUBLIC SHIR_Sending
        FUNCTION SHIR_Sending,021203H
        ARGFRAME XSTACK, 157, STACK
        ARGFRAME IOVERLAY, 0, STATIC
        ARGFRAME DOVERLAY, 0, STATIC
        LOCFRAME XSTACK, 12, STACK
        PUBLIC SmartHomeAppFlashCounter
        PUBLIC SmartHomeAppPeriodicCounter
        PUBLIC SmartHomeApp_AirContidion_DstAddr
        PUBLIC SmartHomeApp_ClusterList
        PUBLIC SmartHomeApp_Flash_DstAddr
        PUBLIC SmartHomeApp_Group
        PUBLIC SmartHomeApp_HandleKeys
        FUNCTION SmartHomeApp_HandleKeys,021203H
        ARGFRAME XSTACK, 12, STACK
        ARGFRAME IOVERLAY, 0, STATIC
        ARGFRAME DOVERLAY, 0, STATIC
        LOCFRAME XSTACK, 10, STACK
        PUBLIC SmartHomeApp_Init
        FUNCTION SmartHomeApp_Init,021203H
        ARGFRAME XSTACK, 0, STACK
        LOCFRAME XSTACK, 14, STACK
        PUBLIC SmartHomeApp_MessageMSGCB
        FUNCTION SmartHomeApp_MessageMSGCB,0a1203H
        ARGFRAME XSTACK, 12, STACK
        ARGFRAME IOVERLAY, 0, STATIC
        ARGFRAME DOVERLAY, 0, STATIC
        LOCFRAME XSTACK, 12, STACK
        PUBLIC SmartHomeApp_NwkState
        PUBLIC SmartHomeApp_P2P_DstAddr
        PUBLIC SmartHomeApp_Periodic_DstAddr
        PUBLIC SmartHomeApp_ProcessEvent
        FUNCTION SmartHomeApp_ProcessEvent,021203H
        ARGFRAME XSTACK, 0, STACK
        LOCFRAME XSTACK, 12, STACK
        PUBLIC SmartHomeApp_SendFlashMessage
        FUNCTION SmartHomeApp_SendFlashMessage,0203H
        ARGFRAME XSTACK, 0, STACK
        PUBLIC SmartHomeApp_SendPeriodicMessage
        FUNCTION SmartHomeApp_SendPeriodicMessage,0203H
        ARGFRAME XSTACK, 0, STACK
        PUBLIC SmartHomeApp_Send_P2P_Message
        FUNCTION SmartHomeApp_Send_P2P_Message,0203H
        ARGFRAME XSTACK, 0, STACK
        PUBLIC SmartHomeApp_SimpleDesc
        PUBLIC SmartHomeApp_TaskID
        PUBLIC SmartHomeApp_TransID
        PUBLIC SmartHomeApp_epDesc
        PUBWEAK _A_IEN1
        PUBWEAK _A_P0
        PUBWEAK __Constant_d
        PUBLIC callBackFunction
        FUNCTION callBackFunction,0603H
        ARGFRAME XSTACK, 0, STACK
        PUBLIC `p`
        
        CFI Names cfiNames0
        CFI StackFrame CFA_SP SP IDATA
        CFI StackFrame CFA_PSP16 PSP16 XDATA
        CFI StackFrame CFA_XSP16 XSP16 XDATA
        CFI StaticOverlayFrame CFA_IOVERLAY IOVERLAY
        CFI StaticOverlayFrame CFA_DOVERLAY DOVERLAY
        CFI Resource `PSW.CY`:1, `B.BR0`:1, `B.BR1`:1, `B.BR2`:1, `B.BR3`:1
        CFI Resource `B.BR4`:1, `B.BR5`:1, `B.BR6`:1, `B.BR7`:1, `VB.BR8`:1
        CFI Resource `VB.BR9`:1, `VB.BR10`:1, `VB.BR11`:1, `VB.BR12`:1
        CFI Resource `VB.BR13`:1, `VB.BR14`:1, `VB.BR15`:1, VB:8, B:8, A:8
        CFI Resource PSW:8, DPL0:8, DPH0:8, R0:8, R1:8, R2:8, R3:8, R4:8, R5:8
        CFI Resource R6:8, R7:8, V0:8, V1:8, V2:8, V3:8, V4:8, V5:8, V6:8, V7:8
        CFI Resource V8:8, V9:8, V10:8, V11:8, V12:8, V13:8, V14:8, V15:8, SP:8
        CFI Resource PSPH:8, PSPL:8, PSP16:16, XSPH:8, XSPL:8, XSP16:16
        CFI VirtualResource ?RET:24
        CFI Resource ?BRET_EXT:8
        CFI VirtualResource ?RET_HIGH:8, ?RET_LOW:8
        CFI ResourceParts PSP16 PSPH, PSPL
        CFI ResourceParts XSP16 XSPH, XSPL
        CFI ResourceParts ?RET ?BRET_EXT, ?RET_HIGH, ?RET_LOW
        CFI EndNames cfiNames0
        
        CFI Common cfiCommon0 Using cfiNames0
        CFI CodeAlign 1
        CFI DataAlign -1
        CFI ReturnAddress ?RET CODE
        CFI CFA_DOVERLAY Used
        CFI CFA_IOVERLAY Used
        CFI CFA_SP SP+-3
        CFI CFA_PSP16 PSP16+0
        CFI CFA_XSP16 XSP16+0
        CFI `PSW.CY` SameValue
        CFI `B.BR0` SameValue
        CFI `B.BR1` SameValue
        CFI `B.BR2` SameValue
        CFI `B.BR3` SameValue
        CFI `B.BR4` SameValue
        CFI `B.BR5` SameValue
        CFI `B.BR6` SameValue
        CFI `B.BR7` SameValue
        CFI `VB.BR8` SameValue
        CFI `VB.BR9` SameValue
        CFI `VB.BR10` SameValue
        CFI `VB.BR11` SameValue
        CFI `VB.BR12` SameValue
        CFI `VB.BR13` SameValue
        CFI `VB.BR14` SameValue
        CFI `VB.BR15` SameValue
        CFI VB SameValue
        CFI B Undefined
        CFI A Undefined
        CFI PSW SameValue
        CFI DPL0 SameValue
        CFI DPH0 SameValue
        CFI R0 Undefined
        CFI R1 Undefined
        CFI R2 Undefined
        CFI R3 Undefined
        CFI R4 Undefined
        CFI R5 Undefined
        CFI R6 SameValue
        CFI R7 SameValue
        CFI V0 SameValue
        CFI V1 SameValue
        CFI V2 SameValue
        CFI V3 SameValue
        CFI V4 SameValue
        CFI V5 SameValue
        CFI V6 SameValue
        CFI V7 SameValue
        CFI V8 SameValue
        CFI V9 SameValue
        CFI V10 SameValue
        CFI V11 SameValue
        CFI V12 SameValue
        CFI V13 SameValue
        CFI V14 SameValue
        CFI V15 SameValue
        CFI PSPH Undefined
        CFI PSPL Undefined
        CFI XSPH Undefined
        CFI XSPL Undefined
        CFI ?RET Concat
        CFI ?BRET_EXT Frame(CFA_SP, 3)
        CFI ?RET_HIGH Frame(CFA_SP, 2)
        CFI ?RET_LOW Frame(CFA_SP, 1)
        CFI EndCommon cfiCommon0
        
        
        CFI Common cfiCommon1 Using cfiNames0
        CFI CodeAlign 1
        CFI DataAlign -1
        CFI ReturnAddress ?RET CODE
        CFI CFA_DOVERLAY Used
        CFI CFA_IOVERLAY Used
        CFI CFA_SP SP+-2
        CFI CFA_PSP16 PSP16+0
        CFI CFA_XSP16 XSP16+0
        CFI `PSW.CY` SameValue
        CFI `B.BR0` SameValue
        CFI `B.BR1` SameValue
        CFI `B.BR2` SameValue
        CFI `B.BR3` SameValue
        CFI `B.BR4` SameValue
        CFI `B.BR5` SameValue
        CFI `B.BR6` SameValue
        CFI `B.BR7` SameValue
        CFI `VB.BR8` SameValue
        CFI `VB.BR9` SameValue
        CFI `VB.BR10` SameValue
        CFI `VB.BR11` SameValue
        CFI `VB.BR12` SameValue
        CFI `VB.BR13` SameValue
        CFI `VB.BR14` SameValue
        CFI `VB.BR15` SameValue
        CFI VB SameValue
        CFI B SameValue
        CFI A SameValue
        CFI PSW SameValue
        CFI DPL0 SameValue
        CFI DPH0 SameValue
        CFI R0 SameValue
        CFI R1 SameValue
        CFI R2 SameValue
        CFI R3 SameValue
        CFI R4 SameValue
        CFI R5 SameValue
        CFI R6 SameValue
        CFI R7 SameValue
        CFI V0 SameValue
        CFI V1 SameValue
        CFI V2 SameValue
        CFI V3 SameValue
        CFI V4 SameValue
        CFI V5 SameValue
        CFI V6 SameValue
        CFI V7 SameValue
        CFI V8 SameValue
        CFI V9 SameValue
        CFI V10 SameValue
        CFI V11 SameValue
        CFI V12 SameValue
        CFI V13 SameValue
        CFI V14 SameValue
        CFI V15 SameValue
        CFI PSPH Undefined
        CFI PSPL Undefined
        CFI XSPH Undefined
        CFI XSPL Undefined
        CFI ?RET Concat
        CFI ?BRET_EXT SameValue
        CFI ?RET_HIGH Frame(CFA_SP, 2)
        CFI ?RET_LOW Frame(CFA_SP, 1)
        CFI EndCommon cfiCommon1
        
MT_UartInit         SYMBOL "MT_UartInit"
MT_UartRegisterTaskID SYMBOL "MT_UartRegisterTaskID"
HalTimerInit        SYMBOL "HalTimerInit"
HalTimerConfig      SYMBOL "HalTimerConfig"
HalTimerStart       SYMBOL "HalTimerStart"
afRegister          SYMBOL "afRegister"
RegisterForKeys     SYMBOL "RegisterForKeys"
osal_memcpy         SYMBOL "osal_memcpy"
aps_AddGroup        SYMBOL "aps_AddGroup"
HalLcdWriteString   SYMBOL "HalLcdWriteString"
osal_msg_receive    SYMBOL "osal_msg_receive"
osal_start_timerEx  SYMBOL "osal_start_timerEx"
osal_msg_deallocate SYMBOL "osal_msg_deallocate"
osal_rand           SYMBOL "osal_rand"
aps_FindGroup       SYMBOL "aps_FindGroup"
aps_RemoveGroup     SYMBOL "aps_RemoveGroup"
HalUARTWrite        SYMBOL "HalUARTWrite"
HalLedBlink         SYMBOL "HalLedBlink"
AF_DataRequest      SYMBOL "AF_DataRequest"
DHT11               SYMBOL "DHT11"
DelayMS             SYMBOL "DelayMS"
memset              SYMBOL "memset"
??AF_DataRequest?relay SYMBOL "?relay", AF_DataRequest
??DHT11?relay       SYMBOL "?relay", DHT11
??DelayMS?relay     SYMBOL "?relay", DelayMS
??HalLcdWriteString?relay SYMBOL "?relay", HalLcdWriteString
??HalLedBlink?relay SYMBOL "?relay", HalLedBlink
??HalTimerConfig?relay SYMBOL "?relay", HalTimerConfig
??HalTimerInit?relay SYMBOL "?relay", HalTimerInit
??HalTimerStart?relay SYMBOL "?relay", HalTimerStart
??HalUARTWrite?relay SYMBOL "?relay", HalUARTWrite
??MT_UartInit?relay SYMBOL "?relay", MT_UartInit
??MT_UartRegisterTaskID?relay SYMBOL "?relay", MT_UartRegisterTaskID
??RegisterForKeys?relay SYMBOL "?relay", RegisterForKeys
??afRegister?relay  SYMBOL "?relay", afRegister
??aps_AddGroup?relay SYMBOL "?relay", aps_AddGroup
??aps_FindGroup?relay SYMBOL "?relay", aps_FindGroup
??aps_RemoveGroup?relay SYMBOL "?relay", aps_RemoveGroup
??memset?relay      SYMBOL "?relay", memset
??osal_memcpy?relay SYMBOL "?relay", osal_memcpy
??osal_msg_deallocate?relay SYMBOL "?relay", osal_msg_deallocate
??osal_msg_receive?relay SYMBOL "?relay", osal_msg_receive
??osal_rand?relay   SYMBOL "?relay", osal_rand
??osal_start_timerEx?relay SYMBOL "?relay", osal_start_timerEx
SHCoordReveiceUartMsg SYMBOL "SHCoordReveiceUartMsg"
??SHCoordReveiceUartMsg?relay SYMBOL "?relay", SHCoordReveiceUartMsg
SHCoordSendDHT11Msg SYMBOL "SHCoordSendDHT11Msg"
??SHCoordSendDHT11Msg?relay SYMBOL "?relay", SHCoordSendDHT11Msg
SHCoordSendFireAlarmMsg SYMBOL "SHCoordSendFireAlarmMsg"
??SHCoordSendFireAlarmMsg?relay SYMBOL "?relay", SHCoordSendFireAlarmMsg
SHCoordSendMacAddrMsg SYMBOL "SHCoordSendMacAddrMsg"
??SHCoordSendMacAddrMsg?relay SYMBOL "?relay", SHCoordSendMacAddrMsg
SHCoordSendSmokeAlarmMsg SYMBOL "SHCoordSendSmokeAlarmMsg"
??SHCoordSendSmokeAlarmMsg?relay SYMBOL "?relay", SHCoordSendSmokeAlarmMsg
SHCoordSendUartMsg  SYMBOL "SHCoordSendUartMsg"
??SHCoordSendUartMsg?relay SYMBOL "?relay", SHCoordSendUartMsg
SHEndPointReveiceAirConMsg SYMBOL "SHEndPointReveiceAirConMsg"
??SHEndPointReveiceAirConMsg?relay SYMBOL "?relay", SHEndPointReveiceAirConMsg
SHEndPointSendDHT11Msg SYMBOL "SHEndPointSendDHT11Msg"
??SHEndPointSendDHT11Msg?relay SYMBOL "?relay", SHEndPointSendDHT11Msg
SHEndPointSendFireAlarmMsg SYMBOL "SHEndPointSendFireAlarmMsg"
??SHEndPointSendFireAlarmMsg?relay SYMBOL "?relay", SHEndPointSendFireAlarmMsg
SHEndPointSendMacAddrMsg SYMBOL "SHEndPointSendMacAddrMsg"
??SHEndPointSendMacAddrMsg?relay SYMBOL "?relay", SHEndPointSendMacAddrMsg
SHEndPointSendSmokeAlarmMsg SYMBOL "SHEndPointSendSmokeAlarmMsg"
??SHEndPointSendSmokeAlarmMsg?relay SYMBOL "?relay", SHEndPointSendSmokeAlarmMsg
SHIRSendDelay_10us  SYMBOL "SHIRSendDelay_10us"
??SHIRSendDelay_10us?relay SYMBOL "?relay", SHIRSendDelay_10us
SHIR_Sending        SYMBOL "SHIR_Sending"
??SHIR_Sending?relay SYMBOL "?relay", SHIR_Sending
SmartHomeApp_HandleKeys SYMBOL "SmartHomeApp_HandleKeys"
??SmartHomeApp_HandleKeys?relay SYMBOL "?relay", SmartHomeApp_HandleKeys
SmartHomeApp_Init   SYMBOL "SmartHomeApp_Init"
??SmartHomeApp_Init?relay SYMBOL "?relay", SmartHomeApp_Init
SmartHomeApp_MessageMSGCB SYMBOL "SmartHomeApp_MessageMSGCB"
??SmartHomeApp_MessageMSGCB?relay SYMBOL "?relay", SmartHomeApp_MessageMSGCB
SmartHomeApp_ProcessEvent SYMBOL "SmartHomeApp_ProcessEvent"
??SmartHomeApp_ProcessEvent?relay SYMBOL "?relay", SmartHomeApp_ProcessEvent
SmartHomeApp_SendFlashMessage SYMBOL "SmartHomeApp_SendFlashMessage"
??SmartHomeApp_SendFlashMessage?relay SYMBOL "?relay", SmartHomeApp_SendFlashMessage
SmartHomeApp_SendPeriodicMessage SYMBOL "SmartHomeApp_SendPeriodicMessage"
??SmartHomeApp_SendPeriodicMessage?relay SYMBOL "?relay", SmartHomeApp_SendPeriodicMessage
SmartHomeApp_Send_P2P_Message SYMBOL "SmartHomeApp_Send_P2P_Message"
??SmartHomeApp_Send_P2P_Message?relay SYMBOL "?relay", SmartHomeApp_Send_P2P_Message
callBackFunction    SYMBOL "callBackFunction"
??callBackFunction?relay SYMBOL "?relay", callBackFunction

        EXTERN MT_UartInit
        FUNCTION MT_UartInit,0202H
        ARGFRAME ISTACK, 0, STACK
        ARGFRAME PSTACK, 0, STACK
        ARGFRAME XSTACK, 11, STACK
        ARGFRAME IOVERLAY, 0, STATIC
        ARGFRAME DOVERLAY, 0, STATIC
        EXTERN MT_UartRegisterTaskID
        FUNCTION MT_UartRegisterTaskID,0202H
        ARGFRAME ISTACK, 0, STACK
        ARGFRAME PSTACK, 0, STACK
        ARGFRAME XSTACK, 11, STACK
        ARGFRAME IOVERLAY, 0, STATIC
        ARGFRAME DOVERLAY, 0, STATIC
        EXTERN HalTimerInit
        FUNCTION HalTimerInit,0202H
        ARGFRAME ISTACK, 0, STACK
        ARGFRAME PSTACK, 0, STACK
        ARGFRAME XSTACK, 11, STACK
        ARGFRAME IOVERLAY, 0, STATIC
        ARGFRAME DOVERLAY, 0, STATIC
        EXTERN HalTimerConfig
        FUNCTION HalTimerConfig,0202H
        ARGFRAME ISTACK, 0, STACK
        ARGFRAME PSTACK, 0, STACK
        ARGFRAME XSTACK, 13, STACK
        ARGFRAME IOVERLAY, 0, STATIC
        ARGFRAME DOVERLAY, 0, STATIC
        EXTERN HalTimerStart
        FUNCTION HalTimerStart,0202H
        ARGFRAME ISTACK, 0, STACK
        ARGFRAME PSTACK, 0, STACK
        ARGFRAME XSTACK, 11, STACK
        ARGFRAME IOVERLAY, 0, STATIC
        ARGFRAME DOVERLAY, 0, STATIC
        EXTERN afRegister
        FUNCTION afRegister,0202H
        ARGFRAME ISTACK, 0, STACK
        ARGFRAME PSTACK, 0, STACK
        ARGFRAME XSTACK, 11, STACK
        ARGFRAME IOVERLAY, 0, STATIC
        ARGFRAME DOVERLAY, 0, STATIC
        EXTERN RegisterForKeys
        FUNCTION RegisterForKeys,0202H
        ARGFRAME ISTACK, 0, STACK
        ARGFRAME PSTACK, 0, STACK
        ARGFRAME XSTACK, 11, STACK
        ARGFRAME IOVERLAY, 0, STATIC
        ARGFRAME DOVERLAY, 0, STATIC
        EXTERN osal_memcpy
        FUNCTION osal_memcpy,0202H
        ARGFRAME ISTACK, 0, STACK
        ARGFRAME PSTACK, 0, STACK
        ARGFRAME XSTACK, 28, STACK
        ARGFRAME IOVERLAY, 0, STATIC
        ARGFRAME DOVERLAY, 0, STATIC
        EXTERN aps_AddGroup
        FUNCTION aps_AddGroup,0202H
        ARGFRAME ISTACK, 0, STACK
        ARGFRAME PSTACK, 0, STACK
        ARGFRAME XSTACK, 11, STACK
        ARGFRAME IOVERLAY, 0, STATIC
        ARGFRAME DOVERLAY, 0, STATIC
        EXTERN HalLcdWriteString
        FUNCTION HalLcdWriteString,0202H
        ARGFRAME ISTACK, 0, STACK
        ARGFRAME PSTACK, 0, STACK
        ARGFRAME XSTACK, 11, STACK
        ARGFRAME IOVERLAY, 0, STATIC
        ARGFRAME DOVERLAY, 0, STATIC
        EXTERN osal_msg_receive
        FUNCTION osal_msg_receive,0202H
        ARGFRAME ISTACK, 0, STACK
        ARGFRAME PSTACK, 0, STACK
        ARGFRAME XSTACK, 12, STACK
        ARGFRAME IOVERLAY, 0, STATIC
        ARGFRAME DOVERLAY, 0, STATIC
        EXTERN osal_start_timerEx
        FUNCTION osal_start_timerEx,0202H
        ARGFRAME ISTACK, 0, STACK
        ARGFRAME PSTACK, 0, STACK
        ARGFRAME XSTACK, 12, STACK
        ARGFRAME IOVERLAY, 0, STATIC
        ARGFRAME DOVERLAY, 0, STATIC
        EXTERN osal_msg_deallocate
        FUNCTION osal_msg_deallocate,0202H
        ARGFRAME ISTACK, 0, STACK
        ARGFRAME PSTACK, 0, STACK
        ARGFRAME XSTACK, 12, STACK
        ARGFRAME IOVERLAY, 0, STATIC
        ARGFRAME DOVERLAY, 0, STATIC
        EXTERN osal_rand
        FUNCTION osal_rand,0202H
        ARGFRAME ISTACK, 0, STACK
        ARGFRAME PSTACK, 0, STACK
        ARGFRAME XSTACK, 12, STACK
        ARGFRAME IOVERLAY, 0, STATIC
        ARGFRAME DOVERLAY, 0, STATIC
        EXTERN aps_FindGroup
        FUNCTION aps_FindGroup,0202H
        ARGFRAME ISTACK, 0, STACK
        ARGFRAME PSTACK, 0, STACK
        ARGFRAME XSTACK, 10, STACK
        ARGFRAME IOVERLAY, 0, STATIC
        ARGFRAME DOVERLAY, 0, STATIC
        EXTERN aps_RemoveGroup
        FUNCTION aps_RemoveGroup,0202H
        ARGFRAME ISTACK, 0, STACK
        ARGFRAME PSTACK, 0, STACK
        ARGFRAME XSTACK, 10, STACK
        ARGFRAME IOVERLAY, 0, STATIC
        ARGFRAME DOVERLAY, 0, STATIC
        EXTERN HalUARTWrite
        FUNCTION HalUARTWrite,0202H
        ARGFRAME ISTACK, 2, STACK
        ARGFRAME PSTACK, 0, STACK
        ARGFRAME XSTACK, 50, STACK
        ARGFRAME IOVERLAY, 0, STATIC
        ARGFRAME DOVERLAY, 0, STATIC
        EXTERN HalLedBlink
        FUNCTION HalLedBlink,0202H
        ARGFRAME ISTACK, 0, STACK
        ARGFRAME PSTACK, 0, STACK
        ARGFRAME XSTACK, 12, STACK
        ARGFRAME IOVERLAY, 0, STATIC
        ARGFRAME DOVERLAY, 0, STATIC
        EXTERN AF_DataRequest
        FUNCTION AF_DataRequest,0202H
        ARGFRAME ISTACK, 0, STACK
        ARGFRAME PSTACK, 0, STACK
        ARGFRAME XSTACK, 40, STACK
        ARGFRAME IOVERLAY, 0, STATIC
        ARGFRAME DOVERLAY, 0, STATIC
        EXTERN DHT11
        FUNCTION DHT11,0202H
        ARGFRAME ISTACK, 0, STACK
        ARGFRAME PSTACK, 0, STACK
        ARGFRAME XSTACK, 25, STACK
        ARGFRAME IOVERLAY, 0, STATIC
        ARGFRAME DOVERLAY, 0, STATIC
        EXTERN DelayMS
        FUNCTION DelayMS,0200H
        ARGFRAME ISTACK, 0, STACK
        ARGFRAME PSTACK, 0, STACK
        ARGFRAME XSTACK, 19, STACK
        ARGFRAME IOVERLAY, 0, STATIC
        ARGFRAME DOVERLAY, 0, STATIC
        EXTERN memset
        FUNCTION memset,010202H
        ARGFRAME ISTACK, 0, STACK
        ARGFRAME PSTACK, 0, STACK
        ARGFRAME XSTACK, 159, STACK
        ARGFRAME IOVERLAY, 0, STATIC
        ARGFRAME DOVERLAY, 0, STATIC
        EXTERN ??AF_DataRequest?relay
        FUNCTION ??AF_DataRequest?relay,00H
        EXTERN ??DHT11?relay
        FUNCTION ??DHT11?relay,00H
        EXTERN ??DelayMS?relay
        FUNCTION ??DelayMS?relay,00H
        EXTERN ??HalLcdWriteString?relay
        FUNCTION ??HalLcdWriteString?relay,00H
        EXTERN ??HalLedBlink?relay
        FUNCTION ??HalLedBlink?relay,00H
        EXTERN ??HalTimerConfig?relay
        FUNCTION ??HalTimerConfig?relay,00H
        EXTERN ??HalTimerInit?relay
        FUNCTION ??HalTimerInit?relay,00H
        EXTERN ??HalTimerStart?relay
        FUNCTION ??HalTimerStart?relay,00H
        EXTERN ??HalUARTWrite?relay
        FUNCTION ??HalUARTWrite?relay,00H
        EXTERN ??MT_UartInit?relay
        FUNCTION ??MT_UartInit?relay,00H
        EXTERN ??MT_UartRegisterTaskID?relay
        FUNCTION ??MT_UartRegisterTaskID?relay,00H
        EXTERN ??RegisterForKeys?relay
        FUNCTION ??RegisterForKeys?relay,00H
        EXTERN ??afRegister?relay
        FUNCTION ??afRegister?relay,00H
        EXTERN ??aps_AddGroup?relay
        FUNCTION ??aps_AddGroup?relay,00H
        EXTERN ??aps_FindGroup?relay
        FUNCTION ??aps_FindGroup?relay,00H
        EXTERN ??aps_RemoveGroup?relay
        FUNCTION ??aps_RemoveGroup?relay,00H
        EXTERN ??memset?relay
        FUNCTION ??memset?relay,00H
        EXTERN ??osal_memcpy?relay
        FUNCTION ??osal_memcpy?relay,00H
        EXTERN ??osal_msg_deallocate?relay
        FUNCTION ??osal_msg_deallocate?relay,00H
        EXTERN ??osal_msg_receive?relay
        FUNCTION ??osal_msg_receive?relay,00H
        EXTERN ??osal_rand?relay
        FUNCTION ??osal_rand?relay,00H
        EXTERN ??osal_start_timerEx?relay
        FUNCTION ??osal_start_timerEx?relay,00H
        EXTERN aExtendedAddress
        EXTERN shidu_ge
        EXTERN shidu_shi
        EXTERN wendu_ge
        EXTERN wendu_shi

// C:\Users\Administrator\Desktop\SmartHomeApp\Projects\zstack\Samples\SmartHomeApp\Source\SmartHomeApp.c
//    1 /**************************************************************************************************
//    2   Filename:       SmartHomeApp.c
//    3   Revised:        $Date: 2009-03-18 15:56:27 -0700 (Wed, 18 Mar 2009) $
//    4   Revision:       $Revision: 19453 $
//    5 
//    6   Description:    Sample Application (no Profile).
//    7 
//    8 
//    9   Copyright 2007 Texas Instruments Incorporated. All rights reserved.
//   10 
//   11   IMPORTANT: Your use of this Software is limited to those specific rights
//   12   granted under the terms of a software license agreement between the user
//   13   who downloaded the software, his/her employer (which must be your employer)
//   14   and Texas Instruments Incorporated (the "License").  You may not use this
//   15   Software unless you agree to abide by the terms of the License. The License
//   16   limits your use, and you acknowledge, that the Software may not be modified,
//   17   copied or distributed unless embedded on a Texas Instruments microcontroller
//   18   or used solely and exclusively in conjunction with a Texas Instruments radio
//   19   frequency transceiver, which is integrated into your product.  Other than for
//   20   the foregoing purpose, you may not use, reproduce, copy, prepare derivative
//   21   works of, modify, distribute, perform, display or sell this Software and/or
//   22   its documentation for any purpose.
//   23 
//   24   YOU FURTHER ACKNOWLEDGE AND AGREE THAT THE SOFTWARE AND DOCUMENTATION ARE
//   25   PROVIDED AS IS?WITHOUT WARRANTY OF ANY KIND, EITHER EXPRESS OR IMPLIED,
//   26   INCLUDING WITHOUT LIMITATION, ANY WARRANTY OF MERCHANTABILITY, TITLE,
//   27   NON-INFRINGEMENT AND FITNESS FOR A PARTICULAR PURPOSE. IN NO EVENT SHALL
//   28   TEXAS INSTRUMENTS OR ITS LICENSORS BE LIABLE OR OBLIGATED UNDER CONTRACT,
//   29   NEGLIGENCE, STRICT LIABILITY, CONTRIBUTION, BREACH OF WARRANTY, OR OTHER
//   30   LEGAL EQUITABLE THEORY ANY DIRECT OR INDIRECT DAMAGES OR EXPENSES
//   31   INCLUDING BUT NOT LIMITED TO ANY INCIDENTAL, SPECIAL, INDIRECT, PUNITIVE
//   32   OR CONSEQUENTIAL DAMAGES, LOST PROFITS OR LOST DATA, COST OF PROCUREMENT
//   33   OF SUBSTITUTE GOODS, TECHNOLOGY, SERVICES, OR ANY CLAIMS BY THIRD PARTIES
//   34   (INCLUDING BUT NOT LIMITED TO ANY DEFENSE THEREOF), OR OTHER SIMILAR COSTS.
//   35 
//   36   Should you have any questions regarding your right to use this Software,
//   37   contact Texas Instruments Incorporated at www.TI.com.
//   38 **************************************************************************************************/
//   39 
//   40 /*********************************************************************
//   41   This application isn't intended to do anything useful, it is
//   42   intended to be a simple example of an application's structure.
//   43 
//   44   This application sends it's messages either as broadcast or
//   45   broadcast filtered group messages.  The other (more normal)
//   46   message addressing is unicast.  Most of the other sample
//   47   applications are written to support the unicast message model.
//   48 
//   49   Key control:
//   50     SW1:  Sends a flash command to all devices in Group 1.
//   51     SW2:  Adds/Removes (toggles) this device in and out
//   52           of Group 1.  This will enable and disable the
//   53           reception of the flash command.
//   54 *********************************************************************/
//   55 
//   56 /*********************************************************************
//   57  * INCLUDES
//   58  */
//   59 #include "OSAL.h"
//   60 #include "ZGlobals.h"
//   61 #include "AF.h"
//   62 #include "aps_groups.h"
//   63 #include "ZDApp.h"
//   64 
//   65 #include "SmartHomeApp.h"

        ASEGN SFR_AN:DATA:NOROOT,080H
// union <unnamed> volatile __sfr _A_P0
_A_P0:
        DATA8
        DS 1

        ASEGN SFR_AN:DATA:NOROOT,08fH
// unsigned char volatile __sfr P0INP
P0INP:
        DATA8
        DS 1

        ASEGN SFR_AN:DATA:NOROOT,0b8H
// union <unnamed> volatile __sfr _A_IEN1
_A_IEN1:
        DATA8
        DS 1

        ASEGN SFR_AN:DATA:NOROOT,0f3H
// unsigned char volatile __sfr P0SEL
P0SEL:
        DATA8
        DS 1

        ASEGN SFR_AN:DATA:NOROOT,0fdH
// unsigned char volatile __sfr P0DIR
P0DIR:
        DATA8
        DS 1
//   66 #include "SmartHomeAppHw.h"
//   67 
//   68 #include "OnBoard.h"
//   69 
//   70 /* HAL */
//   71 #include "hal_lcd.h"
//   72 #include "hal_led.h"
//   73 #include "hal_key.h"
//   74 #include "MT_UART.h"
//   75 #include "MT_APP.h"
//   76 #include "MT.h"
//   77 #include "stdio.h"
//   78 #include "string.h"
//   79 #include "DHT11.h"
//   80 #include "hal_types.h"
//   81 
//   82 /*********************************************************************
//   83  * MACROS
//   84  */
//   85 
//   86 /*********************************************************************
//   87  * CONSTANTS
//   88  */
//   89 
//   90 /*********************************************************************
//   91  * TYPEDEFS
//   92  */
//   93 
//   94 /*********************************************************************
//   95  * GLOBAL VARIABLES
//   96  */
//   97 
//   98 // This list should be filled with Application specific Cluster IDs.

        RSEG XDATA_ROM_C:CONST:REORDER:NOROOT(0)
        DATA32
//   99 const cId_t SmartHomeApp_ClusterList[SMARTHOMEAPP_MAX_CLUSTERS] =
SmartHomeApp_ClusterList:
        DATA16
        DW 101
        DW 102
//  100 {
//  101   SMARTHOMEAPP_PERIODIC_CLUSTERID,
//  102   SMARTHOMEAPP_FLASH_CLUSTERID
//  103 };
//  104 

        RSEG XDATA_ROM_C:CONST:REORDER:NOROOT(0)
        DATA8
//  105 const SimpleDescriptionFormat_t SmartHomeApp_SimpleDesc =
SmartHomeApp_SimpleDesc:
        DB 20
        DATA16
        DW 3848
        DW 1
        DATA8
        DB 0
        DB 2
        DATA16
        DW SmartHomeApp_ClusterList
        DATA8
        DB 2
        DATA16
        DW SmartHomeApp_ClusterList
//  106 {
//  107   SMARTHOMEAPP_ENDPOINT,              //  int Endpoint;
//  108   SMARTHOMEAPP_PROFID,                //  uint16 AppProfId[2];
//  109   SMARTHOMEAPP_DEVICEID,              //  uint16 AppDeviceId[2];
//  110   SMARTHOMEAPP_DEVICE_VERSION,        //  int   AppDevVer:4;
//  111   SMARTHOMEAPP_FLAGS,                 //  int   AppFlags:4;
//  112   SMARTHOMEAPP_MAX_CLUSTERS,          //  uint8  AppNumInClusters;
//  113   (cId_t *)SmartHomeApp_ClusterList,  //  uint8 *pAppInClusterList;
//  114   SMARTHOMEAPP_MAX_CLUSTERS,          //  uint8  AppNumInClusters;
//  115   (cId_t *)SmartHomeApp_ClusterList   //  uint8 *pAppInClusterList;
//  116 };
//  117 
//  118 // This is the Endpoint/Interface description.  It is defined here, but
//  119 // filled-in in SmartHomeApp_Init().  Another way to go would be to fill
//  120 // in the structure here and make it a "const" (in code space).  The
//  121 // way it's defined in this sample app it is define in RAM.

        RSEG XDATA_Z:XDATA:NOROOT(0)
        DATA8
//  122 endPointDesc_t SmartHomeApp_epDesc;
SmartHomeApp_epDesc:
        DS 6
        REQUIRE __INIT_XDATA_Z
//  123 
//  124 /*********************************************************************
//  125  * EXTERNAL VARIABLES
//  126  */
//  127 
//  128 /*********************************************************************
//  129  * EXTERNAL FUNCTIONS
//  130  */
//  131 
//  132 /*********************************************************************
//  133  * LOCAL VARIABLES
//  134  */

        RSEG XDATA_Z:XDATA:NOROOT(0)
        DATA8
//  135 uint8 SmartHomeApp_TaskID;   // Task ID for internal task/event processing
SmartHomeApp_TaskID:
        DS 1
        REQUIRE __INIT_XDATA_Z
//  136                           // This variable will be received when
//  137                           // SmartHomeApp_Init() is called.

        RSEG XDATA_Z:XDATA:NOROOT(0)
        DATA8
//  138 devStates_t SmartHomeApp_NwkState;
SmartHomeApp_NwkState:
        DS 1
        REQUIRE __INIT_XDATA_Z
//  139 

        RSEG XDATA_Z:XDATA:NOROOT(0)
        DATA8
//  140 uint8 SmartHomeApp_TransID;  // This is the unique message ID (counter)
SmartHomeApp_TransID:
        DS 1
        REQUIRE __INIT_XDATA_Z
//  141 

        RSEG XDATA_Z:XDATA:NOROOT(0)
        DATA8
//  142 afAddrType_t SmartHomeApp_Periodic_DstAddr; //广播
SmartHomeApp_Periodic_DstAddr:
        DS 12
        REQUIRE __INIT_XDATA_Z

        RSEG XDATA_Z:XDATA:NOROOT(0)
        DATA8
//  143 afAddrType_t SmartHomeApp_Flash_DstAddr;    //组播
SmartHomeApp_Flash_DstAddr:
        DS 12
        REQUIRE __INIT_XDATA_Z

        RSEG XDATA_Z:XDATA:NOROOT(0)
        DATA8
//  144 afAddrType_t SmartHomeApp_P2P_DstAddr;      //点播
SmartHomeApp_P2P_DstAddr:
        DS 12
        REQUIRE __INIT_XDATA_Z
//  145 
//  146 

        RSEG XDATA_Z:XDATA:NOROOT(0)
        DATA8
//  147 afAddrType_t SmartHomeApp_AirContidion_DstAddr;
SmartHomeApp_AirContidion_DstAddr:
        DS 12
        REQUIRE __INIT_XDATA_Z
//  148 

        RSEG XDATA_Z:XDATA:NOROOT(0)
        DATA8
//  149 aps_Group_t SmartHomeApp_Group;
SmartHomeApp_Group:
        DS 18
        REQUIRE __INIT_XDATA_Z
//  150 

        RSEG XDATA_Z:XDATA:NOROOT(0)
        DATA8
//  151 uint8 SmartHomeAppPeriodicCounter = 0;
SmartHomeAppPeriodicCounter:
        DS 1
        REQUIRE __INIT_XDATA_Z

        RSEG XDATA_Z:XDATA:NOROOT(0)
        DATA8
//  152 uint8 SmartHomeAppFlashCounter = 0;
SmartHomeAppFlashCounter:
        DS 1
        REQUIRE __INIT_XDATA_Z
//  153 
//  154 /*********************************************************************
//  155  * LOCAL FUNCTIONS
//  156  */
//  157 void SmartHomeApp_HandleKeys( uint8 shift, uint8 keys );
//  158 void SmartHomeApp_MessageMSGCB( afIncomingMSGPacket_t *pckt );
//  159 void SmartHomeApp_SendPeriodicMessage( void );
//  160 void SmartHomeApp_SendFlashMessage( uint16 flashTime );
//  161 void SmartHomeApp_Send_P2P_Message(void);
//  162 /*********************************************************************
//  163  * SMARTHOME FUNCTIONS
//  164  */
//  165 
//  166 void SHCoordSendUartMsg(uartSendMsg msg);
//  167 void SHCoordReveiceUartMsg(uint8 *receiveMsg,uint16 len);
//  168 
//  169 
//  170 
//  171  void SHEndPointSendMacAddrMsg(void);
//  172  void SHEndPointSendDHT11Msg(void);
//  173  void SHEndPointSendFireAlarmMsg(void);
//  174  void SHEndPointSendSmokeAlarmMsg(void);
//  175  
//  176  void SHCoordSendMacAddrMsg(afIncomingMSGPacket_t *pkt);
//  177  void SHCoordSendDHT11Msg(afIncomingMSGPacket_t *pkt);
//  178  void SHCoordSendFireAlarmMsg(afIncomingMSGPacket_t *pkt);
//  179  void SHCoordSendSmokeAlarmMsg(afIncomingMSGPacket_t *pkt);
//  180 
//  181  void SHEndPointReveiceAirConMsg(afIncomingMSGPacket_t *pkt);
//  182 
//  183  void SHIRSendInit();
//  184  void SHIR_Sending(uint8 *Sendcode35,uint8 *Sendcode32);
//  185 
//  186 #define SHIRSendPin P0_7
//  187 #define SHSMOKEANDFIREPin P0_5            //定义P0.5口为传感器的输入端
//  188 
//  189 

        RSEG XDATA_Z:XDATA:NOROOT(0)
        DATA16
//  190 void  (*p)(uint8,uint8,uint8);
`p`:
        DS 2
        REQUIRE __INIT_XDATA_Z
//  191    
//  192 
//  193    

        RSEG BANKED_CODE:CODE:NOROOT(0)
//  194 void SHIRSendDelay_10us(uint16 usx10)
SHIRSendDelay_10us:
        CFI Block cfiBlock0 Using cfiCommon0
        CFI Function SHIRSendDelay_10us
        CODE
//  195 {                         
        ; Saved register size: 0
        ; Auto size: 0
//  196     unsigned int a=0,i=0;
//  197 	for(i=0;i<usx10;i++)
        MOV     R0,#0x0
        MOV     R1,#0x0
        SJMP    ??CrossCallReturnLabel_100
//  198 	{
//  199 		a = 12;
//  200 		while(a)
//  201 		{
//  202 			a--;
??SHIRSendDelay_10us_0:
        LCALL   ??Subroutine46_0 & 0xFFFF
??CrossCallReturnLabel_100:
        CLR     C
        MOV     A,R0
        SUBB    A,R2
        MOV     A,R1
        SUBB    A,R3
        JC      ??SHIRSendDelay_10us_0
//  203 		}			
//  204 	}
//  205 }
        LJMP    ?BRET
        CFI EndBlock cfiBlock0
//  206 
//  207 /*********************************************************************
//  208  * NETWORK LAYER CALLBACKS
//  209  */
//  210 
//  211 /*********************************************************************
//  212  * PUBLIC FUNCTIONS
//  213  */
//  214 
//  215 /*********************************************************************
//  216  * @fn      SmartHomeApp_Init
//  217  *
//  218  * @brief   Initialization function for the Generic App Task.
//  219  *          This is called during initialization and should contain
//  220  *          any application specific initialization (ie. hardware
//  221  *          initialization/setup, table initialization, power up
//  222  *          notificaiton ... ).
//  223  *
//  224  * @param   task_id - the ID assigned by OSAL.  This ID should be
//  225  *                    used to send messages and set timers.
//  226  *
//  227  * @return  none
//  228  */

        RSEG BANKED_CODE:CODE:NOROOT(0)
//  229 void SmartHomeApp_Init( uint8 task_id )
SmartHomeApp_Init:
        CFI Block cfiBlock1 Using cfiCommon0
        CFI Function SmartHomeApp_Init
        CODE
//  230 { 
        FUNCALL SmartHomeApp_Init, MT_UartInit
        LOCFRAME ISTACK, 0, STACK
        LOCFRAME PSTACK, 0, STACK
        LOCFRAME XSTACK, 11, STACK
        LOCFRAME IOVERLAY, 0, STATIC
        LOCFRAME DOVERLAY, 0, STATIC
        ARGFRAME ISTACK, 0, STACK
        ARGFRAME PSTACK, 0, STACK
        ARGFRAME XSTACK, 11, STACK
        ARGFRAME IOVERLAY, 0, STATIC
        ARGFRAME DOVERLAY, 0, STATIC
        FUNCALL SmartHomeApp_Init, MT_UartRegisterTaskID
        LOCFRAME ISTACK, 0, STACK
        LOCFRAME PSTACK, 0, STACK
        LOCFRAME XSTACK, 11, STACK
        LOCFRAME IOVERLAY, 0, STATIC
        LOCFRAME DOVERLAY, 0, STATIC
        ARGFRAME ISTACK, 0, STACK
        ARGFRAME PSTACK, 0, STACK
        ARGFRAME XSTACK, 11, STACK
        ARGFRAME IOVERLAY, 0, STATIC
        ARGFRAME DOVERLAY, 0, STATIC
        FUNCALL SmartHomeApp_Init, HalTimerInit
        LOCFRAME ISTACK, 0, STACK
        LOCFRAME PSTACK, 0, STACK
        LOCFRAME XSTACK, 11, STACK
        LOCFRAME IOVERLAY, 0, STATIC
        LOCFRAME DOVERLAY, 0, STATIC
        ARGFRAME ISTACK, 0, STACK
        ARGFRAME PSTACK, 0, STACK
        ARGFRAME XSTACK, 11, STACK
        ARGFRAME IOVERLAY, 0, STATIC
        ARGFRAME DOVERLAY, 0, STATIC
        FUNCALL SmartHomeApp_Init, HalTimerConfig
        LOCFRAME ISTACK, 0, STACK
        LOCFRAME PSTACK, 0, STACK
        LOCFRAME XSTACK, 13, STACK
        LOCFRAME IOVERLAY, 0, STATIC
        LOCFRAME DOVERLAY, 0, STATIC
        ARGFRAME ISTACK, 0, STACK
        ARGFRAME PSTACK, 0, STACK
        ARGFRAME XSTACK, 13, STACK
        ARGFRAME IOVERLAY, 0, STATIC
        ARGFRAME DOVERLAY, 0, STATIC
        FUNCALL SmartHomeApp_Init, HalTimerStart
        LOCFRAME ISTACK, 0, STACK
        LOCFRAME PSTACK, 0, STACK
        LOCFRAME XSTACK, 11, STACK
        LOCFRAME IOVERLAY, 0, STATIC
        LOCFRAME DOVERLAY, 0, STATIC
        ARGFRAME ISTACK, 0, STACK
        ARGFRAME PSTACK, 0, STACK
        ARGFRAME XSTACK, 11, STACK
        ARGFRAME IOVERLAY, 0, STATIC
        ARGFRAME DOVERLAY, 0, STATIC
        FUNCALL SmartHomeApp_Init, afRegister
        LOCFRAME ISTACK, 0, STACK
        LOCFRAME PSTACK, 0, STACK
        LOCFRAME XSTACK, 11, STACK
        LOCFRAME IOVERLAY, 0, STATIC
        LOCFRAME DOVERLAY, 0, STATIC
        ARGFRAME ISTACK, 0, STACK
        ARGFRAME PSTACK, 0, STACK
        ARGFRAME XSTACK, 11, STACK
        ARGFRAME IOVERLAY, 0, STATIC
        ARGFRAME DOVERLAY, 0, STATIC
        FUNCALL SmartHomeApp_Init, RegisterForKeys
        LOCFRAME ISTACK, 0, STACK
        LOCFRAME PSTACK, 0, STACK
        LOCFRAME XSTACK, 11, STACK
        LOCFRAME IOVERLAY, 0, STATIC
        LOCFRAME DOVERLAY, 0, STATIC
        ARGFRAME ISTACK, 0, STACK
        ARGFRAME PSTACK, 0, STACK
        ARGFRAME XSTACK, 11, STACK
        ARGFRAME IOVERLAY, 0, STATIC
        ARGFRAME DOVERLAY, 0, STATIC
        FUNCALL SmartHomeApp_Init, osal_memcpy
        LOCFRAME ISTACK, 0, STACK
        LOCFRAME PSTACK, 0, STACK
        LOCFRAME XSTACK, 14, STACK
        LOCFRAME IOVERLAY, 0, STATIC
        LOCFRAME DOVERLAY, 0, STATIC
        ARGFRAME ISTACK, 0, STACK
        ARGFRAME PSTACK, 0, STACK
        ARGFRAME XSTACK, 14, STACK
        ARGFRAME IOVERLAY, 0, STATIC
        ARGFRAME DOVERLAY, 0, STATIC
        FUNCALL SmartHomeApp_Init, aps_AddGroup
        LOCFRAME ISTACK, 0, STACK
        LOCFRAME PSTACK, 0, STACK
        LOCFRAME XSTACK, 11, STACK
        LOCFRAME IOVERLAY, 0, STATIC
        LOCFRAME DOVERLAY, 0, STATIC
        ARGFRAME ISTACK, 0, STACK
        ARGFRAME PSTACK, 0, STACK
        ARGFRAME XSTACK, 11, STACK
        ARGFRAME IOVERLAY, 0, STATIC
        ARGFRAME DOVERLAY, 0, STATIC
        FUNCALL SmartHomeApp_Init, HalLcdWriteString
        LOCFRAME ISTACK, 0, STACK
        LOCFRAME PSTACK, 0, STACK
        LOCFRAME XSTACK, 11, STACK
        LOCFRAME IOVERLAY, 0, STATIC
        LOCFRAME DOVERLAY, 0, STATIC
        ARGFRAME ISTACK, 0, STACK
        ARGFRAME PSTACK, 0, STACK
        ARGFRAME XSTACK, 11, STACK
        ARGFRAME IOVERLAY, 0, STATIC
        ARGFRAME DOVERLAY, 0, STATIC
        MOV     A,#-0xb
        LCALL   ?BANKED_ENTER_XDATA
        CFI DPH0 load(1, XDATA, add(CFA_XSP16, literal(-1)))
        CFI DPL0 load(1, XDATA, add(CFA_XSP16, literal(-2)))
        CFI ?BRET_EXT load(1, XDATA, add(CFA_XSP16, literal(-3)))
        CFI ?RET_HIGH load(1, XDATA, add(CFA_XSP16, literal(-4)))
        CFI ?RET_LOW load(1, XDATA, add(CFA_XSP16, literal(-5)))
        CFI R7 load(1, XDATA, add(CFA_XSP16, literal(-6)))
        CFI V2 load(1, XDATA, add(CFA_XSP16, literal(-7)))
        CFI V1 load(1, XDATA, add(CFA_XSP16, literal(-8)))
        CFI V0 load(1, XDATA, add(CFA_XSP16, literal(-9)))
        CFI VB load(1, XDATA, add(CFA_XSP16, literal(-10)))
        CFI R6 load(1, XDATA, add(CFA_XSP16, literal(-11)))
        CFI CFA_SP SP+0
        CFI CFA_XSP16 add(XSP16, 11)
        ; Saved register size: 11
        ; Auto size: 0
        MOV     A,R1
        MOV     R6,A
//  231   SmartHomeApp_TaskID = task_id;
        MOV     DPTR,#SmartHomeApp_TaskID
        MOVX    @DPTR,A
//  232   SmartHomeApp_NwkState = DEV_INIT;
        MOV     DPTR,#SmartHomeApp_NwkState
        MOV     A,#0x1
        MOVX    @DPTR,A
//  233   SmartHomeApp_TransID = 0;
        MOV     DPTR,#SmartHomeApp_TransID
        CLR     A
        MOVX    @DPTR,A
//  234   
//  235   MT_UartInit();                  //串口初始化
        ; Setup parameters for call to function MT_UartInit
        LCALL   ??MT_UartInit?relay
//  236   MT_UartRegisterTaskID(task_id); //注册串口任务
        ; Setup parameters for call to function MT_UartRegisterTaskID
        MOV     A,R6
        MOV     R1,A
        LCALL   ??MT_UartRegisterTaskID?relay
//  237   
//  238   HalTimerInit();
        ; Setup parameters for call to function HalTimerInit
        LCALL   ??HalTimerInit?relay
//  239 
//  240   p = callBackFunction;//(HAL_TIMER_0,HAL_TIMER_CHANNEL_SINGLE,HAL_TIMER_CH_MODE_OUTPUT_COMPARE)
        MOV     DPTR,#`p`
        MOV     A,#??callBackFunction?relay & 0xff
        MOVX    @DPTR,A
        INC     DPTR
        MOV     A,#(??callBackFunction?relay >> 8) & 0xff
        MOVX    @DPTR,A
//  241      
//  242    HalTimerConfig(HAL_TIMER_3,HAL_TIMER_MODE_CTC,HAL_TIMER_CHANNEL_SINGLE,
//  243    HAL_TIMER_CH_MODE_OUTPUT_COMPARE,TRUE,p);
        ; Setup parameters for call to function HalTimerConfig
        MOV     ?V0 + 0,#??callBackFunction?relay & 0xff
        MOV     ?V0 + 1,A
        MOV     R0,#?V0 + 0
        LCALL   ?PUSH_XSTACK_I_TWO
        CFI CFA_XSP16 add(XSP16, 13)
        MOV     R5,#0x1
        MOV     R4,#0x2
        MOV     R3,#0x1
        MOV     R2,#0x2
        MOV     R1,#0x3
        LCALL   ??HalTimerConfig?relay
        MOV     A,#0x2
        LCALL   ?DEALLOC_XSTACK8
        CFI CFA_XSP16 add(XSP16, 11)
//  244 
//  245    	P0DIR |= 0x80;           //P0.7定义为输出
        ORL     0xfd,#0x80
//  246 	P0INP &=  ~0x80;  
        ANL     0x8f,#0x7f
//  247   	SHIRSendPin = 0;
        CLR     0x80.7
//  248     HalTimerStart(HAL_TIMER_3,13);
        ; Setup parameters for call to function HalTimerStart
        MOV     DPTR,#__Constant_d
        LCALL   ?XLOAD_R2345
        MOV     R1,#0x3
        LCALL   ??HalTimerStart?relay
//  249     T1IE = 0;	
        CLR     0xb8.1
//  250 
//  251    
//  252   // Device hardware initialization can be added here or in main() (Zmain.c).
//  253   // If the hardware is application specific - add it here.
//  254   // If the hardware is other parts of the device add it in main().
//  255 
//  256  #if defined ( BUILD_ALL_DEVICES )
//  257   // The "Demo" target is setup to have BUILD_ALL_DEVICES and HOLD_AUTO_START
//  258   // We are looking at a jumper (defined in SmartHomeAppHw.c) to be jumpered
//  259   // together - if they are - we will start up a coordinator. Otherwise,
//  260   // the device will start as a router.
//  261   if ( readCoordinatorJumper() )
//  262     zgDeviceLogicalType = ZG_DEVICETYPE_COORDINATOR;
//  263   else
//  264     zgDeviceLogicalType = ZG_DEVICETYPE_ROUTER;
//  265 #endif // BUILD_ALL_DEVICES
//  266 
//  267 #if defined ( HOLD_AUTO_START )
//  268   // HOLD_AUTO_START is a compile option that will surpress ZDApp
//  269   //  from starting the device and wait for the application to
//  270   //  start the device.
//  271   ZDOInitDevice(0);
//  272 #endif
//  273 
//  274   // Setup for the periodic message's destination address
//  275   // Broadcast to everyone
//  276   SmartHomeApp_Periodic_DstAddr.addrMode = (afAddrMode_t)AddrBroadcast;//广播
        MOV     DPTR,#SmartHomeApp_Periodic_DstAddr + 8
        MOV     A,#0xf
        LCALL   ??Subroutine47_0 & 0xFFFF
//  277   SmartHomeApp_Periodic_DstAddr.endPoint = SMARTHOMEAPP_ENDPOINT;
//  278   SmartHomeApp_Periodic_DstAddr.addr.shortAddr = 0xFFFF;
??CrossCallReturnLabel_103:
        MOV     DPTR,#SmartHomeApp_Periodic_DstAddr
        MOV     A,#-0x1
        MOVX    @DPTR,A
        INC     DPTR
        MOVX    @DPTR,A
//  279 
//  280   // Setup for the flash command's destination address - Group 1
//  281   SmartHomeApp_Flash_DstAddr.addrMode = (afAddrMode_t)afAddrGroup;//组播
        MOV     DPTR,#SmartHomeApp_Flash_DstAddr + 8
        MOV     A,#0x1
        LCALL   ??Subroutine47_0 & 0xFFFF
//  282   SmartHomeApp_Flash_DstAddr.endPoint = SMARTHOMEAPP_ENDPOINT;
//  283   SmartHomeApp_Flash_DstAddr.addr.shortAddr = SMARTHOMEAPP_FLASH_GROUP;
??CrossCallReturnLabel_104:
        MOV     DPTR,#SmartHomeApp_Flash_DstAddr
        MOV     A,#0x1
        MOVX    @DPTR,A
        INC     DPTR
        CLR     A
        MOVX    @DPTR,A
//  284   
//  285   SmartHomeApp_P2P_DstAddr.addrMode = (afAddrMode_t)Addr16Bit; //点播 
        MOV     DPTR,#SmartHomeApp_P2P_DstAddr + 8
        LCALL   ?Subroutine14 & 0xFFFF
//  286   SmartHomeApp_P2P_DstAddr.endPoint = SMARTHOMEAPP_ENDPOINT; 
//  287   SmartHomeApp_P2P_DstAddr.addr.shortAddr = 0x0000;            //发给协调器
??CrossCallReturnLabel_101:
        MOV     DPTR,#SmartHomeApp_P2P_DstAddr
        CLR     A
        MOVX    @DPTR,A
        INC     DPTR
        MOVX    @DPTR,A
//  288 
//  289   // Fill out the endpoint description.
//  290   SmartHomeApp_epDesc.endPoint = SMARTHOMEAPP_ENDPOINT;
        MOV     DPTR,#SmartHomeApp_epDesc
        MOV     A,#0x14
        MOVX    @DPTR,A
//  291   SmartHomeApp_epDesc.task_id = &SmartHomeApp_TaskID;
        INC     DPTR
        MOV     A,#SmartHomeApp_TaskID & 0xff
        MOVX    @DPTR,A
        INC     DPTR
        MOV     A,#(SmartHomeApp_TaskID >> 8) & 0xff
        MOVX    @DPTR,A
//  292   SmartHomeApp_epDesc.simpleDesc
//  293             = (SimpleDescriptionFormat_t *)&SmartHomeApp_SimpleDesc;
        INC     DPTR
        MOV     A,#SmartHomeApp_SimpleDesc & 0xff
        MOVX    @DPTR,A
        INC     DPTR
        MOV     A,#(SmartHomeApp_SimpleDesc >> 8) & 0xff
        MOVX    @DPTR,A
//  294   SmartHomeApp_epDesc.latencyReq = noLatencyReqs;
        INC     DPTR
        CLR     A
        MOVX    @DPTR,A
//  295 
//  296   // Register the endpoint description with the AF
//  297   afRegister( &SmartHomeApp_epDesc );
        ; Setup parameters for call to function afRegister
        MOV     R2,#SmartHomeApp_epDesc & 0xff
        MOV     R3,#(SmartHomeApp_epDesc >> 8) & 0xff
        LCALL   ??afRegister?relay
//  298 
//  299   // Register for all key events - This app will handle all key events
//  300   RegisterForKeys( SmartHomeApp_TaskID );
        ; Setup parameters for call to function RegisterForKeys
        MOV     DPTR,#SmartHomeApp_TaskID
        MOVX    A,@DPTR
        MOV     R1,A
        LCALL   ??RegisterForKeys?relay
//  301 
//  302   // By default, all devices start out in Group 1
//  303   SmartHomeApp_Group.ID = 0x0001;
        MOV     DPTR,#SmartHomeApp_Group
        MOV     A,#0x1
        MOVX    @DPTR,A
        INC     DPTR
        CLR     A
        MOVX    @DPTR,A
//  304   osal_memcpy( SmartHomeApp_Group.name, "Group 1", 7  );
        ; Setup parameters for call to function osal_memcpy
        MOV     ?V0 + 0,#`?<Constant "Group 1">` & 0xff
        MOV     ?V0 + 1,#(`?<Constant "Group 1">` >> 8) & 0xff
        MOV     ?V0 + 2,A
        MOV     R0,#?V0 + 0
        LCALL   ?PUSH_XSTACK_I_THREE
        CFI CFA_XSP16 add(XSP16, 14)
        MOV     R4,#0x7
        MOV     R5,#0x0
        MOV     R2,#(SmartHomeApp_Group + 2) & 0xff
        MOV     R3,#((SmartHomeApp_Group + 2) >> 8) & 0xff
        LCALL   ??Subroutine40_0 & 0xFFFF
??CrossCallReturnLabel_76:
        LCALL   ?DEALLOC_XSTACK8
        CFI CFA_XSP16 add(XSP16, 11)
//  305   aps_AddGroup( SMARTHOMEAPP_ENDPOINT, &SmartHomeApp_Group );
        ; Setup parameters for call to function aps_AddGroup
        MOV     R2,#SmartHomeApp_Group & 0xff
        MOV     R3,#(SmartHomeApp_Group >> 8) & 0xff
        MOV     R1,#0x14
        LCALL   ??aps_AddGroup?relay
//  306 
//  307 #if defined ( LCD_SUPPORTED )
//  308   HalLcdWriteString( "SmartHomeApp", HAL_LCD_LINE_1 );
        ; Setup parameters for call to function HalLcdWriteString
        MOV     R1,#0x1
        MOV     R2,#`?<Constant "SmartHomeApp">` & 0xff
        MOV     R3,#(`?<Constant "SmartHomeApp">` >> 8) & 0xff
        LCALL   ??HalLcdWriteString?relay
//  309 #endif
//  310 }
        LJMP    ??Subroutine39_0 & 0xFFFF
        CFI EndBlock cfiBlock1
        REQUIRE P0DIR
        REQUIRE P0INP
        REQUIRE _A_P0
        REQUIRE _A_IEN1
//  311 
//  312 /*********************************************************************
//  313  * @fn      SmartHomeApp_ProcessEvent
//  314  *
//  315  * @brief   Generic Application Task event processor.  This function
//  316  *          is called to process all events for the task.  Events
//  317  *          include timers, messages and any other user defined events.
//  318  *
//  319  * @param   task_id  - The OSAL assigned task ID.
//  320  * @param   events - events to process.  This is a bit map and can
//  321  *                   contain more than one event.
//  322  *
//  323  * @return  none
//  324  */

        RSEG BANKED_CODE:CODE:NOROOT(0)
//  325 uint16 SmartHomeApp_ProcessEvent( uint8 task_id, uint16 events )
SmartHomeApp_ProcessEvent:
        CFI Block cfiBlock2 Using cfiCommon0
        CFI Function SmartHomeApp_ProcessEvent
        CODE
//  326 {
        FUNCALL SmartHomeApp_ProcessEvent, osal_msg_receive
        LOCFRAME ISTACK, 0, STACK
        LOCFRAME PSTACK, 0, STACK
        LOCFRAME XSTACK, 12, STACK
        LOCFRAME IOVERLAY, 0, STATIC
        LOCFRAME DOVERLAY, 0, STATIC
        ARGFRAME ISTACK, 0, STACK
        ARGFRAME PSTACK, 0, STACK
        ARGFRAME XSTACK, 12, STACK
        ARGFRAME IOVERLAY, 0, STATIC
        ARGFRAME DOVERLAY, 0, STATIC
        FUNCALL SmartHomeApp_ProcessEvent, SHEndPointSendMacAddrMsg
        LOCFRAME ISTACK, 0, STACK
        LOCFRAME PSTACK, 0, STACK
        LOCFRAME XSTACK, 12, STACK
        LOCFRAME IOVERLAY, 0, STATIC
        LOCFRAME DOVERLAY, 0, STATIC
        ARGFRAME ISTACK, 0, STACK
        ARGFRAME PSTACK, 0, STACK
        ARGFRAME XSTACK, 12, STACK
        ARGFRAME IOVERLAY, 0, STATIC
        ARGFRAME DOVERLAY, 0, STATIC
        FUNCALL SmartHomeApp_ProcessEvent, osal_start_timerEx
        LOCFRAME ISTACK, 0, STACK
        LOCFRAME PSTACK, 0, STACK
        LOCFRAME XSTACK, 12, STACK
        LOCFRAME IOVERLAY, 0, STATIC
        LOCFRAME DOVERLAY, 0, STATIC
        ARGFRAME ISTACK, 0, STACK
        ARGFRAME PSTACK, 0, STACK
        ARGFRAME XSTACK, 12, STACK
        ARGFRAME IOVERLAY, 0, STATIC
        ARGFRAME DOVERLAY, 0, STATIC
        FUNCALL SmartHomeApp_ProcessEvent, osal_msg_deallocate
        LOCFRAME ISTACK, 0, STACK
        LOCFRAME PSTACK, 0, STACK
        LOCFRAME XSTACK, 12, STACK
        LOCFRAME IOVERLAY, 0, STATIC
        LOCFRAME DOVERLAY, 0, STATIC
        ARGFRAME ISTACK, 0, STACK
        ARGFRAME PSTACK, 0, STACK
        ARGFRAME XSTACK, 12, STACK
        ARGFRAME IOVERLAY, 0, STATIC
        ARGFRAME DOVERLAY, 0, STATIC
        FUNCALL SmartHomeApp_ProcessEvent, osal_msg_receive
        LOCFRAME ISTACK, 0, STACK
        LOCFRAME PSTACK, 0, STACK
        LOCFRAME XSTACK, 12, STACK
        LOCFRAME IOVERLAY, 0, STATIC
        LOCFRAME DOVERLAY, 0, STATIC
        ARGFRAME ISTACK, 0, STACK
        ARGFRAME PSTACK, 0, STACK
        ARGFRAME XSTACK, 12, STACK
        ARGFRAME IOVERLAY, 0, STATIC
        ARGFRAME DOVERLAY, 0, STATIC
        FUNCALL SmartHomeApp_ProcessEvent, SmartHomeApp_HandleKeys
        LOCFRAME ISTACK, 0, STACK
        LOCFRAME PSTACK, 0, STACK
        LOCFRAME XSTACK, 12, STACK
        LOCFRAME IOVERLAY, 0, STATIC
        LOCFRAME DOVERLAY, 0, STATIC
        ARGFRAME ISTACK, 0, STACK
        ARGFRAME PSTACK, 0, STACK
        ARGFRAME XSTACK, 12, STACK
        ARGFRAME IOVERLAY, 0, STATIC
        ARGFRAME DOVERLAY, 0, STATIC
        FUNCALL SmartHomeApp_ProcessEvent, SmartHomeApp_MessageMSGCB
        LOCFRAME ISTACK, 0, STACK
        LOCFRAME PSTACK, 0, STACK
        LOCFRAME XSTACK, 12, STACK
        LOCFRAME IOVERLAY, 0, STATIC
        LOCFRAME DOVERLAY, 0, STATIC
        ARGFRAME ISTACK, 0, STACK
        ARGFRAME PSTACK, 0, STACK
        ARGFRAME XSTACK, 12, STACK
        ARGFRAME IOVERLAY, 0, STATIC
        ARGFRAME DOVERLAY, 0, STATIC
        FUNCALL SmartHomeApp_ProcessEvent, SHEndPointSendFireAlarmMsg
        LOCFRAME ISTACK, 0, STACK
        LOCFRAME PSTACK, 0, STACK
        LOCFRAME XSTACK, 12, STACK
        LOCFRAME IOVERLAY, 0, STATIC
        LOCFRAME DOVERLAY, 0, STATIC
        ARGFRAME ISTACK, 0, STACK
        ARGFRAME PSTACK, 0, STACK
        ARGFRAME XSTACK, 12, STACK
        ARGFRAME IOVERLAY, 0, STATIC
        ARGFRAME DOVERLAY, 0, STATIC
        FUNCALL SmartHomeApp_ProcessEvent, osal_rand
        LOCFRAME ISTACK, 0, STACK
        LOCFRAME PSTACK, 0, STACK
        LOCFRAME XSTACK, 12, STACK
        LOCFRAME IOVERLAY, 0, STATIC
        LOCFRAME DOVERLAY, 0, STATIC
        ARGFRAME ISTACK, 0, STACK
        ARGFRAME PSTACK, 0, STACK
        ARGFRAME XSTACK, 12, STACK
        ARGFRAME IOVERLAY, 0, STATIC
        ARGFRAME DOVERLAY, 0, STATIC
        FUNCALL SmartHomeApp_ProcessEvent, osal_start_timerEx
        LOCFRAME ISTACK, 0, STACK
        LOCFRAME PSTACK, 0, STACK
        LOCFRAME XSTACK, 12, STACK
        LOCFRAME IOVERLAY, 0, STATIC
        LOCFRAME DOVERLAY, 0, STATIC
        ARGFRAME ISTACK, 0, STACK
        ARGFRAME PSTACK, 0, STACK
        ARGFRAME XSTACK, 12, STACK
        ARGFRAME IOVERLAY, 0, STATIC
        ARGFRAME DOVERLAY, 0, STATIC
        MOV     A,#-0xc
        LCALL   ?BANKED_ENTER_XDATA
        CFI DPH0 load(1, XDATA, add(CFA_XSP16, literal(-1)))
        CFI DPL0 load(1, XDATA, add(CFA_XSP16, literal(-2)))
        CFI ?BRET_EXT load(1, XDATA, add(CFA_XSP16, literal(-3)))
        CFI ?RET_HIGH load(1, XDATA, add(CFA_XSP16, literal(-4)))
        CFI ?RET_LOW load(1, XDATA, add(CFA_XSP16, literal(-5)))
        CFI R7 load(1, XDATA, add(CFA_XSP16, literal(-6)))
        CFI V3 load(1, XDATA, add(CFA_XSP16, literal(-7)))
        CFI V2 load(1, XDATA, add(CFA_XSP16, literal(-8)))
        CFI V1 load(1, XDATA, add(CFA_XSP16, literal(-9)))
        CFI V0 load(1, XDATA, add(CFA_XSP16, literal(-10)))
        CFI VB load(1, XDATA, add(CFA_XSP16, literal(-11)))
        CFI R6 load(1, XDATA, add(CFA_XSP16, literal(-12)))
        CFI CFA_SP SP+0
        CFI CFA_XSP16 add(XSP16, 12)
        ; Saved register size: 12
        ; Auto size: 0
        MOV     A,R2
        MOV     R6,A
        MOV     A,R3
        MOV     R7,A
//  327   afIncomingMSGPacket_t *MSGpkt;
//  328   (void)task_id;  // Intentionally unreferenced parameter
//  329 
//  330   if ( events & SYS_EVENT_MSG )
        ANL     A,#0x80
        JZ      ??SmartHomeApp_ProcessEvent_0
//  331   {
//  332     MSGpkt = (afIncomingMSGPacket_t *)osal_msg_receive( SmartHomeApp_TaskID );
        ; Setup parameters for call to function osal_msg_receive
        SJMP    ??SmartHomeApp_ProcessEvent_1
//  333     while ( MSGpkt )
//  334     {
//  335       switch ( MSGpkt->hdr.event )
//  336       {
//  337         // Received when a key is pressed
//  338         case KEY_CHANGE:
//  339           SmartHomeApp_HandleKeys( ((keyChange_t *)MSGpkt)->state, ((keyChange_t *)MSGpkt)->keys );
//  340           break;
//  341 
//  342         // Received when a messages is received (OTA) for this endpoint
//  343         case AF_INCOMING_MSG_CMD:
//  344           SmartHomeApp_MessageMSGCB( MSGpkt );
//  345           break;
//  346 
//  347         // Received whenever the device changes state in the network
//  348         case ZDO_STATE_CHANGE:
//  349           SmartHomeApp_NwkState = (devStates_t)(MSGpkt->hdr.status);
??SmartHomeApp_ProcessEvent_2:
        INC     DPTR
        MOVX    A,@DPTR
        MOV     DPTR,#SmartHomeApp_NwkState
        MOVX    @DPTR,A
//  350           if ( //(SmartHomeApp_NwkState == DEV_ZB_COORD) ||
//  351                  (SmartHomeApp_NwkState == DEV_ROUTER)
//  352               || (SmartHomeApp_NwkState == DEV_END_DEVICE) )
        XRL     A,#0x7
        JZ      ??SmartHomeApp_ProcessEvent_3
        MOVX    A,@DPTR
        XRL     A,#0x6
        JNZ     ??SmartHomeApp_ProcessEvent_4
//  353           {
//  354             // Start sending the periodic message in a regular interval.
//  355         	SHEndPointSendMacAddrMsg();
??SmartHomeApp_ProcessEvent_3:
        ; Setup parameters for call to function SHEndPointSendMacAddrMsg
        LCALL   ??SHEndPointSendMacAddrMsg?relay
//  356             osal_start_timerEx( SmartHomeApp_TaskID,
//  357                               SMARTHOMEAPP_SEND_PERIODIC_MSG_EVT,
//  358                               SMARTHOMEAPP_SEND_PERIODIC_MSG_TIMEOUT );
        ; Setup parameters for call to function osal_start_timerEx
        MOV     R4,#-0x78
        MOV     R5,#0x13
        MOV     R2,#0x1
        MOV     R3,#0x0
        MOV     DPTR,#SmartHomeApp_TaskID
        MOVX    A,@DPTR
        MOV     R1,A
        LCALL   ??osal_start_timerEx?relay
//  359           }
//  360           else
//  361           {
//  362             // Device is no longer in the network
//  363           }
//  364           break;
//  365 
//  366         default:
//  367           break;
//  368       }
//  369 
//  370       // Release the memory
//  371       osal_msg_deallocate( (uint8 *)MSGpkt );
??SmartHomeApp_ProcessEvent_4:
        ; Setup parameters for call to function osal_msg_deallocate
        MOV     R2,?V0 + 0
        MOV     R3,?V0 + 1
        LCALL   ??osal_msg_deallocate?relay
//  372 
//  373       // Next - if one is available
//  374       MSGpkt = (afIncomingMSGPacket_t *)osal_msg_receive( SmartHomeApp_TaskID );
        ; Setup parameters for call to function osal_msg_receive
??SmartHomeApp_ProcessEvent_1:
        MOV     DPTR,#SmartHomeApp_TaskID
        MOVX    A,@DPTR
        MOV     R1,A
        LCALL   ??osal_msg_receive?relay
        MOV     ?V0 + 0,R2
        MOV     ?V0 + 1,R3
        MOV     A,?V0 + 0
        ORL     A,?V0 + 1
        JZ      ??SmartHomeApp_ProcessEvent_5
        MOV     DPL,?V0 + 0
        MOV     DPH,?V0 + 1
        MOVX    A,@DPTR
        ADD     A,#-0x1a
        JZ      ??SmartHomeApp_ProcessEvent_6
        ADD     A,#0x5a
        JZ      ??SmartHomeApp_ProcessEvent_7
        ADD     A,#-0x11
        JZ      ??SmartHomeApp_ProcessEvent_2
        SJMP    ??SmartHomeApp_ProcessEvent_4
??SmartHomeApp_ProcessEvent_7:
        ; Setup parameters for call to function SmartHomeApp_HandleKeys
        INC     DPTR
        INC     DPTR
        INC     DPTR
        MOVX    A,@DPTR
        MOV     R2,A
        MOV     DPL,?V0 + 0
        MOV     DPH,?V0 + 1
        INC     DPTR
        INC     DPTR
        MOVX    A,@DPTR
        MOV     R1,A
        LCALL   ??SmartHomeApp_HandleKeys?relay
        SJMP    ??SmartHomeApp_ProcessEvent_4
??SmartHomeApp_ProcessEvent_6:
        ; Setup parameters for call to function SmartHomeApp_MessageMSGCB
        MOV     R2,?V0 + 0
        MOV     R3,?V0 + 1
        LCALL   ??SmartHomeApp_MessageMSGCB?relay
        SJMP    ??SmartHomeApp_ProcessEvent_4
//  375     }
//  376 
//  377     // return unprocessed events
//  378     return (events ^ SYS_EVENT_MSG);
??SmartHomeApp_ProcessEvent_5:
        MOV     A,R6
        MOV     R2,A
        MOV     A,R7
        XRL     A,#0x80
??SmartHomeApp_ProcessEvent_8:
        MOV     R3,A
        SJMP    ??SmartHomeApp_ProcessEvent_9
//  379   }
//  380 
//  381   // Send a message out - This event is generated by a timer
//  382   //  (setup in SmartHomeApp_Init()).
//  383   if ( events & SMARTHOMEAPP_SEND_PERIODIC_MSG_EVT )
??SmartHomeApp_ProcessEvent_0:
        MOV     A,R6
        MOV     C,0xE0 /* A   */.0
        JNC     ??SmartHomeApp_ProcessEvent_10
//  384   {
//  385     // Send the periodic message
//  386 #if defined ( ENDDEVICE_DHT11 ) 
//  387 	SHEndPointSendDHT11Msg();
//  388 	osal_start_timerEx( SmartHomeApp_TaskID, SMARTHOMEAPP_SEND_PERIODIC_MSG_EVT,
//  389 	(SMARTHOMEAPP_SEND_PERIODIC_MSG_TIMEOUT_DHT11+ (osal_rand() & 0x00FF)) );
//  390 #endif
//  391 
//  392 #if defined ( ENDDEVICE_FIREALARM )
//  393 	SHEndPointSendFireAlarmMsg();
        ; Setup parameters for call to function SHEndPointSendFireAlarmMsg
        LCALL   ??SHEndPointSendFireAlarmMsg?relay
//  394 	osal_start_timerEx( SmartHomeApp_TaskID, SMARTHOMEAPP_SEND_PERIODIC_MSG_EVT,
//  395 	(SMARTHOMEAPP_SEND_PERIODIC_MSG_TIMEOUT_FIREALARM+ (osal_rand() & 0x00FF)) );
        ; Setup parameters for call to function osal_rand
        LCALL   ??osal_rand?relay
        ; Setup parameters for call to function osal_start_timerEx
        MOV     A,R2
        ADD     A,#-0x48
        MOV     R4,A
        CLR     A
        ADDC    A,#0xb
        MOV     R5,A
        MOV     R2,#0x1
        MOV     R3,#0x0
        MOV     DPTR,#SmartHomeApp_TaskID
        MOVX    A,@DPTR
        MOV     R1,A
        LCALL   ??osal_start_timerEx?relay
//  396 #endif
//  397 
//  398 #if defined ( ENDDEVICE_SMOKEALARM )
//  399 	SHEndPointSendSmokeAlarmMsg();
//  400 	osal_start_timerEx( SmartHomeApp_TaskID, SMARTHOMEAPP_SEND_PERIODIC_MSG_EVT,
//  401 	(SMARTHOMEAPP_SEND_PERIODIC_MSG_TIMEOUT_SMOKEALARM+ (osal_rand() & 0x00FF)) );
//  402 #endif
//  403 
//  404 
//  405 
//  406     // return unprocessed events
//  407     return (events ^ SMARTHOMEAPP_SEND_PERIODIC_MSG_EVT);
        MOV     A,R6
        XRL     A,#0x1
        MOV     R2,A
        MOV     A,R7
        SJMP    ??SmartHomeApp_ProcessEvent_8
//  408   }
//  409 
//  410   // Discard unknown events
//  411   return 0;
??SmartHomeApp_ProcessEvent_10:
        MOV     R2,#0x0
        MOV     R3,#0x0
        CFI EndBlock cfiBlock2
??SmartHomeApp_ProcessEvent_9:
        REQUIRE ?Subroutine2
        ; // Fall through to label ?Subroutine2
//  412 }

        RSEG BANKED_CODE:CODE:NOROOT(0)
?Subroutine2:
        CFI Block cfiBlock3 Using cfiCommon0
        CFI NoFunction
        CFI CFA_SP SP+0
        CFI CFA_XSP16 add(XSP16, 12)
        CFI VB load(1, XDATA, add(CFA_XSP16, literal(-11)))
        CFI DPL0 load(1, XDATA, add(CFA_XSP16, literal(-2)))
        CFI DPH0 load(1, XDATA, add(CFA_XSP16, literal(-1)))
        CFI R6 load(1, XDATA, add(CFA_XSP16, literal(-12)))
        CFI R7 load(1, XDATA, add(CFA_XSP16, literal(-6)))
        CFI V0 load(1, XDATA, add(CFA_XSP16, literal(-10)))
        CFI V1 load(1, XDATA, add(CFA_XSP16, literal(-9)))
        CFI V2 load(1, XDATA, add(CFA_XSP16, literal(-8)))
        CFI V3 load(1, XDATA, add(CFA_XSP16, literal(-7)))
        CFI ?BRET_EXT load(1, XDATA, add(CFA_XSP16, literal(-3)))
        CFI ?RET_HIGH load(1, XDATA, add(CFA_XSP16, literal(-4)))
        CFI ?RET_LOW load(1, XDATA, add(CFA_XSP16, literal(-5)))
        MOV     R7,#0x4
        LJMP    ?BANKED_LEAVE_XDATA
        CFI EndBlock cfiBlock3
//  413 
//  414 /*********************************************************************
//  415  * Event Generation Functions
//  416  */
//  417 /*********************************************************************
//  418  * @fn      SmartHomeApp_HandleKeys
//  419  *
//  420  * @brief   Handles all key events for this device.
//  421  *
//  422  * @param   shift - true if in shift/alt.
//  423  * @param   keys - bit field for key events. Valid entries:
//  424  *                 HAL_KEY_SW_2
//  425  *                 HAL_KEY_SW_1
//  426  *
//  427  * @return  none
//  428  */

        RSEG BANKED_CODE:CODE:NOROOT(0)
//  429 void SmartHomeApp_HandleKeys( uint8 shift, uint8 keys )
SmartHomeApp_HandleKeys:
        CFI Block cfiBlock4 Using cfiCommon0
        CFI Function SmartHomeApp_HandleKeys
        CODE
//  430 {
        FUNCALL SmartHomeApp_HandleKeys, SHEndPointSendMacAddrMsg
        LOCFRAME ISTACK, 0, STACK
        LOCFRAME PSTACK, 0, STACK
        LOCFRAME XSTACK, 10, STACK
        LOCFRAME IOVERLAY, 0, STATIC
        LOCFRAME DOVERLAY, 0, STATIC
        ARGFRAME ISTACK, 0, STACK
        ARGFRAME PSTACK, 0, STACK
        ARGFRAME XSTACK, 10, STACK
        ARGFRAME IOVERLAY, 0, STATIC
        ARGFRAME DOVERLAY, 0, STATIC
        FUNCALL SmartHomeApp_HandleKeys, aps_FindGroup
        LOCFRAME ISTACK, 0, STACK
        LOCFRAME PSTACK, 0, STACK
        LOCFRAME XSTACK, 10, STACK
        LOCFRAME IOVERLAY, 0, STATIC
        LOCFRAME DOVERLAY, 0, STATIC
        ARGFRAME ISTACK, 0, STACK
        ARGFRAME PSTACK, 0, STACK
        ARGFRAME XSTACK, 10, STACK
        ARGFRAME IOVERLAY, 0, STATIC
        ARGFRAME DOVERLAY, 0, STATIC
        FUNCALL SmartHomeApp_HandleKeys, aps_RemoveGroup
        LOCFRAME ISTACK, 0, STACK
        LOCFRAME PSTACK, 0, STACK
        LOCFRAME XSTACK, 10, STACK
        LOCFRAME IOVERLAY, 0, STATIC
        LOCFRAME DOVERLAY, 0, STATIC
        ARGFRAME ISTACK, 0, STACK
        ARGFRAME PSTACK, 0, STACK
        ARGFRAME XSTACK, 10, STACK
        ARGFRAME IOVERLAY, 0, STATIC
        ARGFRAME DOVERLAY, 0, STATIC
        FUNCALL SmartHomeApp_HandleKeys, aps_AddGroup
        LOCFRAME ISTACK, 0, STACK
        LOCFRAME PSTACK, 0, STACK
        LOCFRAME XSTACK, 10, STACK
        LOCFRAME IOVERLAY, 0, STATIC
        LOCFRAME DOVERLAY, 0, STATIC
        ARGFRAME ISTACK, 0, STACK
        ARGFRAME PSTACK, 0, STACK
        ARGFRAME XSTACK, 10, STACK
        ARGFRAME IOVERLAY, 0, STATIC
        ARGFRAME DOVERLAY, 0, STATIC
        FUNCALL SmartHomeApp_HandleKeys, SHEndPointSendDHT11Msg
        LOCFRAME ISTACK, 0, STACK
        LOCFRAME PSTACK, 0, STACK
        LOCFRAME XSTACK, 10, STACK
        LOCFRAME IOVERLAY, 0, STATIC
        LOCFRAME DOVERLAY, 0, STATIC
        ARGFRAME ISTACK, 0, STACK
        ARGFRAME PSTACK, 0, STACK
        ARGFRAME XSTACK, 10, STACK
        ARGFRAME IOVERLAY, 0, STATIC
        ARGFRAME DOVERLAY, 0, STATIC
        MOV     A,#-0xa
        LCALL   ?BANKED_ENTER_XDATA
        CFI DPH0 load(1, XDATA, add(CFA_XSP16, literal(-1)))
        CFI DPL0 load(1, XDATA, add(CFA_XSP16, literal(-2)))
        CFI ?BRET_EXT load(1, XDATA, add(CFA_XSP16, literal(-3)))
        CFI ?RET_HIGH load(1, XDATA, add(CFA_XSP16, literal(-4)))
        CFI ?RET_LOW load(1, XDATA, add(CFA_XSP16, literal(-5)))
        CFI R7 load(1, XDATA, add(CFA_XSP16, literal(-6)))
        CFI V1 load(1, XDATA, add(CFA_XSP16, literal(-7)))
        CFI V0 load(1, XDATA, add(CFA_XSP16, literal(-8)))
        CFI VB load(1, XDATA, add(CFA_XSP16, literal(-9)))
        CFI R6 load(1, XDATA, add(CFA_XSP16, literal(-10)))
        CFI CFA_SP SP+0
        CFI CFA_XSP16 add(XSP16, 10)
        ; Saved register size: 10
        ; Auto size: 0
        MOV     A,R2
        MOV     R6,A
//  431   (void)shift;  // Intentionally unreferenced parameter
//  432   
//  433   if ( keys & HAL_KEY_SW_1 )
        MOV     C,0xE0 /* A   */.0
        JNC     ??SmartHomeApp_HandleKeys_0
//  434   {
//  435     SHEndPointSendMacAddrMsg();
        ; Setup parameters for call to function SHEndPointSendMacAddrMsg
        LCALL   ??SHEndPointSendMacAddrMsg?relay
//  436   }
//  437 
//  438   if ( keys & HAL_KEY_SW_2 )
??SmartHomeApp_HandleKeys_0:
        MOV     A,R6
        MOV     C,0xE0 /* A   */.1
        JNC     ??SmartHomeApp_HandleKeys_1
//  439   {
//  440     /* The Flashr Command is sent to Group 1.
//  441      * This key toggles this device in and out of group 1.
//  442      * If this device doesn't belong to group 1, this application
//  443      * will not receive the Flash command sent to group 1.
//  444      */
//  445     aps_Group_t *grp;
//  446     grp = aps_FindGroup( SMARTHOMEAPP_ENDPOINT, SMARTHOMEAPP_FLASH_GROUP );
//  447     if ( grp )
        ; Setup parameters for call to function aps_FindGroup
        MOV     R2,#0x1
        MOV     R3,#0x0
        MOV     R1,#0x14
        LCALL   ??aps_FindGroup?relay
        MOV     ?V0 + 1,R3
        MOV     A,R2
        ORL     A,?V0 + 1
        JZ      ??SmartHomeApp_HandleKeys_2
//  448     {
//  449       // Remove from the group
//  450       aps_RemoveGroup( SMARTHOMEAPP_ENDPOINT, SMARTHOMEAPP_FLASH_GROUP );
        ; Setup parameters for call to function aps_RemoveGroup
        MOV     R2,#0x1
        MOV     R3,#0x0
        MOV     R1,#0x14
        LCALL   ??aps_RemoveGroup?relay
        SJMP    ??SmartHomeApp_HandleKeys_1
//  451     }
//  452     else
//  453     {
//  454       // Add to the flash group
//  455       aps_AddGroup( SMARTHOMEAPP_ENDPOINT, &SmartHomeApp_Group );
??SmartHomeApp_HandleKeys_2:
        ; Setup parameters for call to function aps_AddGroup
        MOV     R2,#SmartHomeApp_Group & 0xff
        MOV     R3,#(SmartHomeApp_Group >> 8) & 0xff
        MOV     R1,#0x14
        LCALL   ??aps_AddGroup?relay
//  456     }
//  457   }
//  458   if ( keys & HAL_KEY_SW_6 )
??SmartHomeApp_HandleKeys_1:
        MOV     A,R6
        MOV     C,0xE0 /* A   */.5
        JNC     ??SmartHomeApp_HandleKeys_3
//  459   {
//  460 	SHEndPointSendDHT11Msg();
        ; Setup parameters for call to function SHEndPointSendDHT11Msg
        LCALL   ??SHEndPointSendDHT11Msg?relay
//  461   }
//  462 }
??SmartHomeApp_HandleKeys_3:
        LJMP    ??Subroutine36_0 & 0xFFFF
        CFI EndBlock cfiBlock4
//  463 

        RSEG BANKED_CODE:CODE:NOROOT(0)
//  464 void callBackFunction(uint8 timerId, uint8 channel, uint8 channelMode)
callBackFunction:
        CFI Block cfiBlock5 Using cfiCommon0
        CFI Function callBackFunction
        CODE
//  465 {
        ; Saved register size: 0
        ; Auto size: 0
//  466 	//SHIRSendPin=~SHIRSendPin;  
//  467 }
        LJMP    ?BRET
        CFI EndBlock cfiBlock5
//  468 
//  469 /*********************************************************************
//  470  * LOCAL FUNCTIONS
//  471  */
//  472 
//  473 /*********************************************************************
//  474  * @fn      SmartHomeApp_MessageMSGCB
//  475  *
//  476  * @brief   Data message processor callback.  This function processes
//  477  *          any incoming data - probably from other devices.  So, based
//  478  *          on cluster ID, perform the intended action.
//  479  *
//  480  * @param   none
//  481  *
//  482  * @return  none
//  483  */

        RSEG BANKED_CODE:CODE:NOROOT(0)
//  484 void SmartHomeApp_MessageMSGCB( afIncomingMSGPacket_t *pkt )
SmartHomeApp_MessageMSGCB:
        CFI Block cfiBlock6 Using cfiCommon0
        CFI Function SmartHomeApp_MessageMSGCB
        CODE
//  485 {
        FUNCALL SmartHomeApp_MessageMSGCB, HalUARTWrite
        LOCFRAME ISTACK, 0, STACK
        LOCFRAME PSTACK, 0, STACK
        LOCFRAME XSTACK, 12, STACK
        LOCFRAME IOVERLAY, 0, STATIC
        LOCFRAME DOVERLAY, 0, STATIC
        ARGFRAME ISTACK, 0, STACK
        ARGFRAME PSTACK, 0, STACK
        ARGFRAME XSTACK, 12, STACK
        ARGFRAME IOVERLAY, 0, STATIC
        ARGFRAME DOVERLAY, 0, STATIC
        FUNCALL SmartHomeApp_MessageMSGCB, HalUARTWrite
        LOCFRAME ISTACK, 0, STACK
        LOCFRAME PSTACK, 0, STACK
        LOCFRAME XSTACK, 12, STACK
        LOCFRAME IOVERLAY, 0, STATIC
        LOCFRAME DOVERLAY, 0, STATIC
        ARGFRAME ISTACK, 0, STACK
        ARGFRAME PSTACK, 0, STACK
        ARGFRAME XSTACK, 12, STACK
        ARGFRAME IOVERLAY, 0, STATIC
        ARGFRAME DOVERLAY, 0, STATIC
        FUNCALL SmartHomeApp_MessageMSGCB, HalUARTWrite
        LOCFRAME ISTACK, 0, STACK
        LOCFRAME PSTACK, 0, STACK
        LOCFRAME XSTACK, 12, STACK
        LOCFRAME IOVERLAY, 0, STATIC
        LOCFRAME DOVERLAY, 0, STATIC
        ARGFRAME ISTACK, 0, STACK
        ARGFRAME PSTACK, 0, STACK
        ARGFRAME XSTACK, 12, STACK
        ARGFRAME IOVERLAY, 0, STATIC
        ARGFRAME DOVERLAY, 0, STATIC
        FUNCALL SmartHomeApp_MessageMSGCB, HalLedBlink
        LOCFRAME ISTACK, 0, STACK
        LOCFRAME PSTACK, 0, STACK
        LOCFRAME XSTACK, 12, STACK
        LOCFRAME IOVERLAY, 0, STATIC
        LOCFRAME DOVERLAY, 0, STATIC
        ARGFRAME ISTACK, 0, STACK
        ARGFRAME PSTACK, 0, STACK
        ARGFRAME XSTACK, 12, STACK
        ARGFRAME IOVERLAY, 0, STATIC
        ARGFRAME DOVERLAY, 0, STATIC
        FUNCALL SmartHomeApp_MessageMSGCB, SHCoordSendMacAddrMsg
        LOCFRAME ISTACK, 0, STACK
        LOCFRAME PSTACK, 0, STACK
        LOCFRAME XSTACK, 12, STACK
        LOCFRAME IOVERLAY, 0, STATIC
        LOCFRAME DOVERLAY, 0, STATIC
        ARGFRAME ISTACK, 0, STACK
        ARGFRAME PSTACK, 0, STACK
        ARGFRAME XSTACK, 12, STACK
        ARGFRAME IOVERLAY, 0, STATIC
        ARGFRAME DOVERLAY, 0, STATIC
        FUNCALL SmartHomeApp_MessageMSGCB, SHCoordSendDHT11Msg
        LOCFRAME ISTACK, 0, STACK
        LOCFRAME PSTACK, 0, STACK
        LOCFRAME XSTACK, 12, STACK
        LOCFRAME IOVERLAY, 0, STATIC
        LOCFRAME DOVERLAY, 0, STATIC
        ARGFRAME ISTACK, 0, STACK
        ARGFRAME PSTACK, 0, STACK
        ARGFRAME XSTACK, 12, STACK
        ARGFRAME IOVERLAY, 0, STATIC
        ARGFRAME DOVERLAY, 0, STATIC
        FUNCALL SmartHomeApp_MessageMSGCB, SHCoordSendFireAlarmMsg
        LOCFRAME ISTACK, 0, STACK
        LOCFRAME PSTACK, 0, STACK
        LOCFRAME XSTACK, 12, STACK
        LOCFRAME IOVERLAY, 0, STATIC
        LOCFRAME DOVERLAY, 0, STATIC
        ARGFRAME ISTACK, 0, STACK
        ARGFRAME PSTACK, 0, STACK
        ARGFRAME XSTACK, 12, STACK
        ARGFRAME IOVERLAY, 0, STATIC
        ARGFRAME DOVERLAY, 0, STATIC
        FUNCALL SmartHomeApp_MessageMSGCB, SHCoordSendSmokeAlarmMsg
        LOCFRAME ISTACK, 0, STACK
        LOCFRAME PSTACK, 0, STACK
        LOCFRAME XSTACK, 12, STACK
        LOCFRAME IOVERLAY, 0, STATIC
        LOCFRAME DOVERLAY, 0, STATIC
        ARGFRAME ISTACK, 0, STACK
        ARGFRAME PSTACK, 0, STACK
        ARGFRAME XSTACK, 12, STACK
        ARGFRAME IOVERLAY, 0, STATIC
        ARGFRAME DOVERLAY, 0, STATIC
        FUNCALL SmartHomeApp_MessageMSGCB, SHEndPointReveiceAirConMsg
        LOCFRAME ISTACK, 0, STACK
        LOCFRAME PSTACK, 0, STACK
        LOCFRAME XSTACK, 12, STACK
        LOCFRAME IOVERLAY, 0, STATIC
        LOCFRAME DOVERLAY, 0, STATIC
        ARGFRAME ISTACK, 0, STACK
        ARGFRAME PSTACK, 0, STACK
        ARGFRAME XSTACK, 12, STACK
        ARGFRAME IOVERLAY, 0, STATIC
        ARGFRAME DOVERLAY, 0, STATIC
        MOV     A,#-0xc
        LCALL   ?BANKED_ENTER_XDATA
        CFI DPH0 load(1, XDATA, add(CFA_XSP16, literal(-1)))
        CFI DPL0 load(1, XDATA, add(CFA_XSP16, literal(-2)))
        CFI ?BRET_EXT load(1, XDATA, add(CFA_XSP16, literal(-3)))
        CFI ?RET_HIGH load(1, XDATA, add(CFA_XSP16, literal(-4)))
        CFI ?RET_LOW load(1, XDATA, add(CFA_XSP16, literal(-5)))
        CFI R7 load(1, XDATA, add(CFA_XSP16, literal(-6)))
        CFI V3 load(1, XDATA, add(CFA_XSP16, literal(-7)))
        CFI V2 load(1, XDATA, add(CFA_XSP16, literal(-8)))
        CFI V1 load(1, XDATA, add(CFA_XSP16, literal(-9)))
        CFI V0 load(1, XDATA, add(CFA_XSP16, literal(-10)))
        CFI VB load(1, XDATA, add(CFA_XSP16, literal(-11)))
        CFI R6 load(1, XDATA, add(CFA_XSP16, literal(-12)))
        CFI CFA_SP SP+0
        CFI CFA_XSP16 add(XSP16, 12)
        ; Saved register size: 12
        ; Auto size: 0
        MOV     A,R2
        MOV     R6,A
        MOV     A,R3
        MOV     R7,A
//  486   //HalUARTWrite(0,"REVC:\n",6);
//  487   uint16 flashTime;
//  488 
//  489   switch ( pkt->clusterId )
        MOV     A,R6
        ADD     A,#0x21
        MOV     ?V0 + 0,A
        MOV     A,R7
        ADDC    A,#0x0
        MOV     ?V0 + 1,A
        MOV     DPL,R6
        MOV     DPH,R7
        INC     DPTR
        INC     DPTR
        INC     DPTR
        INC     DPTR
        MOVX    A,@DPTR
        MOV     ?V0 + 2,A
        INC     DPTR
        MOVX    A,@DPTR
        JZ      $+5
        LJMP    ??SmartHomeApp_MessageMSGCB_0 & 0xFFFF
        MOV     A,?V0 + 2
        LCALL   ?UC_SWITCH_SPARSE
`?<Jumptable for SmartHomeApp_MessageMSGCB>_0`:
        DATA
        DATA8
        DATA
        DATA8
        DATA
        DATA8
        DB        0
        DATA
        DATA8
        DATA
        DATA8
        DATA
        DATA8
        DB        7
        DATA
        DATA8
        DATA
        DATA8
        DATA
        DATA8
        DB        0
        DATA
        DATA16
        DATA
        DATA16
        DATA
        DATA16
        DW        ??SmartHomeApp_MessageMSGCB_1
        DATA
        DATA8
        DATA
        DATA8
        DATA
        DATA8
        DB        1
        DATA
        DATA16
        DATA
        DATA16
        DATA
        DATA16
        DW        ??SmartHomeApp_MessageMSGCB_2
        DATA
        DATA8
        DATA
        DATA8
        DATA
        DATA8
        DB        2
        DATA
        DATA16
        DATA
        DATA16
        DATA
        DATA16
        DW        ??SmartHomeApp_MessageMSGCB_3
        DATA
        DATA8
        DATA
        DATA8
        DATA
        DATA8
        DB        3
        DATA
        DATA16
        DATA
        DATA16
        DATA
        DATA16
        DW        ??SmartHomeApp_MessageMSGCB_4
        DATA
        DATA8
        DATA
        DATA8
        DATA
        DATA8
        DB        4
        DATA
        DATA16
        DATA
        DATA16
        DATA
        DATA16
        DW        ??SmartHomeApp_MessageMSGCB_5
        DATA
        DATA8
        DATA
        DATA8
        DATA
        DATA8
        DB        100
        DATA
        DATA16
        DATA
        DATA16
        DATA
        DATA16
        DW        ??SmartHomeApp_MessageMSGCB_6
        DATA
        DATA8
        DATA
        DATA8
        DATA
        DATA8
        DB        102
        DATA
        DATA16
        DATA
        DATA16
        DATA
        DATA16
        DW        ??SmartHomeApp_MessageMSGCB_7
        DATA
        DATA16
        DATA
        DATA16
        DW        ??SmartHomeApp_MessageMSGCB_0
        CODE
//  490   {
//  491     case SMARTHOMEAPP_P2P_CLUSTERID:
//  492       HalUARTWrite(0, "Rx:", 3);       //提示接收到数据
??SmartHomeApp_MessageMSGCB_6:
        ; Setup parameters for call to function HalUARTWrite
        MOV     R4,#0x3
        MOV     R5,#0x0
        MOV     R2,#`?<Constant "Rx:">` & 0xff
        MOV     R3,#(`?<Constant "Rx:">` >> 8) & 0xff
        MOV     R1,#0x0
        LCALL   ??HalUARTWrite?relay
//  493       HalUARTWrite(0, pkt->cmd.Data, pkt->cmd.DataLength); //串口输出接收到的数据
        ; Setup parameters for call to function HalUARTWrite
        LCALL   ?Subroutine9 & 0xFFFF
??CrossCallReturnLabel_108:
        MOV     R4,A
        INC     DPTR
        MOVX    A,@DPTR
        MOV     R5,A
        MOV     DPL,?V0 + 0
        MOV     DPH,?V0 + 1
        MOVX    A,@DPTR
        MOV     R2,A
        INC     DPTR
        MOVX    A,@DPTR
        MOV     R3,A
        MOV     R1,#0x0
        LCALL   ??HalUARTWrite?relay
//  494       HalUARTWrite(0, "\n", 1);         // 回车换行
        ; Setup parameters for call to function HalUARTWrite
        MOV     R4,#0x1
        MOV     R5,#0x0
        MOV     R2,#`?<Constant "\\n">` & 0xff
        MOV     R3,#(`?<Constant "\\n">` >> 8) & 0xff
        MOV     R1,#0x0
        LCALL   ??HalUARTWrite?relay
//  495       break;    
        SJMP    ??SmartHomeApp_MessageMSGCB_0
//  496     case SMARTHOMEAPP_PERIODIC_CLUSTERID:
//  497       break;
//  498 
//  499     case SMARTHOMEAPP_FLASH_CLUSTERID:
//  500       flashTime = BUILD_UINT16(pkt->cmd.Data[1], pkt->cmd.Data[2] );
//  501       HalLedBlink( HAL_LED_4, 4, 50, (flashTime / 4) );
??SmartHomeApp_MessageMSGCB_7:
        MOV     DPL,?V0 + 0
        MOV     DPH,?V0 + 1
        LCALL   ?Subroutine31 & 0xFFFF
??CrossCallReturnLabel_55:
        ; Setup parameters for call to function HalLedBlink
        MOV     DPL,R0
        MOV     DPH,R1
        INC     DPTR
        MOVX    A,@DPTR
        MOV     R2,A
        MOV     DPL,R0
        MOV     DPH,R1
        INC     DPTR
        INC     DPTR
        MOVX    A,@DPTR
        MOV     R1,A
        MOV     A,R2
        ADD     A,#0x0
        MOV     ?V0 + 0,A
        CLR     A
        ADDC    A,R1
        MOV     ?V0 + 1,A
        MOV     A,#0x2
        MOV     R0,#?V0 + 0
        LCALL   ?US_SHR
        MOV     R4,?V0 + 0
        MOV     R5,?V0 + 1
        MOV     R3,#0x32
        MOV     R2,#0x4
        MOV     R1,#0x8
        LCALL   ??HalLedBlink?relay
//  502       break;
        SJMP    ??SmartHomeApp_MessageMSGCB_0
//  503     case SMARTHOME_MACADDRMSG:
//  504 	SHCoordSendMacAddrMsg(pkt);
??SmartHomeApp_MessageMSGCB_1:
        ; Setup parameters for call to function SHCoordSendMacAddrMsg
        LCALL   ??SHCoordSendMacAddrMsg?relay
//  505 	break;
        SJMP    ??SmartHomeApp_MessageMSGCB_0
//  506     case SMARTHOME_TEMPHUMIMSG:
//  507 	SHCoordSendDHT11Msg(pkt);
??SmartHomeApp_MessageMSGCB_2:
        ; Setup parameters for call to function SHCoordSendDHT11Msg
        LCALL   ??SHCoordSendDHT11Msg?relay
//  508 	break;
        SJMP    ??SmartHomeApp_MessageMSGCB_0
//  509 	case SMARTHOME_FIREALARM:
//  510 	SHCoordSendFireAlarmMsg(pkt);
??SmartHomeApp_MessageMSGCB_4:
        ; Setup parameters for call to function SHCoordSendFireAlarmMsg
        LCALL   ??SHCoordSendFireAlarmMsg?relay
//  511 	break;
        SJMP    ??SmartHomeApp_MessageMSGCB_0
//  512 	case SMARTHOME_SMOKEALARM:
//  513 	SHCoordSendSmokeAlarmMsg(pkt);
??SmartHomeApp_MessageMSGCB_5:
        ; Setup parameters for call to function SHCoordSendSmokeAlarmMsg
        LCALL   ??SHCoordSendSmokeAlarmMsg?relay
//  514 	break;
        SJMP    ??SmartHomeApp_MessageMSGCB_0
//  515 	case SMARTHOME_AIRCONDITIONMSG:
//  516 	SHEndPointReveiceAirConMsg(pkt);
??SmartHomeApp_MessageMSGCB_3:
        ; Setup parameters for call to function SHEndPointReveiceAirConMsg
        LCALL   ??SHEndPointReveiceAirConMsg?relay
//  517 	break;
//  518 	default : break;
//  519   }
//  520 }
??SmartHomeApp_MessageMSGCB_0:
        LJMP    ?Subroutine2 & 0xFFFF
        CFI EndBlock cfiBlock6
//  521 
//  522 /*********************************************************************
//  523  * @fn      SmartHomeApp_SendPeriodicMessage
//  524  *
//  525  * @brief   Send the periodic message.
//  526  *
//  527  * @param   none
//  528  *
//  529  * @return  none
//  530  */

        RSEG BANKED_CODE:CODE:NOROOT(0)
//  531 void SmartHomeApp_SendPeriodicMessage( void )
SmartHomeApp_SendPeriodicMessage:
        CFI Block cfiBlock7 Using cfiCommon0
        CFI Function SmartHomeApp_SendPeriodicMessage
        CODE
//  532 {
        ; Saved register size: 0
        ; Auto size: 0
//  533 }
        LJMP    ?BRET
        CFI EndBlock cfiBlock7
//  534 
//  535 /*********************************************************************
//  536  * @fn      SmartHomeApp_SendFlashMessage
//  537  *
//  538  * @brief   Send the flash message to group 1.
//  539  *
//  540  * @param   flashTime - in milliseconds
//  541  *
//  542  * @return  none
//  543  */

        RSEG BANKED_CODE:CODE:NOROOT(0)
//  544 void SmartHomeApp_SendFlashMessage( uint16 flashTime )
SmartHomeApp_SendFlashMessage:
        CFI Block cfiBlock8 Using cfiCommon0
        CFI Function SmartHomeApp_SendFlashMessage
        CODE
//  545 {
        ; Saved register size: 0
        ; Auto size: 0
//  546 }
        LJMP    ?BRET
        CFI EndBlock cfiBlock8
//  547 
//  548 /*********************************************************************
//  549  * @fn      SmartHomeApp_Send_P2P_Message
//  550  *
//  551  * @brief   point to point.
//  552  *
//  553  * @param   none
//  554  *
//  555  * @return  none
//  556  */

        RSEG BANKED_CODE:CODE:NOROOT(0)
//  557 void SmartHomeApp_Send_P2P_Message( void )   ///////
SmartHomeApp_Send_P2P_Message:
        CFI Block cfiBlock9 Using cfiCommon0
        CFI Function SmartHomeApp_Send_P2P_Message
        CODE
//  558 {
        ; Saved register size: 0
        ; Auto size: 0
//  559 }
        LJMP    ?BRET
        CFI EndBlock cfiBlock9
//  560 
//  561 

        RSEG BANKED_CODE:CODE:NOROOT(0)
//  562 void SHEndPointSendMacAddrMsg()
SHEndPointSendMacAddrMsg:
        CFI Block cfiBlock10 Using cfiCommon0
        CFI Function SHEndPointSendMacAddrMsg
        CODE
//  563 {
        FUNCALL SHEndPointSendMacAddrMsg, AF_DataRequest
        LOCFRAME ISTACK, 0, STACK
        LOCFRAME PSTACK, 0, STACK
        LOCFRAME XSTACK, 19, STACK
        LOCFRAME IOVERLAY, 0, STATIC
        LOCFRAME DOVERLAY, 0, STATIC
        ARGFRAME ISTACK, 0, STACK
        ARGFRAME PSTACK, 0, STACK
        ARGFRAME XSTACK, 19, STACK
        ARGFRAME IOVERLAY, 0, STATIC
        ARGFRAME DOVERLAY, 0, STATIC
        MOV     A,#-0xa
        LCALL   ?BANKED_ENTER_XDATA
        CFI DPH0 load(1, XDATA, add(CFA_XSP16, literal(-1)))
        CFI DPL0 load(1, XDATA, add(CFA_XSP16, literal(-2)))
        CFI ?BRET_EXT load(1, XDATA, add(CFA_XSP16, literal(-3)))
        CFI ?RET_HIGH load(1, XDATA, add(CFA_XSP16, literal(-4)))
        CFI ?RET_LOW load(1, XDATA, add(CFA_XSP16, literal(-5)))
        CFI R7 load(1, XDATA, add(CFA_XSP16, literal(-6)))
        CFI V1 load(1, XDATA, add(CFA_XSP16, literal(-7)))
        CFI V0 load(1, XDATA, add(CFA_XSP16, literal(-8)))
        CFI VB load(1, XDATA, add(CFA_XSP16, literal(-9)))
        CFI R6 load(1, XDATA, add(CFA_XSP16, literal(-10)))
        CFI CFA_SP SP+0
        CFI CFA_XSP16 add(XSP16, 10)
        ; Saved register size: 10
        ; Auto size: 0
//  564   uint8 *macAddr = aExtendedAddress;
//  565   
//  566   if ( AF_DataRequest( &SmartHomeApp_P2P_DstAddr, &SmartHomeApp_epDesc,
//  567                        SMARTHOME_MACADDRMSG,
//  568                        8,
//  569                        macAddr,
//  570                        &SmartHomeApp_TransID,
//  571                        AF_DISCV_ROUTE,
//  572                        AF_DEFAULT_RADIUS ) == afStatus_SUCCESS )
        ; Setup parameters for call to function AF_DataRequest
        MOV     ?V0 + 0,#0x1e
        MOV     R0,#?V0 + 0
        LCALL   ?PUSH_XSTACK_I_ONE
        CFI CFA_XSP16 add(XSP16, 11)
        MOV     ?V0 + 0,#SmartHomeApp_TransID & 0xff
        MOV     ?V0 + 1,#(SmartHomeApp_TransID >> 8) & 0xff
        MOV     R0,#?V0 + 0
        LCALL   ?PUSH_XSTACK_I_TWO
        CFI CFA_XSP16 add(XSP16, 13)
        MOV     ?V0 + 0,#aExtendedAddress & 0xff
        MOV     ?V0 + 1,#(aExtendedAddress >> 8) & 0xff
        MOV     R0,#?V0 + 0
        LCALL   ?PUSH_XSTACK_I_TWO
        CFI CFA_XSP16 add(XSP16, 15)
        MOV     ?V0 + 0,#0x8
        MOV     ?V0 + 1,#0x0
        MOV     R0,#?V0 + 0
        LCALL   ?PUSH_XSTACK_I_TWO
        CFI CFA_XSP16 add(XSP16, 17)
        CLR     A
        MOV     ?V0 + 0,A
        MOV     R0,#?V0 + 0
        LCALL   ?PUSH_XSTACK_I_TWO
        CFI CFA_XSP16 add(XSP16, 19)
        LCALL   ?Subroutine23 & 0xFFFF
        CFI EndBlock cfiBlock10
??CrossCallReturnLabel_66:
        REQUIRE ?Subroutine3
        ; // Fall through to label ?Subroutine3
//  573   {
//  574   }
//  575   else
//  576   {
//  577     // Error occurred in request to send.
//  578   }
//  579 }

        RSEG BANKED_CODE:CODE:NOROOT(0)
?Subroutine3:
        CFI Block cfiBlock11 Using cfiCommon0
        CFI NoFunction
        CFI CFA_SP SP+0
        CFI CFA_XSP16 add(XSP16, 19)
        CFI VB load(1, XDATA, add(CFA_XSP16, literal(-9)))
        CFI DPL0 load(1, XDATA, add(CFA_XSP16, literal(-2)))
        CFI DPH0 load(1, XDATA, add(CFA_XSP16, literal(-1)))
        CFI R6 load(1, XDATA, add(CFA_XSP16, literal(-10)))
        CFI R7 load(1, XDATA, add(CFA_XSP16, literal(-6)))
        CFI V0 load(1, XDATA, add(CFA_XSP16, literal(-8)))
        CFI V1 load(1, XDATA, add(CFA_XSP16, literal(-7)))
        CFI ?BRET_EXT load(1, XDATA, add(CFA_XSP16, literal(-3)))
        CFI ?RET_HIGH load(1, XDATA, add(CFA_XSP16, literal(-4)))
        CFI ?RET_LOW load(1, XDATA, add(CFA_XSP16, literal(-5)))
        CFI Invalid
        LCALL   ?DEALLOC_XSTACK8
        CFI EndBlock cfiBlock11
        REQUIRE ??Subroutine36_0
        ; // Fall through to label ??Subroutine36_0

        RSEG BANKED_CODE:CODE:NOROOT(0)
??Subroutine36_0:
        CFI Block cfiBlock12 Using cfiCommon0
        CFI NoFunction
        CFI CFA_SP SP+0
        CFI CFA_XSP16 add(XSP16, 10)
        CFI VB load(1, XDATA, add(CFA_XSP16, literal(-9)))
        CFI DPL0 load(1, XDATA, add(CFA_XSP16, literal(-2)))
        CFI DPH0 load(1, XDATA, add(CFA_XSP16, literal(-1)))
        CFI R6 load(1, XDATA, add(CFA_XSP16, literal(-10)))
        CFI R7 load(1, XDATA, add(CFA_XSP16, literal(-6)))
        CFI V0 load(1, XDATA, add(CFA_XSP16, literal(-8)))
        CFI V1 load(1, XDATA, add(CFA_XSP16, literal(-7)))
        CFI ?BRET_EXT load(1, XDATA, add(CFA_XSP16, literal(-3)))
        CFI ?RET_HIGH load(1, XDATA, add(CFA_XSP16, literal(-4)))
        CFI ?RET_LOW load(1, XDATA, add(CFA_XSP16, literal(-5)))
        MOV     R7,#0x2
        LJMP    ?BANKED_LEAVE_XDATA
        CFI EndBlock cfiBlock12

        RSEG BANKED_CODE:CODE:NOROOT(0)
//  580 void SHCoordSendMacAddrMsg(afIncomingMSGPacket_t *pkt)
SHCoordSendMacAddrMsg:
        CFI Block cfiBlock13 Using cfiCommon0
        CFI Function SHCoordSendMacAddrMsg
        CODE
//  581 {
        FUNCALL SHCoordSendMacAddrMsg, SHCoordSendUartMsg
        LOCFRAME ISTACK, 2, STACK
        LOCFRAME PSTACK, 0, STACK
        LOCFRAME XSTACK, 50, STACK
        LOCFRAME IOVERLAY, 0, STATIC
        LOCFRAME DOVERLAY, 0, STATIC
        ARGFRAME ISTACK, 2, STACK
        ARGFRAME PSTACK, 0, STACK
        ARGFRAME XSTACK, 50, STACK
        ARGFRAME IOVERLAY, 0, STATIC
        ARGFRAME DOVERLAY, 0, STATIC
        PUSH    DPL
        CFI DPL0 Frame(CFA_SP, 4)
        CFI CFA_SP SP+-4
        PUSH    DPH
        CFI DPH0 Frame(CFA_SP, 5)
        CFI CFA_SP SP+-5
        ; Saved register size: 2
        ; Auto size: 25
        MOV     A,#-0x19
        LCALL   ?ALLOC_XSTACK8
        CFI CFA_XSP16 add(XSP16, 25)
//  582 
//  583   uartSendMsg msg;
//  584   
//  585   msg.header = 0xff;
        LCALL   ?Subroutine12 & 0xFFFF
//  586   msg.shortAddr = pkt->srcAddr.addr.shortAddr;
??CrossCallReturnLabel_13:
        LCALL   ?XSTACK_DISP0_8
        LCALL   ?Subroutine5 & 0xFFFF
//  587   for(int i=0;i<8;i++)
//  588  {
//  589 	msg.extAddr[i] =  pkt->cmd.Data[7-i];
??CrossCallReturnLabel_4:
        LCALL   ?Subroutine20 & 0xFFFF
//  590  }
??CrossCallReturnLabel_29:
        PUSH    A
        CFI CFA_SP SP+-6
        LCALL   ?Subroutine22 & 0xFFFF
??CrossCallReturnLabel_37:
        POP     A
        CFI CFA_SP SP+-5
        LCALL   ?Subroutine4 & 0xFFFF
??CrossCallReturnLabel_0:
        JC      ??CrossCallReturnLabel_4
//  591   msg.body.msgType = SMARTHOME_MACADDRMSG;
        MOV     A,#0xb
        LCALL   ?XSTACK_DISP0_8
        CLR     A
        MOVX    @DPTR,A
//  592   msg.body.len = 0;
        MOV     A,#0xc
        LCALL   ?XSTACK_DISP0_8
        CLR     A
        MOVX    @DPTR,A
//  593 
//  594   for(int i=0;i<msg.body.len;i++)
        MOV     R2,A
        SJMP    ??CrossCallReturnLabel_83
//  595   {
//  596 	  msg.body.data[i] = pkt->cmd.Data[8+i];
??SHCoordSendMacAddrMsg_0:
        LCALL   ?Subroutine21 & 0xFFFF
//  597   }
??CrossCallReturnLabel_33:
        PUSH    A
        CFI CFA_SP SP+-6
        LCALL   ?Subroutine11 & 0xFFFF
??CrossCallReturnLabel_79:
        POP     A
        CFI CFA_SP SP+-5
        LCALL   ?Subroutine7 & 0xFFFF
??CrossCallReturnLabel_83:
        MOV     R3,A
        MOV     A,#0xc
        LCALL   ?XSTACK_DISP0_8
        LCALL   ?Subroutine17 & 0xFFFF
??CrossCallReturnLabel_23:
        JC      ??SHCoordSendMacAddrMsg_0
//  598   msg.tailer = 0x11;
        LJMP    ?Subroutine0 & 0xFFFF
        CFI EndBlock cfiBlock13
//  599   
//  600   SHCoordSendUartMsg(msg);
//  601 }
//  602 

        RSEG BANKED_CODE:CODE:NOROOT(0)
//  603 void SHEndPointSendDHT11Msg()
SHEndPointSendDHT11Msg:
        CFI Block cfiBlock14 Using cfiCommon0
        CFI Function SHEndPointSendDHT11Msg
        CODE
//  604 {
        FUNCALL SHEndPointSendDHT11Msg, DHT11
        LOCFRAME ISTACK, 0, STACK
        LOCFRAME PSTACK, 0, STACK
        LOCFRAME XSTACK, 25, STACK
        LOCFRAME IOVERLAY, 0, STATIC
        LOCFRAME DOVERLAY, 0, STATIC
        ARGFRAME ISTACK, 0, STACK
        ARGFRAME PSTACK, 0, STACK
        ARGFRAME XSTACK, 25, STACK
        ARGFRAME IOVERLAY, 0, STATIC
        ARGFRAME DOVERLAY, 0, STATIC
        FUNCALL SHEndPointSendDHT11Msg, osal_memcpy
        LOCFRAME ISTACK, 0, STACK
        LOCFRAME PSTACK, 0, STACK
        LOCFRAME XSTACK, 28, STACK
        LOCFRAME IOVERLAY, 0, STATIC
        LOCFRAME DOVERLAY, 0, STATIC
        ARGFRAME ISTACK, 0, STACK
        ARGFRAME PSTACK, 0, STACK
        ARGFRAME XSTACK, 28, STACK
        ARGFRAME IOVERLAY, 0, STATIC
        ARGFRAME DOVERLAY, 0, STATIC
        FUNCALL SHEndPointSendDHT11Msg, osal_memcpy
        LOCFRAME ISTACK, 0, STACK
        LOCFRAME PSTACK, 0, STACK
        LOCFRAME XSTACK, 28, STACK
        LOCFRAME IOVERLAY, 0, STATIC
        LOCFRAME DOVERLAY, 0, STATIC
        ARGFRAME ISTACK, 0, STACK
        ARGFRAME PSTACK, 0, STACK
        ARGFRAME XSTACK, 28, STACK
        ARGFRAME IOVERLAY, 0, STATIC
        ARGFRAME DOVERLAY, 0, STATIC
        FUNCALL SHEndPointSendDHT11Msg, osal_memcpy
        LOCFRAME ISTACK, 0, STACK
        LOCFRAME PSTACK, 0, STACK
        LOCFRAME XSTACK, 28, STACK
        LOCFRAME IOVERLAY, 0, STATIC
        LOCFRAME DOVERLAY, 0, STATIC
        ARGFRAME ISTACK, 0, STACK
        ARGFRAME PSTACK, 0, STACK
        ARGFRAME XSTACK, 28, STACK
        ARGFRAME IOVERLAY, 0, STATIC
        ARGFRAME DOVERLAY, 0, STATIC
        FUNCALL SHEndPointSendDHT11Msg, AF_DataRequest
        LOCFRAME ISTACK, 0, STACK
        LOCFRAME PSTACK, 0, STACK
        LOCFRAME XSTACK, 34, STACK
        LOCFRAME IOVERLAY, 0, STATIC
        LOCFRAME DOVERLAY, 0, STATIC
        ARGFRAME ISTACK, 0, STACK
        ARGFRAME PSTACK, 0, STACK
        ARGFRAME XSTACK, 34, STACK
        ARGFRAME IOVERLAY, 0, STATIC
        ARGFRAME DOVERLAY, 0, STATIC
        MOV     A,#-0xb
        LCALL   ?BANKED_ENTER_XDATA
        CFI DPH0 load(1, XDATA, add(CFA_XSP16, literal(-1)))
        CFI DPL0 load(1, XDATA, add(CFA_XSP16, literal(-2)))
        CFI ?BRET_EXT load(1, XDATA, add(CFA_XSP16, literal(-3)))
        CFI ?RET_HIGH load(1, XDATA, add(CFA_XSP16, literal(-4)))
        CFI ?RET_LOW load(1, XDATA, add(CFA_XSP16, literal(-5)))
        CFI R7 load(1, XDATA, add(CFA_XSP16, literal(-6)))
        CFI V2 load(1, XDATA, add(CFA_XSP16, literal(-7)))
        CFI V1 load(1, XDATA, add(CFA_XSP16, literal(-8)))
        CFI V0 load(1, XDATA, add(CFA_XSP16, literal(-9)))
        CFI VB load(1, XDATA, add(CFA_XSP16, literal(-10)))
        CFI R6 load(1, XDATA, add(CFA_XSP16, literal(-11)))
        CFI CFA_SP SP+0
        CFI CFA_XSP16 add(XSP16, 11)
        ; Saved register size: 11
        ; Auto size: 14
        MOV     A,#-0xe
        LCALL   ?ALLOC_XSTACK8
        CFI CFA_XSP16 add(XSP16, 25)
//  605   P0SEL &= 0x7f;                  //P0_7配置成通用io
        ANL     0xf3,#0x7f
//  606   byte temp, humidity, data[12];
//  607   DHT11(); 
        ; Setup parameters for call to function DHT11
        LCALL   ??DHT11?relay
//  608   uint8 *macAddr = aExtendedAddress;
//  609   temp = wendu_shi<<4 |wendu_ge;
        MOV     DPTR,#wendu_ge
        PUSH    DPL
        CFI CFA_SP SP+-1
        MOV     DPTR,#wendu_shi
        MOVX    A,@DPTR
        SWAP    A
        ANL     A,#0xf0
        MOV     DPH,#(wendu_ge >> 8) & 0xff
        POP     DPL
        CFI CFA_SP SP+0
        MOV     R0,A
        MOVX    A,@DPTR
        ORL     A,R0
        PUSH    A
        CFI CFA_SP SP+-1
        MOV     A,#0x1
        LCALL   ?XSTACK_DISP0_8
        POP     A
        CFI CFA_SP SP+0
        MOVX    @DPTR,A
//  610   humidity = shidu_shi<<4 |shidu_ge;
        MOV     DPTR,#shidu_ge
        PUSH    DPL
        CFI CFA_SP SP+-1
        MOV     DPTR,#shidu_shi
        MOVX    A,@DPTR
        SWAP    A
        ANL     A,#0xf0
        MOV     DPH,#(shidu_ge >> 8) & 0xff
        POP     DPL
        CFI CFA_SP SP+0
        MOV     R0,A
        MOVX    A,@DPTR
        ORL     A,R0
        MOV     DPL,?XSP + 0
        MOV     DPH,?XSP + 1
        MOVX    @DPTR,A
//  611 
//  612   osal_memcpy(data, macAddr, 8); 
        ; Setup parameters for call to function osal_memcpy
        MOV     ?V0 + 0,#aExtendedAddress & 0xff
        MOV     ?V0 + 1,#(aExtendedAddress >> 8) & 0xff
        MOV     ?V0 + 2,#0x0
        MOV     R0,#?V0 + 0
        LCALL   ?PUSH_XSTACK_I_THREE
        CFI CFA_XSP16 add(XSP16, 28)
        MOV     R4,#0x8
        MOV     R5,#0x0
        MOV     A,#0x5
        LCALL   ?XSTACK_DISP0_8
        LCALL   ?Subroutine18 & 0xFFFF
??CrossCallReturnLabel_71:
        LCALL   ?DEALLOC_XSTACK8
        CFI CFA_XSP16 add(XSP16, 25)
//  613   osal_memcpy(&data[8],&temp, 1);
        ; Setup parameters for call to function osal_memcpy
        MOV     A,#0x1
        LCALL   ?XSTACK_DISP0_8
        MOV     R1,DPL
        MOV     R2,DPH
        MOV     ?V0 + 0,R1
        MOV     ?V0 + 1,R2
        MOV     R0,#?V0 + 0
        LCALL   ?PUSH_XSTACK_I_THREE
        CFI CFA_XSP16 add(XSP16, 28)
        MOV     R4,#0x1
        MOV     R5,#0x0
        MOV     A,#0xd
        LCALL   ?XSTACK_DISP0_8
        LCALL   ?Subroutine18 & 0xFFFF
??CrossCallReturnLabel_72:
        LCALL   ?DEALLOC_XSTACK8
        CFI CFA_XSP16 add(XSP16, 25)
//  614   osal_memcpy(&data[9],&humidity, 1);
        ; Setup parameters for call to function osal_memcpy
        MOV     DPL,?XSP + 0
        MOV     DPH,?XSP + 1
        MOV     R1,DPL
        MOV     R2,DPH
        MOV     ?V0 + 0,R1
        MOV     ?V0 + 1,R2
        MOV     R0,#?V0 + 0
        LCALL   ?PUSH_XSTACK_I_THREE
        CFI CFA_XSP16 add(XSP16, 28)
        MOV     R4,#0x1
        MOV     R5,#0x0
        MOV     A,#0xe
        LCALL   ?XSTACK_DISP0_8
        LCALL   ?Subroutine18 & 0xFFFF
??CrossCallReturnLabel_73:
        LCALL   ?DEALLOC_XSTACK8
        CFI CFA_XSP16 add(XSP16, 25)
//  615   //HalUARTWrite(0,data,10);
//  616 
//  617     if ( AF_DataRequest( &SmartHomeApp_P2P_DstAddr, &SmartHomeApp_epDesc,
//  618                        SMARTHOME_TEMPHUMIMSG,
//  619                        10,
//  620                        data,
//  621                        &SmartHomeApp_TransID,
//  622                        AF_DISCV_ROUTE,
//  623                        AF_DEFAULT_RADIUS ) == afStatus_SUCCESS )
        ; Setup parameters for call to function AF_DataRequest
        MOV     ?V0 + 0,#0x1e
        MOV     R0,#?V0 + 0
        LCALL   ?PUSH_XSTACK_I_ONE
        CFI CFA_XSP16 add(XSP16, 26)
        MOV     ?V0 + 0,#SmartHomeApp_TransID & 0xff
        MOV     ?V0 + 1,#(SmartHomeApp_TransID >> 8) & 0xff
        MOV     R0,#?V0 + 0
        LCALL   ?PUSH_XSTACK_I_TWO
        CFI CFA_XSP16 add(XSP16, 28)
        MOV     A,#0x5
        LCALL   ?XSTACK_DISP0_8
        MOV     ?V0 + 0,DPL
        MOV     ?V0 + 1,DPH
        MOV     R0,#?V0 + 0
        LCALL   ?PUSH_XSTACK_I_TWO
        CFI CFA_XSP16 add(XSP16, 30)
        MOV     ?V0 + 0,#0xa
        MOV     ?V0 + 1,#0x0
        MOV     R0,#?V0 + 0
        LCALL   ?PUSH_XSTACK_I_TWO
        CFI CFA_XSP16 add(XSP16, 32)
        MOV     ?V0 + 0,#0x1
        MOV     R0,#?V0 + 0
        LCALL   ?PUSH_XSTACK_I_TWO
        CFI CFA_XSP16 add(XSP16, 34)
        LCALL   ?Subroutine23 & 0xFFFF
??CrossCallReturnLabel_67:
        LCALL   ?DEALLOC_XSTACK8
        CFI CFA_XSP16 add(XSP16, 25)
//  624   {
//  625   }
//  626   else
//  627   {
//  628     // Error occurred in request to send.
//  629   }
//  630 }
        MOV     A,#0xe
        SJMP    ??Subroutine38_0
        CFI EndBlock cfiBlock14
        REQUIRE P0SEL

        RSEG BANKED_CODE:CODE:NOROOT(0)
?Subroutine23:
        CFI Block cfiCond15 Using cfiCommon0
        CFI NoFunction
        CFI Conditional ??CrossCallReturnLabel_66
        CFI R6 load(1, XDATA, add(CFA_XSP16, literal(-10)))
        CFI VB load(1, XDATA, add(CFA_XSP16, literal(-9)))
        CFI V0 load(1, XDATA, add(CFA_XSP16, literal(-8)))
        CFI V1 load(1, XDATA, add(CFA_XSP16, literal(-7)))
        CFI R7 load(1, XDATA, add(CFA_XSP16, literal(-6)))
        CFI ?RET_LOW load(1, XDATA, add(CFA_XSP16, literal(-5)))
        CFI ?RET_HIGH load(1, XDATA, add(CFA_XSP16, literal(-4)))
        CFI ?BRET_EXT load(1, XDATA, add(CFA_XSP16, literal(-3)))
        CFI DPL0 load(1, XDATA, add(CFA_XSP16, literal(-2)))
        CFI DPH0 load(1, XDATA, add(CFA_XSP16, literal(-1)))
        CFI CFA_SP SP+0
        CFI CFA_XSP16 add(XSP16, 19)
        CFI Block cfiCond16 Using cfiCommon0
        CFI (cfiCond16) NoFunction
        CFI (cfiCond16) Conditional ??CrossCallReturnLabel_67
        CFI (cfiCond16) R6 load(1, XDATA, add(CFA_XSP16, literal(-11)))
        CFI (cfiCond16) VB load(1, XDATA, add(CFA_XSP16, literal(-10)))
        CFI (cfiCond16) V0 load(1, XDATA, add(CFA_XSP16, literal(-9)))
        CFI (cfiCond16) V1 load(1, XDATA, add(CFA_XSP16, literal(-8)))
        CFI (cfiCond16) V2 load(1, XDATA, add(CFA_XSP16, literal(-7)))
        CFI (cfiCond16) R7 load(1, XDATA, add(CFA_XSP16, literal(-6)))
        CFI (cfiCond16) ?RET_LOW load(1, XDATA, add(CFA_XSP16, literal(-5)))
        CFI (cfiCond16) ?RET_HIGH load(1, XDATA, add(CFA_XSP16, literal(-4)))
        CFI (cfiCond16) ?BRET_EXT load(1, XDATA, add(CFA_XSP16, literal(-3)))
        CFI (cfiCond16) DPL0 load(1, XDATA, add(CFA_XSP16, literal(-2)))
        CFI (cfiCond16) DPH0 load(1, XDATA, add(CFA_XSP16, literal(-1)))
        CFI (cfiCond16) CFA_SP SP+0
        CFI (cfiCond16) CFA_XSP16 add(XSP16, 34)
        CFI Block cfiCond17 Using cfiCommon0
        CFI (cfiCond17) NoFunction
        CFI (cfiCond17) Conditional ??CrossCallReturnLabel_68
        CFI (cfiCond17) R6 load(1, XDATA, add(CFA_XSP16, literal(-11)))
        CFI (cfiCond17) VB load(1, XDATA, add(CFA_XSP16, literal(-10)))
        CFI (cfiCond17) V0 load(1, XDATA, add(CFA_XSP16, literal(-9)))
        CFI (cfiCond17) V1 load(1, XDATA, add(CFA_XSP16, literal(-8)))
        CFI (cfiCond17) V2 load(1, XDATA, add(CFA_XSP16, literal(-7)))
        CFI (cfiCond17) R7 load(1, XDATA, add(CFA_XSP16, literal(-6)))
        CFI (cfiCond17) ?RET_LOW load(1, XDATA, add(CFA_XSP16, literal(-5)))
        CFI (cfiCond17) ?RET_HIGH load(1, XDATA, add(CFA_XSP16, literal(-4)))
        CFI (cfiCond17) ?BRET_EXT load(1, XDATA, add(CFA_XSP16, literal(-3)))
        CFI (cfiCond17) DPL0 load(1, XDATA, add(CFA_XSP16, literal(-2)))
        CFI (cfiCond17) DPH0 load(1, XDATA, add(CFA_XSP16, literal(-1)))
        CFI (cfiCond17) CFA_SP SP+0
        CFI (cfiCond17) CFA_XSP16 add(XSP16, 28)
        CFI Block cfiCond18 Using cfiCommon0
        CFI (cfiCond18) NoFunction
        CFI (cfiCond18) Conditional ??CrossCallReturnLabel_69
        CFI (cfiCond18) R6 load(1, XDATA, add(CFA_XSP16, literal(-11)))
        CFI (cfiCond18) VB load(1, XDATA, add(CFA_XSP16, literal(-10)))
        CFI (cfiCond18) V0 load(1, XDATA, add(CFA_XSP16, literal(-9)))
        CFI (cfiCond18) V1 load(1, XDATA, add(CFA_XSP16, literal(-8)))
        CFI (cfiCond18) V2 load(1, XDATA, add(CFA_XSP16, literal(-7)))
        CFI (cfiCond18) R7 load(1, XDATA, add(CFA_XSP16, literal(-6)))
        CFI (cfiCond18) ?RET_LOW load(1, XDATA, add(CFA_XSP16, literal(-5)))
        CFI (cfiCond18) ?RET_HIGH load(1, XDATA, add(CFA_XSP16, literal(-4)))
        CFI (cfiCond18) ?BRET_EXT load(1, XDATA, add(CFA_XSP16, literal(-3)))
        CFI (cfiCond18) DPL0 load(1, XDATA, add(CFA_XSP16, literal(-2)))
        CFI (cfiCond18) DPH0 load(1, XDATA, add(CFA_XSP16, literal(-1)))
        CFI (cfiCond18) CFA_SP SP+0
        CFI (cfiCond18) CFA_XSP16 add(XSP16, 28)
        CFI Block cfiPicker19 Using cfiCommon1
        CFI (cfiPicker19) NoFunction
        CFI (cfiPicker19) Picker
        MOV     R1,#0x20
        MOV     R4,#SmartHomeApp_epDesc & 0xff
        MOV     R5,#(SmartHomeApp_epDesc >> 8) & 0xff
        MOV     R2,#SmartHomeApp_P2P_DstAddr & 0xff
        MOV     R3,#(SmartHomeApp_P2P_DstAddr >> 8) & 0xff
        CFI EndBlock cfiCond15
        CFI EndBlock cfiCond16
        CFI EndBlock cfiCond17
        CFI EndBlock cfiCond18
        CFI EndBlock cfiPicker19
        REQUIRE ??Subroutine37_0
        ; // Fall through to label ??Subroutine37_0

        RSEG BANKED_CODE:CODE:NOROOT(0)
??Subroutine37_0:
        CFI Block cfiCond20 Using cfiCommon0
        CFI NoFunction
        CFI Conditional ??CrossCallReturnLabel_70
        CFI R6 load(1, XDATA, add(CFA_XSP16, literal(-10)))
        CFI VB load(1, XDATA, add(CFA_XSP16, literal(-9)))
        CFI V0 load(1, XDATA, add(CFA_XSP16, literal(-8)))
        CFI V1 load(1, XDATA, add(CFA_XSP16, literal(-7)))
        CFI R7 load(1, XDATA, add(CFA_XSP16, literal(-6)))
        CFI ?RET_LOW load(1, XDATA, add(CFA_XSP16, literal(-5)))
        CFI ?RET_HIGH load(1, XDATA, add(CFA_XSP16, literal(-4)))
        CFI ?BRET_EXT load(1, XDATA, add(CFA_XSP16, literal(-3)))
        CFI DPL0 load(1, XDATA, add(CFA_XSP16, literal(-2)))
        CFI DPH0 load(1, XDATA, add(CFA_XSP16, literal(-1)))
        CFI CFA_SP SP+0
        CFI CFA_XSP16 add(XSP16, 40)
        CFI Block cfiCond21 Using cfiCommon0
        CFI (cfiCond21) NoFunction
        CFI (cfiCond21) Conditional ??CrossCallReturnLabel_66
        CFI (cfiCond21) R6 load(1, XDATA, add(CFA_XSP16, literal(-10)))
        CFI (cfiCond21) VB load(1, XDATA, add(CFA_XSP16, literal(-9)))
        CFI (cfiCond21) V0 load(1, XDATA, add(CFA_XSP16, literal(-8)))
        CFI (cfiCond21) V1 load(1, XDATA, add(CFA_XSP16, literal(-7)))
        CFI (cfiCond21) R7 load(1, XDATA, add(CFA_XSP16, literal(-6)))
        CFI (cfiCond21) ?RET_LOW load(1, XDATA, add(CFA_XSP16, literal(-5)))
        CFI (cfiCond21) ?RET_HIGH load(1, XDATA, add(CFA_XSP16, literal(-4)))
        CFI (cfiCond21) ?BRET_EXT load(1, XDATA, add(CFA_XSP16, literal(-3)))
        CFI (cfiCond21) DPL0 load(1, XDATA, add(CFA_XSP16, literal(-2)))
        CFI (cfiCond21) DPH0 load(1, XDATA, add(CFA_XSP16, literal(-1)))
        CFI (cfiCond21) CFA_SP SP+0
        CFI (cfiCond21) CFA_XSP16 add(XSP16, 19)
        CFI Block cfiCond22 Using cfiCommon0
        CFI (cfiCond22) NoFunction
        CFI (cfiCond22) Conditional ??CrossCallReturnLabel_67
        CFI (cfiCond22) R6 load(1, XDATA, add(CFA_XSP16, literal(-11)))
        CFI (cfiCond22) VB load(1, XDATA, add(CFA_XSP16, literal(-10)))
        CFI (cfiCond22) V0 load(1, XDATA, add(CFA_XSP16, literal(-9)))
        CFI (cfiCond22) V1 load(1, XDATA, add(CFA_XSP16, literal(-8)))
        CFI (cfiCond22) V2 load(1, XDATA, add(CFA_XSP16, literal(-7)))
        CFI (cfiCond22) R7 load(1, XDATA, add(CFA_XSP16, literal(-6)))
        CFI (cfiCond22) ?RET_LOW load(1, XDATA, add(CFA_XSP16, literal(-5)))
        CFI (cfiCond22) ?RET_HIGH load(1, XDATA, add(CFA_XSP16, literal(-4)))
        CFI (cfiCond22) ?BRET_EXT load(1, XDATA, add(CFA_XSP16, literal(-3)))
        CFI (cfiCond22) DPL0 load(1, XDATA, add(CFA_XSP16, literal(-2)))
        CFI (cfiCond22) DPH0 load(1, XDATA, add(CFA_XSP16, literal(-1)))
        CFI (cfiCond22) CFA_SP SP+0
        CFI (cfiCond22) CFA_XSP16 add(XSP16, 34)
        CFI Block cfiCond23 Using cfiCommon0
        CFI (cfiCond23) NoFunction
        CFI (cfiCond23) Conditional ??CrossCallReturnLabel_68
        CFI (cfiCond23) R6 load(1, XDATA, add(CFA_XSP16, literal(-11)))
        CFI (cfiCond23) VB load(1, XDATA, add(CFA_XSP16, literal(-10)))
        CFI (cfiCond23) V0 load(1, XDATA, add(CFA_XSP16, literal(-9)))
        CFI (cfiCond23) V1 load(1, XDATA, add(CFA_XSP16, literal(-8)))
        CFI (cfiCond23) V2 load(1, XDATA, add(CFA_XSP16, literal(-7)))
        CFI (cfiCond23) R7 load(1, XDATA, add(CFA_XSP16, literal(-6)))
        CFI (cfiCond23) ?RET_LOW load(1, XDATA, add(CFA_XSP16, literal(-5)))
        CFI (cfiCond23) ?RET_HIGH load(1, XDATA, add(CFA_XSP16, literal(-4)))
        CFI (cfiCond23) ?BRET_EXT load(1, XDATA, add(CFA_XSP16, literal(-3)))
        CFI (cfiCond23) DPL0 load(1, XDATA, add(CFA_XSP16, literal(-2)))
        CFI (cfiCond23) DPH0 load(1, XDATA, add(CFA_XSP16, literal(-1)))
        CFI (cfiCond23) CFA_SP SP+0
        CFI (cfiCond23) CFA_XSP16 add(XSP16, 28)
        CFI Block cfiCond24 Using cfiCommon0
        CFI (cfiCond24) NoFunction
        CFI (cfiCond24) Conditional ??CrossCallReturnLabel_69
        CFI (cfiCond24) R6 load(1, XDATA, add(CFA_XSP16, literal(-11)))
        CFI (cfiCond24) VB load(1, XDATA, add(CFA_XSP16, literal(-10)))
        CFI (cfiCond24) V0 load(1, XDATA, add(CFA_XSP16, literal(-9)))
        CFI (cfiCond24) V1 load(1, XDATA, add(CFA_XSP16, literal(-8)))
        CFI (cfiCond24) V2 load(1, XDATA, add(CFA_XSP16, literal(-7)))
        CFI (cfiCond24) R7 load(1, XDATA, add(CFA_XSP16, literal(-6)))
        CFI (cfiCond24) ?RET_LOW load(1, XDATA, add(CFA_XSP16, literal(-5)))
        CFI (cfiCond24) ?RET_HIGH load(1, XDATA, add(CFA_XSP16, literal(-4)))
        CFI (cfiCond24) ?BRET_EXT load(1, XDATA, add(CFA_XSP16, literal(-3)))
        CFI (cfiCond24) DPL0 load(1, XDATA, add(CFA_XSP16, literal(-2)))
        CFI (cfiCond24) DPH0 load(1, XDATA, add(CFA_XSP16, literal(-1)))
        CFI (cfiCond24) CFA_SP SP+0
        CFI (cfiCond24) CFA_XSP16 add(XSP16, 28)
        CFI Block cfiPicker25 Using cfiCommon1
        CFI (cfiPicker25) NoFunction
        CFI (cfiPicker25) Picker
        LCALL   ??AF_DataRequest?relay
        MOV     A,#0x9
        RET
        CFI EndBlock cfiCond20
        CFI EndBlock cfiCond21
        CFI EndBlock cfiCond22
        CFI EndBlock cfiCond23
        CFI EndBlock cfiCond24
        CFI EndBlock cfiPicker25
//  631 

        RSEG BANKED_CODE:CODE:NOROOT(0)
?Subroutine1:
        CFI Block cfiBlock26 Using cfiCommon0
        CFI NoFunction
        CFI CFA_SP SP+0
        CFI CFA_XSP16 add(XSP16, 19)
        CFI VB load(1, XDATA, add(CFA_XSP16, literal(-10)))
        CFI DPL0 load(1, XDATA, add(CFA_XSP16, literal(-2)))
        CFI DPH0 load(1, XDATA, add(CFA_XSP16, literal(-1)))
        CFI R6 load(1, XDATA, add(CFA_XSP16, literal(-11)))
        CFI R7 load(1, XDATA, add(CFA_XSP16, literal(-6)))
        CFI V0 load(1, XDATA, add(CFA_XSP16, literal(-9)))
        CFI V1 load(1, XDATA, add(CFA_XSP16, literal(-8)))
        CFI V2 load(1, XDATA, add(CFA_XSP16, literal(-7)))
        CFI ?BRET_EXT load(1, XDATA, add(CFA_XSP16, literal(-3)))
        CFI ?RET_HIGH load(1, XDATA, add(CFA_XSP16, literal(-4)))
        CFI ?RET_LOW load(1, XDATA, add(CFA_XSP16, literal(-5)))
        MOV     A,#0x8
        CFI EndBlock cfiBlock26
        REQUIRE ??Subroutine38_0
        ; // Fall through to label ??Subroutine38_0

        RSEG BANKED_CODE:CODE:NOROOT(0)
??Subroutine38_0:
        CFI Block cfiBlock27 Using cfiCommon0
        CFI NoFunction
        CFI CFA_SP SP+0
        CFI CFA_XSP16 add(XSP16, 25)
        CFI VB load(1, XDATA, add(CFA_XSP16, literal(-10)))
        CFI DPL0 load(1, XDATA, add(CFA_XSP16, literal(-2)))
        CFI DPH0 load(1, XDATA, add(CFA_XSP16, literal(-1)))
        CFI R6 load(1, XDATA, add(CFA_XSP16, literal(-11)))
        CFI R7 load(1, XDATA, add(CFA_XSP16, literal(-6)))
        CFI V0 load(1, XDATA, add(CFA_XSP16, literal(-9)))
        CFI V1 load(1, XDATA, add(CFA_XSP16, literal(-8)))
        CFI V2 load(1, XDATA, add(CFA_XSP16, literal(-7)))
        CFI ?BRET_EXT load(1, XDATA, add(CFA_XSP16, literal(-3)))
        CFI ?RET_HIGH load(1, XDATA, add(CFA_XSP16, literal(-4)))
        CFI ?RET_LOW load(1, XDATA, add(CFA_XSP16, literal(-5)))
        CFI Invalid
        LCALL   ?DEALLOC_XSTACK8
        CFI EndBlock cfiBlock27
        REQUIRE ??Subroutine39_0
        ; // Fall through to label ??Subroutine39_0

        RSEG BANKED_CODE:CODE:NOROOT(0)
??Subroutine39_0:
        CFI Block cfiBlock28 Using cfiCommon0
        CFI NoFunction
        CFI CFA_SP SP+0
        CFI CFA_XSP16 add(XSP16, 11)
        CFI VB load(1, XDATA, add(CFA_XSP16, literal(-10)))
        CFI DPL0 load(1, XDATA, add(CFA_XSP16, literal(-2)))
        CFI DPH0 load(1, XDATA, add(CFA_XSP16, literal(-1)))
        CFI R6 load(1, XDATA, add(CFA_XSP16, literal(-11)))
        CFI R7 load(1, XDATA, add(CFA_XSP16, literal(-6)))
        CFI V0 load(1, XDATA, add(CFA_XSP16, literal(-9)))
        CFI V1 load(1, XDATA, add(CFA_XSP16, literal(-8)))
        CFI V2 load(1, XDATA, add(CFA_XSP16, literal(-7)))
        CFI ?BRET_EXT load(1, XDATA, add(CFA_XSP16, literal(-3)))
        CFI ?RET_HIGH load(1, XDATA, add(CFA_XSP16, literal(-4)))
        CFI ?RET_LOW load(1, XDATA, add(CFA_XSP16, literal(-5)))
        MOV     R7,#0x3
        LJMP    ?BANKED_LEAVE_XDATA
        CFI EndBlock cfiBlock28

        RSEG BANKED_CODE:CODE:NOROOT(0)
//  632 void SHEndPointSendFireAlarmMsg()
SHEndPointSendFireAlarmMsg:
        CFI Block cfiBlock29 Using cfiCommon0
        CFI Function SHEndPointSendFireAlarmMsg
        CODE
//  633 {
        FUNCALL SHEndPointSendFireAlarmMsg, DelayMS
        LOCFRAME ISTACK, 0, STACK
        LOCFRAME PSTACK, 0, STACK
        LOCFRAME XSTACK, 19, STACK
        LOCFRAME IOVERLAY, 0, STATIC
        LOCFRAME DOVERLAY, 0, STATIC
        ARGFRAME ISTACK, 0, STACK
        ARGFRAME PSTACK, 0, STACK
        ARGFRAME XSTACK, 19, STACK
        ARGFRAME IOVERLAY, 0, STATIC
        ARGFRAME DOVERLAY, 0, STATIC
        FUNCALL SHEndPointSendFireAlarmMsg, osal_memcpy
        LOCFRAME ISTACK, 0, STACK
        LOCFRAME PSTACK, 0, STACK
        LOCFRAME XSTACK, 22, STACK
        LOCFRAME IOVERLAY, 0, STATIC
        LOCFRAME DOVERLAY, 0, STATIC
        ARGFRAME ISTACK, 0, STACK
        ARGFRAME PSTACK, 0, STACK
        ARGFRAME XSTACK, 22, STACK
        ARGFRAME IOVERLAY, 0, STATIC
        ARGFRAME DOVERLAY, 0, STATIC
        FUNCALL SHEndPointSendFireAlarmMsg, AF_DataRequest
        LOCFRAME ISTACK, 0, STACK
        LOCFRAME PSTACK, 0, STACK
        LOCFRAME XSTACK, 28, STACK
        LOCFRAME IOVERLAY, 0, STATIC
        LOCFRAME DOVERLAY, 0, STATIC
        ARGFRAME ISTACK, 0, STACK
        ARGFRAME PSTACK, 0, STACK
        ARGFRAME XSTACK, 28, STACK
        ARGFRAME IOVERLAY, 0, STATIC
        ARGFRAME DOVERLAY, 0, STATIC
        MOV     A,#-0xb
        LCALL   ?BANKED_ENTER_XDATA
        CFI DPH0 load(1, XDATA, add(CFA_XSP16, literal(-1)))
        CFI DPL0 load(1, XDATA, add(CFA_XSP16, literal(-2)))
        CFI ?BRET_EXT load(1, XDATA, add(CFA_XSP16, literal(-3)))
        CFI ?RET_HIGH load(1, XDATA, add(CFA_XSP16, literal(-4)))
        CFI ?RET_LOW load(1, XDATA, add(CFA_XSP16, literal(-5)))
        CFI R7 load(1, XDATA, add(CFA_XSP16, literal(-6)))
        CFI V2 load(1, XDATA, add(CFA_XSP16, literal(-7)))
        CFI V1 load(1, XDATA, add(CFA_XSP16, literal(-8)))
        CFI V0 load(1, XDATA, add(CFA_XSP16, literal(-9)))
        CFI VB load(1, XDATA, add(CFA_XSP16, literal(-10)))
        CFI R6 load(1, XDATA, add(CFA_XSP16, literal(-11)))
        CFI CFA_SP SP+0
        CFI CFA_XSP16 add(XSP16, 11)
        ; Saved register size: 11
        ; Auto size: 8
        MOV     A,#-0x8
        LCALL   ?ALLOC_XSTACK8
        CFI CFA_XSP16 add(XSP16, 19)
//  634 	P0DIR &= ~0x20; 
        ANL     0xfd,#0xdf
//  635 	if(SHSMOKEANDFIREPin == 0)         //当浓度高于设定值时 ，执行条件函数        
        MOV     C,0x80.5
        JC      ??SHEndPointSendFireAlarmMsg_0
//  636         {
//  637             DelayMS(10);          //延时抗干扰
        ; Setup parameters for call to function DelayMS
        MOV     R2,#0xa
        MOV     R3,#0x0
        LCALL   ??DelayMS?relay
//  638             if(SHSMOKEANDFIREPin == 0)     //确定 浓度高于设定值时 ，执行条件函数
        MOV     C,0x80.5
        JC      ??SHEndPointSendFireAlarmMsg_0
//  639             {
//  640               	byte data[8];
//  641 				uint8 *macAddr = aExtendedAddress;
//  642 
//  643 				osal_memcpy(data, macAddr, 8);
        ; Setup parameters for call to function osal_memcpy
        MOV     ?V0 + 0,#aExtendedAddress & 0xff
        MOV     ?V0 + 1,#(aExtendedAddress >> 8) & 0xff
        MOV     ?V0 + 2,#0x0
        MOV     R0,#?V0 + 0
        LCALL   ?PUSH_XSTACK_I_THREE
        CFI CFA_XSP16 add(XSP16, 22)
        MOV     R4,#0x8
        MOV     R5,#0x0
        MOV     A,#0x3
        LCALL   ?XSTACK_DISP0_8
        LCALL   ?Subroutine18 & 0xFFFF
??CrossCallReturnLabel_74:
        LCALL   ?DEALLOC_XSTACK8
        CFI CFA_XSP16 add(XSP16, 19)
//  644 				//HalUARTWrite(0,data,8);
//  645 
//  646 				if ( AF_DataRequest( &SmartHomeApp_P2P_DstAddr, &SmartHomeApp_epDesc,
//  647 				                   SMARTHOME_FIREALARM,
//  648 				                   8,
//  649 				                   data,
//  650 				                   &SmartHomeApp_TransID,
//  651 				                   AF_DISCV_ROUTE,
//  652 				                   AF_DEFAULT_RADIUS ) == afStatus_SUCCESS )
        ; Setup parameters for call to function AF_DataRequest
        MOV     ?V0 + 0,#0x1e
        MOV     R0,#?V0 + 0
        LCALL   ?PUSH_XSTACK_I_ONE
        CFI CFA_XSP16 add(XSP16, 20)
        MOV     ?V0 + 0,#SmartHomeApp_TransID & 0xff
        MOV     ?V0 + 1,#(SmartHomeApp_TransID >> 8) & 0xff
        MOV     R0,#?V0 + 0
        LCALL   ?PUSH_XSTACK_I_TWO
        CFI CFA_XSP16 add(XSP16, 22)
        MOV     A,#0x3
        LCALL   ?XSTACK_DISP0_8
        MOV     ?V0 + 0,DPL
        MOV     ?V0 + 1,DPH
        MOV     R0,#?V0 + 0
        LCALL   ?PUSH_XSTACK_I_TWO
        CFI CFA_XSP16 add(XSP16, 24)
        MOV     ?V0 + 0,#0x8
        MOV     ?V0 + 1,#0x0
        MOV     R0,#?V0 + 0
        LCALL   ?PUSH_XSTACK_I_TWO
        CFI CFA_XSP16 add(XSP16, 26)
        MOV     ?V0 + 0,#0x3
        MOV     R0,#?V0 + 0
        LCALL   ?PUSH_XSTACK_I_TWO
        CFI CFA_XSP16 add(XSP16, 28)
        LCALL   ?Subroutine23 & 0xFFFF
//  653 				{
//  654 				}
//  655 				else
//  656 				{
//  657 				// Error occurred in request to send.
//  658 				}
//  659             }
//  660         }
??CrossCallReturnLabel_68:
        LCALL   ?DEALLOC_XSTACK8
        CFI CFA_XSP16 add(XSP16, 19)
//  661 }
??SHEndPointSendFireAlarmMsg_0:
        LJMP    ?Subroutine1 & 0xFFFF
        CFI EndBlock cfiBlock29
        REQUIRE P0DIR
        REQUIRE _A_P0

        RSEG BANKED_CODE:CODE:NOROOT(0)
?Subroutine18:
        CFI Block cfiCond30 Using cfiCommon0
        CFI NoFunction
        CFI Conditional ??CrossCallReturnLabel_71
        CFI R6 load(1, XDATA, add(CFA_XSP16, literal(-11)))
        CFI VB load(1, XDATA, add(CFA_XSP16, literal(-10)))
        CFI V0 load(1, XDATA, add(CFA_XSP16, literal(-9)))
        CFI V1 load(1, XDATA, add(CFA_XSP16, literal(-8)))
        CFI V2 load(1, XDATA, add(CFA_XSP16, literal(-7)))
        CFI R7 load(1, XDATA, add(CFA_XSP16, literal(-6)))
        CFI ?RET_LOW load(1, XDATA, add(CFA_XSP16, literal(-5)))
        CFI ?RET_HIGH load(1, XDATA, add(CFA_XSP16, literal(-4)))
        CFI ?BRET_EXT load(1, XDATA, add(CFA_XSP16, literal(-3)))
        CFI DPL0 load(1, XDATA, add(CFA_XSP16, literal(-2)))
        CFI DPH0 load(1, XDATA, add(CFA_XSP16, literal(-1)))
        CFI CFA_SP SP+0
        CFI CFA_XSP16 add(XSP16, 28)
        CFI Block cfiCond31 Using cfiCommon0
        CFI (cfiCond31) NoFunction
        CFI (cfiCond31) Conditional ??CrossCallReturnLabel_72
        CFI (cfiCond31) R6 load(1, XDATA, add(CFA_XSP16, literal(-11)))
        CFI (cfiCond31) VB load(1, XDATA, add(CFA_XSP16, literal(-10)))
        CFI (cfiCond31) V0 load(1, XDATA, add(CFA_XSP16, literal(-9)))
        CFI (cfiCond31) V1 load(1, XDATA, add(CFA_XSP16, literal(-8)))
        CFI (cfiCond31) V2 load(1, XDATA, add(CFA_XSP16, literal(-7)))
        CFI (cfiCond31) R7 load(1, XDATA, add(CFA_XSP16, literal(-6)))
        CFI (cfiCond31) ?RET_LOW load(1, XDATA, add(CFA_XSP16, literal(-5)))
        CFI (cfiCond31) ?RET_HIGH load(1, XDATA, add(CFA_XSP16, literal(-4)))
        CFI (cfiCond31) ?BRET_EXT load(1, XDATA, add(CFA_XSP16, literal(-3)))
        CFI (cfiCond31) DPL0 load(1, XDATA, add(CFA_XSP16, literal(-2)))
        CFI (cfiCond31) DPH0 load(1, XDATA, add(CFA_XSP16, literal(-1)))
        CFI (cfiCond31) CFA_SP SP+0
        CFI (cfiCond31) CFA_XSP16 add(XSP16, 28)
        CFI Block cfiCond32 Using cfiCommon0
        CFI (cfiCond32) NoFunction
        CFI (cfiCond32) Conditional ??CrossCallReturnLabel_73
        CFI (cfiCond32) R6 load(1, XDATA, add(CFA_XSP16, literal(-11)))
        CFI (cfiCond32) VB load(1, XDATA, add(CFA_XSP16, literal(-10)))
        CFI (cfiCond32) V0 load(1, XDATA, add(CFA_XSP16, literal(-9)))
        CFI (cfiCond32) V1 load(1, XDATA, add(CFA_XSP16, literal(-8)))
        CFI (cfiCond32) V2 load(1, XDATA, add(CFA_XSP16, literal(-7)))
        CFI (cfiCond32) R7 load(1, XDATA, add(CFA_XSP16, literal(-6)))
        CFI (cfiCond32) ?RET_LOW load(1, XDATA, add(CFA_XSP16, literal(-5)))
        CFI (cfiCond32) ?RET_HIGH load(1, XDATA, add(CFA_XSP16, literal(-4)))
        CFI (cfiCond32) ?BRET_EXT load(1, XDATA, add(CFA_XSP16, literal(-3)))
        CFI (cfiCond32) DPL0 load(1, XDATA, add(CFA_XSP16, literal(-2)))
        CFI (cfiCond32) DPH0 load(1, XDATA, add(CFA_XSP16, literal(-1)))
        CFI (cfiCond32) CFA_SP SP+0
        CFI (cfiCond32) CFA_XSP16 add(XSP16, 28)
        CFI Block cfiCond33 Using cfiCommon0
        CFI (cfiCond33) NoFunction
        CFI (cfiCond33) Conditional ??CrossCallReturnLabel_74
        CFI (cfiCond33) R6 load(1, XDATA, add(CFA_XSP16, literal(-11)))
        CFI (cfiCond33) VB load(1, XDATA, add(CFA_XSP16, literal(-10)))
        CFI (cfiCond33) V0 load(1, XDATA, add(CFA_XSP16, literal(-9)))
        CFI (cfiCond33) V1 load(1, XDATA, add(CFA_XSP16, literal(-8)))
        CFI (cfiCond33) V2 load(1, XDATA, add(CFA_XSP16, literal(-7)))
        CFI (cfiCond33) R7 load(1, XDATA, add(CFA_XSP16, literal(-6)))
        CFI (cfiCond33) ?RET_LOW load(1, XDATA, add(CFA_XSP16, literal(-5)))
        CFI (cfiCond33) ?RET_HIGH load(1, XDATA, add(CFA_XSP16, literal(-4)))
        CFI (cfiCond33) ?BRET_EXT load(1, XDATA, add(CFA_XSP16, literal(-3)))
        CFI (cfiCond33) DPL0 load(1, XDATA, add(CFA_XSP16, literal(-2)))
        CFI (cfiCond33) DPH0 load(1, XDATA, add(CFA_XSP16, literal(-1)))
        CFI (cfiCond33) CFA_SP SP+0
        CFI (cfiCond33) CFA_XSP16 add(XSP16, 22)
        CFI Block cfiCond34 Using cfiCommon0
        CFI (cfiCond34) NoFunction
        CFI (cfiCond34) Conditional ??CrossCallReturnLabel_75
        CFI (cfiCond34) R6 load(1, XDATA, add(CFA_XSP16, literal(-11)))
        CFI (cfiCond34) VB load(1, XDATA, add(CFA_XSP16, literal(-10)))
        CFI (cfiCond34) V0 load(1, XDATA, add(CFA_XSP16, literal(-9)))
        CFI (cfiCond34) V1 load(1, XDATA, add(CFA_XSP16, literal(-8)))
        CFI (cfiCond34) V2 load(1, XDATA, add(CFA_XSP16, literal(-7)))
        CFI (cfiCond34) R7 load(1, XDATA, add(CFA_XSP16, literal(-6)))
        CFI (cfiCond34) ?RET_LOW load(1, XDATA, add(CFA_XSP16, literal(-5)))
        CFI (cfiCond34) ?RET_HIGH load(1, XDATA, add(CFA_XSP16, literal(-4)))
        CFI (cfiCond34) ?BRET_EXT load(1, XDATA, add(CFA_XSP16, literal(-3)))
        CFI (cfiCond34) DPL0 load(1, XDATA, add(CFA_XSP16, literal(-2)))
        CFI (cfiCond34) DPH0 load(1, XDATA, add(CFA_XSP16, literal(-1)))
        CFI (cfiCond34) CFA_SP SP+0
        CFI (cfiCond34) CFA_XSP16 add(XSP16, 22)
        CFI Block cfiPicker35 Using cfiCommon1
        CFI (cfiPicker35) NoFunction
        CFI (cfiPicker35) Picker
        MOV     R2,DPL
        MOV     R3,DPH
        CFI EndBlock cfiCond30
        CFI EndBlock cfiCond31
        CFI EndBlock cfiCond32
        CFI EndBlock cfiCond33
        CFI EndBlock cfiCond34
        CFI EndBlock cfiPicker35
        REQUIRE ??Subroutine40_0
        ; // Fall through to label ??Subroutine40_0

        RSEG BANKED_CODE:CODE:NOROOT(0)
??Subroutine40_0:
        CFI Block cfiCond36 Using cfiCommon0
        CFI NoFunction
        CFI Conditional ??CrossCallReturnLabel_76
        CFI R6 load(1, XDATA, add(CFA_XSP16, literal(-11)))
        CFI VB load(1, XDATA, add(CFA_XSP16, literal(-10)))
        CFI V0 load(1, XDATA, add(CFA_XSP16, literal(-9)))
        CFI V1 load(1, XDATA, add(CFA_XSP16, literal(-8)))
        CFI V2 load(1, XDATA, add(CFA_XSP16, literal(-7)))
        CFI R7 load(1, XDATA, add(CFA_XSP16, literal(-6)))
        CFI ?RET_LOW load(1, XDATA, add(CFA_XSP16, literal(-5)))
        CFI ?RET_HIGH load(1, XDATA, add(CFA_XSP16, literal(-4)))
        CFI ?BRET_EXT load(1, XDATA, add(CFA_XSP16, literal(-3)))
        CFI DPL0 load(1, XDATA, add(CFA_XSP16, literal(-2)))
        CFI DPH0 load(1, XDATA, add(CFA_XSP16, literal(-1)))
        CFI CFA_SP SP+0
        CFI CFA_XSP16 add(XSP16, 14)
        CFI Block cfiCond37 Using cfiCommon0
        CFI (cfiCond37) NoFunction
        CFI (cfiCond37) Conditional ??CrossCallReturnLabel_71
        CFI (cfiCond37) R6 load(1, XDATA, add(CFA_XSP16, literal(-11)))
        CFI (cfiCond37) VB load(1, XDATA, add(CFA_XSP16, literal(-10)))
        CFI (cfiCond37) V0 load(1, XDATA, add(CFA_XSP16, literal(-9)))
        CFI (cfiCond37) V1 load(1, XDATA, add(CFA_XSP16, literal(-8)))
        CFI (cfiCond37) V2 load(1, XDATA, add(CFA_XSP16, literal(-7)))
        CFI (cfiCond37) R7 load(1, XDATA, add(CFA_XSP16, literal(-6)))
        CFI (cfiCond37) ?RET_LOW load(1, XDATA, add(CFA_XSP16, literal(-5)))
        CFI (cfiCond37) ?RET_HIGH load(1, XDATA, add(CFA_XSP16, literal(-4)))
        CFI (cfiCond37) ?BRET_EXT load(1, XDATA, add(CFA_XSP16, literal(-3)))
        CFI (cfiCond37) DPL0 load(1, XDATA, add(CFA_XSP16, literal(-2)))
        CFI (cfiCond37) DPH0 load(1, XDATA, add(CFA_XSP16, literal(-1)))
        CFI (cfiCond37) CFA_SP SP+0
        CFI (cfiCond37) CFA_XSP16 add(XSP16, 28)
        CFI Block cfiCond38 Using cfiCommon0
        CFI (cfiCond38) NoFunction
        CFI (cfiCond38) Conditional ??CrossCallReturnLabel_72
        CFI (cfiCond38) R6 load(1, XDATA, add(CFA_XSP16, literal(-11)))
        CFI (cfiCond38) VB load(1, XDATA, add(CFA_XSP16, literal(-10)))
        CFI (cfiCond38) V0 load(1, XDATA, add(CFA_XSP16, literal(-9)))
        CFI (cfiCond38) V1 load(1, XDATA, add(CFA_XSP16, literal(-8)))
        CFI (cfiCond38) V2 load(1, XDATA, add(CFA_XSP16, literal(-7)))
        CFI (cfiCond38) R7 load(1, XDATA, add(CFA_XSP16, literal(-6)))
        CFI (cfiCond38) ?RET_LOW load(1, XDATA, add(CFA_XSP16, literal(-5)))
        CFI (cfiCond38) ?RET_HIGH load(1, XDATA, add(CFA_XSP16, literal(-4)))
        CFI (cfiCond38) ?BRET_EXT load(1, XDATA, add(CFA_XSP16, literal(-3)))
        CFI (cfiCond38) DPL0 load(1, XDATA, add(CFA_XSP16, literal(-2)))
        CFI (cfiCond38) DPH0 load(1, XDATA, add(CFA_XSP16, literal(-1)))
        CFI (cfiCond38) CFA_SP SP+0
        CFI (cfiCond38) CFA_XSP16 add(XSP16, 28)
        CFI Block cfiCond39 Using cfiCommon0
        CFI (cfiCond39) NoFunction
        CFI (cfiCond39) Conditional ??CrossCallReturnLabel_73
        CFI (cfiCond39) R6 load(1, XDATA, add(CFA_XSP16, literal(-11)))
        CFI (cfiCond39) VB load(1, XDATA, add(CFA_XSP16, literal(-10)))
        CFI (cfiCond39) V0 load(1, XDATA, add(CFA_XSP16, literal(-9)))
        CFI (cfiCond39) V1 load(1, XDATA, add(CFA_XSP16, literal(-8)))
        CFI (cfiCond39) V2 load(1, XDATA, add(CFA_XSP16, literal(-7)))
        CFI (cfiCond39) R7 load(1, XDATA, add(CFA_XSP16, literal(-6)))
        CFI (cfiCond39) ?RET_LOW load(1, XDATA, add(CFA_XSP16, literal(-5)))
        CFI (cfiCond39) ?RET_HIGH load(1, XDATA, add(CFA_XSP16, literal(-4)))
        CFI (cfiCond39) ?BRET_EXT load(1, XDATA, add(CFA_XSP16, literal(-3)))
        CFI (cfiCond39) DPL0 load(1, XDATA, add(CFA_XSP16, literal(-2)))
        CFI (cfiCond39) DPH0 load(1, XDATA, add(CFA_XSP16, literal(-1)))
        CFI (cfiCond39) CFA_SP SP+0
        CFI (cfiCond39) CFA_XSP16 add(XSP16, 28)
        CFI Block cfiCond40 Using cfiCommon0
        CFI (cfiCond40) NoFunction
        CFI (cfiCond40) Conditional ??CrossCallReturnLabel_74
        CFI (cfiCond40) R6 load(1, XDATA, add(CFA_XSP16, literal(-11)))
        CFI (cfiCond40) VB load(1, XDATA, add(CFA_XSP16, literal(-10)))
        CFI (cfiCond40) V0 load(1, XDATA, add(CFA_XSP16, literal(-9)))
        CFI (cfiCond40) V1 load(1, XDATA, add(CFA_XSP16, literal(-8)))
        CFI (cfiCond40) V2 load(1, XDATA, add(CFA_XSP16, literal(-7)))
        CFI (cfiCond40) R7 load(1, XDATA, add(CFA_XSP16, literal(-6)))
        CFI (cfiCond40) ?RET_LOW load(1, XDATA, add(CFA_XSP16, literal(-5)))
        CFI (cfiCond40) ?RET_HIGH load(1, XDATA, add(CFA_XSP16, literal(-4)))
        CFI (cfiCond40) ?BRET_EXT load(1, XDATA, add(CFA_XSP16, literal(-3)))
        CFI (cfiCond40) DPL0 load(1, XDATA, add(CFA_XSP16, literal(-2)))
        CFI (cfiCond40) DPH0 load(1, XDATA, add(CFA_XSP16, literal(-1)))
        CFI (cfiCond40) CFA_SP SP+0
        CFI (cfiCond40) CFA_XSP16 add(XSP16, 22)
        CFI Block cfiCond41 Using cfiCommon0
        CFI (cfiCond41) NoFunction
        CFI (cfiCond41) Conditional ??CrossCallReturnLabel_75
        CFI (cfiCond41) R6 load(1, XDATA, add(CFA_XSP16, literal(-11)))
        CFI (cfiCond41) VB load(1, XDATA, add(CFA_XSP16, literal(-10)))
        CFI (cfiCond41) V0 load(1, XDATA, add(CFA_XSP16, literal(-9)))
        CFI (cfiCond41) V1 load(1, XDATA, add(CFA_XSP16, literal(-8)))
        CFI (cfiCond41) V2 load(1, XDATA, add(CFA_XSP16, literal(-7)))
        CFI (cfiCond41) R7 load(1, XDATA, add(CFA_XSP16, literal(-6)))
        CFI (cfiCond41) ?RET_LOW load(1, XDATA, add(CFA_XSP16, literal(-5)))
        CFI (cfiCond41) ?RET_HIGH load(1, XDATA, add(CFA_XSP16, literal(-4)))
        CFI (cfiCond41) ?BRET_EXT load(1, XDATA, add(CFA_XSP16, literal(-3)))
        CFI (cfiCond41) DPL0 load(1, XDATA, add(CFA_XSP16, literal(-2)))
        CFI (cfiCond41) DPH0 load(1, XDATA, add(CFA_XSP16, literal(-1)))
        CFI (cfiCond41) CFA_SP SP+0
        CFI (cfiCond41) CFA_XSP16 add(XSP16, 22)
        CFI Block cfiPicker42 Using cfiCommon1
        CFI (cfiPicker42) NoFunction
        CFI (cfiPicker42) Picker
        LCALL   ??osal_memcpy?relay
        MOV     A,#0x3
        RET
        CFI EndBlock cfiCond36
        CFI EndBlock cfiCond37
        CFI EndBlock cfiCond38
        CFI EndBlock cfiCond39
        CFI EndBlock cfiCond40
        CFI EndBlock cfiCond41
        CFI EndBlock cfiPicker42
//  662 

        RSEG BANKED_CODE:CODE:NOROOT(0)
//  663 void SHEndPointSendSmokeAlarmMsg()
SHEndPointSendSmokeAlarmMsg:
        CFI Block cfiBlock43 Using cfiCommon0
        CFI Function SHEndPointSendSmokeAlarmMsg
        CODE
//  664 {
        FUNCALL SHEndPointSendSmokeAlarmMsg, DelayMS
        LOCFRAME ISTACK, 0, STACK
        LOCFRAME PSTACK, 0, STACK
        LOCFRAME XSTACK, 19, STACK
        LOCFRAME IOVERLAY, 0, STATIC
        LOCFRAME DOVERLAY, 0, STATIC
        ARGFRAME ISTACK, 0, STACK
        ARGFRAME PSTACK, 0, STACK
        ARGFRAME XSTACK, 19, STACK
        ARGFRAME IOVERLAY, 0, STATIC
        ARGFRAME DOVERLAY, 0, STATIC
        FUNCALL SHEndPointSendSmokeAlarmMsg, osal_memcpy
        LOCFRAME ISTACK, 0, STACK
        LOCFRAME PSTACK, 0, STACK
        LOCFRAME XSTACK, 22, STACK
        LOCFRAME IOVERLAY, 0, STATIC
        LOCFRAME DOVERLAY, 0, STATIC
        ARGFRAME ISTACK, 0, STACK
        ARGFRAME PSTACK, 0, STACK
        ARGFRAME XSTACK, 22, STACK
        ARGFRAME IOVERLAY, 0, STATIC
        ARGFRAME DOVERLAY, 0, STATIC
        FUNCALL SHEndPointSendSmokeAlarmMsg, AF_DataRequest
        LOCFRAME ISTACK, 0, STACK
        LOCFRAME PSTACK, 0, STACK
        LOCFRAME XSTACK, 28, STACK
        LOCFRAME IOVERLAY, 0, STATIC
        LOCFRAME DOVERLAY, 0, STATIC
        ARGFRAME ISTACK, 0, STACK
        ARGFRAME PSTACK, 0, STACK
        ARGFRAME XSTACK, 28, STACK
        ARGFRAME IOVERLAY, 0, STATIC
        ARGFRAME DOVERLAY, 0, STATIC
        MOV     A,#-0xb
        LCALL   ?BANKED_ENTER_XDATA
        CFI DPH0 load(1, XDATA, add(CFA_XSP16, literal(-1)))
        CFI DPL0 load(1, XDATA, add(CFA_XSP16, literal(-2)))
        CFI ?BRET_EXT load(1, XDATA, add(CFA_XSP16, literal(-3)))
        CFI ?RET_HIGH load(1, XDATA, add(CFA_XSP16, literal(-4)))
        CFI ?RET_LOW load(1, XDATA, add(CFA_XSP16, literal(-5)))
        CFI R7 load(1, XDATA, add(CFA_XSP16, literal(-6)))
        CFI V2 load(1, XDATA, add(CFA_XSP16, literal(-7)))
        CFI V1 load(1, XDATA, add(CFA_XSP16, literal(-8)))
        CFI V0 load(1, XDATA, add(CFA_XSP16, literal(-9)))
        CFI VB load(1, XDATA, add(CFA_XSP16, literal(-10)))
        CFI R6 load(1, XDATA, add(CFA_XSP16, literal(-11)))
        CFI CFA_SP SP+0
        CFI CFA_XSP16 add(XSP16, 11)
        ; Saved register size: 11
        ; Auto size: 8
        MOV     A,#-0x8
        LCALL   ?ALLOC_XSTACK8
        CFI CFA_XSP16 add(XSP16, 19)
//  665 	P0DIR &= ~0x20; 
        ANL     0xfd,#0xdf
//  666 	if(SHSMOKEANDFIREPin == 0)         //当浓度高于设定值时 ，执行条件函数        
        MOV     C,0x80.5
        JC      ??SHEndPointSendSmokeAlarmMsg_0
//  667         {
//  668             DelayMS(10);          //延时抗干扰
        ; Setup parameters for call to function DelayMS
        MOV     R2,#0xa
        MOV     R3,#0x0
        LCALL   ??DelayMS?relay
//  669             if(SHSMOKEANDFIREPin == 0)     //确定 浓度高于设定值时 ，执行条件函数
        MOV     C,0x80.5
        JC      ??SHEndPointSendSmokeAlarmMsg_0
//  670             {
//  671               	byte data[8];
//  672 				uint8 *macAddr = aExtendedAddress;
//  673 
//  674 				osal_memcpy(data, macAddr, 8);
        ; Setup parameters for call to function osal_memcpy
        MOV     ?V0 + 0,#aExtendedAddress & 0xff
        MOV     ?V0 + 1,#(aExtendedAddress >> 8) & 0xff
        MOV     ?V0 + 2,#0x0
        MOV     R0,#?V0 + 0
        LCALL   ?PUSH_XSTACK_I_THREE
        CFI CFA_XSP16 add(XSP16, 22)
        MOV     R4,#0x8
        MOV     R5,#0x0
        MOV     A,#0x3
        LCALL   ?XSTACK_DISP0_8
        LCALL   ?Subroutine18 & 0xFFFF
??CrossCallReturnLabel_75:
        LCALL   ?DEALLOC_XSTACK8
        CFI CFA_XSP16 add(XSP16, 19)
//  675 				//HalUARTWrite(0,data,8);
//  676 
//  677 				if ( AF_DataRequest( &SmartHomeApp_P2P_DstAddr, &SmartHomeApp_epDesc,
//  678 				                   SMARTHOME_SMOKEALARM,
//  679 				                   8,
//  680 				                   data,
//  681 				                   &SmartHomeApp_TransID,
//  682 				                   AF_DISCV_ROUTE,
//  683 				                   AF_DEFAULT_RADIUS ) == afStatus_SUCCESS )
        ; Setup parameters for call to function AF_DataRequest
        MOV     ?V0 + 0,#0x1e
        MOV     R0,#?V0 + 0
        LCALL   ?PUSH_XSTACK_I_ONE
        CFI CFA_XSP16 add(XSP16, 20)
        MOV     ?V0 + 0,#SmartHomeApp_TransID & 0xff
        MOV     ?V0 + 1,#(SmartHomeApp_TransID >> 8) & 0xff
        MOV     R0,#?V0 + 0
        LCALL   ?PUSH_XSTACK_I_TWO
        CFI CFA_XSP16 add(XSP16, 22)
        MOV     A,#0x3
        LCALL   ?XSTACK_DISP0_8
        MOV     ?V0 + 0,DPL
        MOV     ?V0 + 1,DPH
        MOV     R0,#?V0 + 0
        LCALL   ?PUSH_XSTACK_I_TWO
        CFI CFA_XSP16 add(XSP16, 24)
        MOV     ?V0 + 0,#0x8
        MOV     ?V0 + 1,#0x0
        MOV     R0,#?V0 + 0
        LCALL   ?PUSH_XSTACK_I_TWO
        CFI CFA_XSP16 add(XSP16, 26)
        MOV     ?V0 + 0,#0x4
        MOV     R0,#?V0 + 0
        LCALL   ?PUSH_XSTACK_I_TWO
        CFI CFA_XSP16 add(XSP16, 28)
        LCALL   ?Subroutine23 & 0xFFFF
//  684 				{
//  685 				}
//  686 				else
//  687 				{
//  688 				// Error occurred in request to send.
//  689 				}
//  690             }
//  691         }
??CrossCallReturnLabel_69:
        LCALL   ?DEALLOC_XSTACK8
        CFI CFA_XSP16 add(XSP16, 19)
//  692 
//  693 }
??SHEndPointSendSmokeAlarmMsg_0:
        LJMP    ?Subroutine1 & 0xFFFF
        CFI EndBlock cfiBlock43
        REQUIRE P0DIR
        REQUIRE _A_P0
//  694 

        RSEG BANKED_CODE:CODE:NOROOT(0)
//  695 void SHCoordSendDHT11Msg(afIncomingMSGPacket_t *pkt)
SHCoordSendDHT11Msg:
        CFI Block cfiBlock44 Using cfiCommon0
        CFI Function SHCoordSendDHT11Msg
        CODE
//  696 {
        FUNCALL SHCoordSendDHT11Msg, SHCoordSendUartMsg
        LOCFRAME ISTACK, 2, STACK
        LOCFRAME PSTACK, 0, STACK
        LOCFRAME XSTACK, 50, STACK
        LOCFRAME IOVERLAY, 0, STATIC
        LOCFRAME DOVERLAY, 0, STATIC
        ARGFRAME ISTACK, 2, STACK
        ARGFRAME PSTACK, 0, STACK
        ARGFRAME XSTACK, 50, STACK
        ARGFRAME IOVERLAY, 0, STATIC
        ARGFRAME DOVERLAY, 0, STATIC
        PUSH    DPL
        CFI DPL0 Frame(CFA_SP, 4)
        CFI CFA_SP SP+-4
        PUSH    DPH
        CFI DPH0 Frame(CFA_SP, 5)
        CFI CFA_SP SP+-5
        ; Saved register size: 2
        ; Auto size: 25
        MOV     A,#-0x19
        LCALL   ?ALLOC_XSTACK8
        CFI CFA_XSP16 add(XSP16, 25)
//  697   //HalUARTWrite(0,pkt->cmd.Data,pkt->cmd.DataLength);
//  698   uartSendMsg msg;
//  699   
//  700   msg.header = 0xff;
        LCALL   ?Subroutine12 & 0xFFFF
//  701   msg.shortAddr = pkt->srcAddr.addr.shortAddr;
??CrossCallReturnLabel_14:
        LCALL   ?XSTACK_DISP0_8
        LCALL   ?Subroutine5 & 0xFFFF
//  702   for(int i=0;i<8;i++)
//  703  {
//  704 	msg.extAddr[i] =  pkt->cmd.Data[7-i];
??CrossCallReturnLabel_5:
        LCALL   ?Subroutine20 & 0xFFFF
//  705  }
??CrossCallReturnLabel_30:
        PUSH    A
        CFI CFA_SP SP+-6
        LCALL   ?Subroutine22 & 0xFFFF
??CrossCallReturnLabel_38:
        POP     A
        CFI CFA_SP SP+-5
        LCALL   ?Subroutine4 & 0xFFFF
??CrossCallReturnLabel_1:
        JC      ??CrossCallReturnLabel_5
//  706 
//  707   msg.body.msgType = SMARTHOME_TEMPHUMIMSG;
        MOV     A,#0xb
        LCALL   ?XSTACK_DISP0_8
        MOV     A,#0x1
        MOVX    @DPTR,A
//  708   msg.body.len = 2;
        MOV     A,#0xc
        LCALL   ?XSTACK_DISP0_8
        MOV     A,#0x2
        MOVX    @DPTR,A
//  709 
//  710   for(int i=0;i<msg.body.len;i++)
        MOV     R2,#0x0
        MOV     R3,#0x0
        SJMP    ??SHCoordSendDHT11Msg_0
//  711   {
//  712 	  msg.body.data[i] = pkt->cmd.Data[8+i];
??SHCoordSendDHT11Msg_1:
        LCALL   ?Subroutine21 & 0xFFFF
//  713   }
??CrossCallReturnLabel_34:
        PUSH    A
        CFI CFA_SP SP+-6
        LCALL   ?Subroutine11 & 0xFFFF
??CrossCallReturnLabel_80:
        POP     A
        CFI CFA_SP SP+-5
        LCALL   ?Subroutine7 & 0xFFFF
??CrossCallReturnLabel_84:
        MOV     R3,A
??SHCoordSendDHT11Msg_0:
        MOV     A,#0xc
        LCALL   ?XSTACK_DISP0_8
        LCALL   ?Subroutine17 & 0xFFFF
??CrossCallReturnLabel_24:
        JC      ??SHCoordSendDHT11Msg_1
//  714   msg.tailer = 0x11;
        SJMP    ?Subroutine0
        CFI EndBlock cfiBlock44
//  715   
//  716 SHCoordSendUartMsg(msg); 
//  717 }

        RSEG BANKED_CODE:CODE:NOROOT(0)
?Subroutine11:
        CFI Block cfiCond45 Using cfiCommon0
        CFI NoFunction
        CFI Conditional ??CrossCallReturnLabel_79
        CFI DPL0 Frame(CFA_SP, 4)
        CFI DPH0 Frame(CFA_SP, 5)
        CFI CFA_SP SP+-6
        CFI CFA_XSP16 add(XSP16, 25)
        CFI Block cfiCond46 Using cfiCommon0
        CFI (cfiCond46) NoFunction
        CFI (cfiCond46) Conditional ??CrossCallReturnLabel_80
        CFI (cfiCond46) DPL0 Frame(CFA_SP, 4)
        CFI (cfiCond46) DPH0 Frame(CFA_SP, 5)
        CFI (cfiCond46) CFA_SP SP+-6
        CFI (cfiCond46) CFA_XSP16 add(XSP16, 25)
        CFI Block cfiCond47 Using cfiCommon0
        CFI (cfiCond47) NoFunction
        CFI (cfiCond47) Conditional ??CrossCallReturnLabel_81
        CFI (cfiCond47) DPL0 Frame(CFA_SP, 4)
        CFI (cfiCond47) DPH0 Frame(CFA_SP, 5)
        CFI (cfiCond47) CFA_SP SP+-6
        CFI (cfiCond47) CFA_XSP16 add(XSP16, 25)
        CFI Block cfiCond48 Using cfiCommon0
        CFI (cfiCond48) NoFunction
        CFI (cfiCond48) Conditional ??CrossCallReturnLabel_82
        CFI (cfiCond48) DPL0 Frame(CFA_SP, 4)
        CFI (cfiCond48) DPH0 Frame(CFA_SP, 5)
        CFI (cfiCond48) CFA_SP SP+-6
        CFI (cfiCond48) CFA_XSP16 add(XSP16, 25)
        CFI Block cfiPicker49 Using cfiCommon1
        CFI (cfiPicker49) NoFunction
        CFI (cfiPicker49) Picker
        MOV     DPL,?XSP + 0
        MOV     DPH,?XSP + 1
        MOV     A,DPL
        ADD     A,R2
        MOV     R4,A
        MOV     A,DPH
        ADDC    A,R3
        CFI EndBlock cfiCond45
        CFI EndBlock cfiCond46
        CFI EndBlock cfiCond47
        CFI EndBlock cfiCond48
        CFI EndBlock cfiPicker49
        REQUIRE ??Subroutine41_0
        ; // Fall through to label ??Subroutine41_0

        RSEG BANKED_CODE:CODE:NOROOT(0)
??Subroutine41_0:
        CFI Block cfiCond50 Using cfiCommon0
        CFI NoFunction
        CFI Conditional ??CrossCallReturnLabel_78
        CFI DPL0 Frame(CFA_SP, 4)
        CFI DPH0 Frame(CFA_SP, 5)
        CFI CFA_SP SP+-6
        CFI CFA_XSP16 add(XSP16, 50)
        CFI Block cfiCond51 Using cfiCommon0
        CFI (cfiCond51) NoFunction
        CFI (cfiCond51) Conditional ??CrossCallReturnLabel_79
        CFI (cfiCond51) DPL0 Frame(CFA_SP, 4)
        CFI (cfiCond51) DPH0 Frame(CFA_SP, 5)
        CFI (cfiCond51) CFA_SP SP+-6
        CFI (cfiCond51) CFA_XSP16 add(XSP16, 25)
        CFI Block cfiCond52 Using cfiCommon0
        CFI (cfiCond52) NoFunction
        CFI (cfiCond52) Conditional ??CrossCallReturnLabel_80
        CFI (cfiCond52) DPL0 Frame(CFA_SP, 4)
        CFI (cfiCond52) DPH0 Frame(CFA_SP, 5)
        CFI (cfiCond52) CFA_SP SP+-6
        CFI (cfiCond52) CFA_XSP16 add(XSP16, 25)
        CFI Block cfiCond53 Using cfiCommon0
        CFI (cfiCond53) NoFunction
        CFI (cfiCond53) Conditional ??CrossCallReturnLabel_81
        CFI (cfiCond53) DPL0 Frame(CFA_SP, 4)
        CFI (cfiCond53) DPH0 Frame(CFA_SP, 5)
        CFI (cfiCond53) CFA_SP SP+-6
        CFI (cfiCond53) CFA_XSP16 add(XSP16, 25)
        CFI Block cfiCond54 Using cfiCommon0
        CFI (cfiCond54) NoFunction
        CFI (cfiCond54) Conditional ??CrossCallReturnLabel_82
        CFI (cfiCond54) DPL0 Frame(CFA_SP, 4)
        CFI (cfiCond54) DPH0 Frame(CFA_SP, 5)
        CFI (cfiCond54) CFA_SP SP+-6
        CFI (cfiCond54) CFA_XSP16 add(XSP16, 25)
        CFI Block cfiPicker55 Using cfiCommon1
        CFI (cfiPicker55) NoFunction
        CFI (cfiPicker55) Picker
        MOV     R5,A
        MOV     A,R4
        ADD     A,#0xd
        MOV     DPL,A
        MOV     A,R5
        CFI EndBlock cfiCond50
        CFI EndBlock cfiCond51
        CFI EndBlock cfiCond52
        CFI EndBlock cfiCond53
        CFI EndBlock cfiCond54
        CFI EndBlock cfiPicker55
        REQUIRE ??Subroutine42_0
        ; // Fall through to label ??Subroutine42_0

        RSEG BANKED_CODE:CODE:NOROOT(0)
??Subroutine42_0:
        CFI Block cfiCond56 Using cfiCommon0
        CFI NoFunction
        CFI Conditional ??CrossCallReturnLabel_77
        CFI DPL0 Frame(CFA_SP, 4)
        CFI DPH0 Frame(CFA_SP, 5)
        CFI CFA_SP SP+-6
        CFI CFA_XSP16 add(XSP16, 50)
        CFI Block cfiCond57 Using cfiCommon0
        CFI (cfiCond57) NoFunction
        CFI (cfiCond57) Conditional ??CrossCallReturnLabel_78
        CFI (cfiCond57) DPL0 Frame(CFA_SP, 4)
        CFI (cfiCond57) DPH0 Frame(CFA_SP, 5)
        CFI (cfiCond57) CFA_SP SP+-6
        CFI (cfiCond57) CFA_XSP16 add(XSP16, 50)
        CFI Block cfiCond58 Using cfiCommon0
        CFI (cfiCond58) NoFunction
        CFI (cfiCond58) Conditional ??CrossCallReturnLabel_79
        CFI (cfiCond58) DPL0 Frame(CFA_SP, 4)
        CFI (cfiCond58) DPH0 Frame(CFA_SP, 5)
        CFI (cfiCond58) CFA_SP SP+-6
        CFI (cfiCond58) CFA_XSP16 add(XSP16, 25)
        CFI Block cfiCond59 Using cfiCommon0
        CFI (cfiCond59) NoFunction
        CFI (cfiCond59) Conditional ??CrossCallReturnLabel_80
        CFI (cfiCond59) DPL0 Frame(CFA_SP, 4)
        CFI (cfiCond59) DPH0 Frame(CFA_SP, 5)
        CFI (cfiCond59) CFA_SP SP+-6
        CFI (cfiCond59) CFA_XSP16 add(XSP16, 25)
        CFI Block cfiCond60 Using cfiCommon0
        CFI (cfiCond60) NoFunction
        CFI (cfiCond60) Conditional ??CrossCallReturnLabel_81
        CFI (cfiCond60) DPL0 Frame(CFA_SP, 4)
        CFI (cfiCond60) DPH0 Frame(CFA_SP, 5)
        CFI (cfiCond60) CFA_SP SP+-6
        CFI (cfiCond60) CFA_XSP16 add(XSP16, 25)
        CFI Block cfiCond61 Using cfiCommon0
        CFI (cfiCond61) NoFunction
        CFI (cfiCond61) Conditional ??CrossCallReturnLabel_82
        CFI (cfiCond61) DPL0 Frame(CFA_SP, 4)
        CFI (cfiCond61) DPH0 Frame(CFA_SP, 5)
        CFI (cfiCond61) CFA_SP SP+-6
        CFI (cfiCond61) CFA_XSP16 add(XSP16, 25)
        CFI Block cfiPicker62 Using cfiCommon1
        CFI (cfiPicker62) NoFunction
        CFI (cfiPicker62) Picker
        ADDC    A,#0x0
        MOV     DPH,A
        RET
        CFI EndBlock cfiCond56
        CFI EndBlock cfiCond57
        CFI EndBlock cfiCond58
        CFI EndBlock cfiCond59
        CFI EndBlock cfiCond60
        CFI EndBlock cfiCond61
        CFI EndBlock cfiPicker62

        RSEG BANKED_CODE:CODE:NOROOT(0)
?Subroutine7:
        CFI Block cfiCond63 Using cfiCommon0
        CFI NoFunction
        CFI Conditional ??CrossCallReturnLabel_83
        CFI DPL0 Frame(CFA_SP, 4)
        CFI DPH0 Frame(CFA_SP, 5)
        CFI CFA_SP SP+-5
        CFI CFA_XSP16 add(XSP16, 25)
        CFI Block cfiCond64 Using cfiCommon0
        CFI (cfiCond64) NoFunction
        CFI (cfiCond64) Conditional ??CrossCallReturnLabel_84
        CFI (cfiCond64) DPL0 Frame(CFA_SP, 4)
        CFI (cfiCond64) DPH0 Frame(CFA_SP, 5)
        CFI (cfiCond64) CFA_SP SP+-5
        CFI (cfiCond64) CFA_XSP16 add(XSP16, 25)
        CFI Block cfiCond65 Using cfiCommon0
        CFI (cfiCond65) NoFunction
        CFI (cfiCond65) Conditional ??CrossCallReturnLabel_85
        CFI (cfiCond65) DPL0 Frame(CFA_SP, 4)
        CFI (cfiCond65) DPH0 Frame(CFA_SP, 5)
        CFI (cfiCond65) CFA_SP SP+-5
        CFI (cfiCond65) CFA_XSP16 add(XSP16, 25)
        CFI Block cfiCond66 Using cfiCommon0
        CFI (cfiCond66) NoFunction
        CFI (cfiCond66) Conditional ??CrossCallReturnLabel_86
        CFI (cfiCond66) DPL0 Frame(CFA_SP, 4)
        CFI (cfiCond66) DPH0 Frame(CFA_SP, 5)
        CFI (cfiCond66) CFA_SP SP+-5
        CFI (cfiCond66) CFA_XSP16 add(XSP16, 25)
        CFI Block cfiPicker67 Using cfiCommon1
        CFI (cfiPicker67) NoFunction
        CFI (cfiPicker67) Picker
        MOVX    @DPTR,A
        CFI EndBlock cfiCond63
        CFI EndBlock cfiCond64
        CFI EndBlock cfiCond65
        CFI EndBlock cfiCond66
        CFI EndBlock cfiPicker67
        REQUIRE ??Subroutine43_0
        ; // Fall through to label ??Subroutine43_0

        RSEG BANKED_CODE:CODE:NOROOT(0)
??Subroutine43_0:
        CFI Block cfiCond68 Using cfiCommon0
        CFI NoFunction
        CFI Conditional ??CrossCallReturnLabel_87
        CFI R6 load(1, XDATA, add(CFA_XSP16, literal(-16)))
        CFI VB load(1, XDATA, add(CFA_XSP16, literal(-15)))
        CFI V0 load(1, XDATA, add(CFA_XSP16, literal(-14)))
        CFI V1 load(1, XDATA, add(CFA_XSP16, literal(-13)))
        CFI V2 load(1, XDATA, add(CFA_XSP16, literal(-12)))
        CFI V3 load(1, XDATA, add(CFA_XSP16, literal(-11)))
        CFI V4 load(1, XDATA, add(CFA_XSP16, literal(-10)))
        CFI V5 load(1, XDATA, add(CFA_XSP16, literal(-9)))
        CFI V6 load(1, XDATA, add(CFA_XSP16, literal(-8)))
        CFI V7 load(1, XDATA, add(CFA_XSP16, literal(-7)))
        CFI R7 load(1, XDATA, add(CFA_XSP16, literal(-6)))
        CFI ?RET_LOW load(1, XDATA, add(CFA_XSP16, literal(-5)))
        CFI ?RET_HIGH load(1, XDATA, add(CFA_XSP16, literal(-4)))
        CFI ?BRET_EXT load(1, XDATA, add(CFA_XSP16, literal(-3)))
        CFI DPL0 load(1, XDATA, add(CFA_XSP16, literal(-2)))
        CFI DPH0 load(1, XDATA, add(CFA_XSP16, literal(-1)))
        CFI CFA_SP SP+0
        CFI CFA_XSP16 add(XSP16, 157)
        CFI Block cfiCond69 Using cfiCommon0
        CFI (cfiCond69) NoFunction
        CFI (cfiCond69) Conditional ??CrossCallReturnLabel_83
        CFI (cfiCond69) DPL0 Frame(CFA_SP, 4)
        CFI (cfiCond69) DPH0 Frame(CFA_SP, 5)
        CFI (cfiCond69) CFA_SP SP+-5
        CFI (cfiCond69) CFA_XSP16 add(XSP16, 25)
        CFI Block cfiCond70 Using cfiCommon0
        CFI (cfiCond70) NoFunction
        CFI (cfiCond70) Conditional ??CrossCallReturnLabel_84
        CFI (cfiCond70) DPL0 Frame(CFA_SP, 4)
        CFI (cfiCond70) DPH0 Frame(CFA_SP, 5)
        CFI (cfiCond70) CFA_SP SP+-5
        CFI (cfiCond70) CFA_XSP16 add(XSP16, 25)
        CFI Block cfiCond71 Using cfiCommon0
        CFI (cfiCond71) NoFunction
        CFI (cfiCond71) Conditional ??CrossCallReturnLabel_85
        CFI (cfiCond71) DPL0 Frame(CFA_SP, 4)
        CFI (cfiCond71) DPH0 Frame(CFA_SP, 5)
        CFI (cfiCond71) CFA_SP SP+-5
        CFI (cfiCond71) CFA_XSP16 add(XSP16, 25)
        CFI Block cfiCond72 Using cfiCommon0
        CFI (cfiCond72) NoFunction
        CFI (cfiCond72) Conditional ??CrossCallReturnLabel_86
        CFI (cfiCond72) DPL0 Frame(CFA_SP, 4)
        CFI (cfiCond72) DPH0 Frame(CFA_SP, 5)
        CFI (cfiCond72) CFA_SP SP+-5
        CFI (cfiCond72) CFA_XSP16 add(XSP16, 25)
        CFI Block cfiPicker73 Using cfiCommon1
        CFI (cfiPicker73) NoFunction
        CFI (cfiPicker73) Picker
        MOV     A,R2
        ADD     A,#0x1
        INC     R2
        MOV     A,R3
        ADDC    A,#0x0
        RET
        CFI EndBlock cfiCond68
        CFI EndBlock cfiCond69
        CFI EndBlock cfiCond70
        CFI EndBlock cfiCond71
        CFI EndBlock cfiCond72
        CFI EndBlock cfiPicker73
//  718 

        RSEG BANKED_CODE:CODE:NOROOT(0)
//  719 void SHCoordSendFireAlarmMsg(afIncomingMSGPacket_t *pkt)
SHCoordSendFireAlarmMsg:
        CFI Block cfiBlock74 Using cfiCommon0
        CFI Function SHCoordSendFireAlarmMsg
        CODE
//  720 {
        FUNCALL SHCoordSendFireAlarmMsg, SHCoordSendUartMsg
        LOCFRAME ISTACK, 2, STACK
        LOCFRAME PSTACK, 0, STACK
        LOCFRAME XSTACK, 50, STACK
        LOCFRAME IOVERLAY, 0, STATIC
        LOCFRAME DOVERLAY, 0, STATIC
        ARGFRAME ISTACK, 2, STACK
        ARGFRAME PSTACK, 0, STACK
        ARGFRAME XSTACK, 50, STACK
        ARGFRAME IOVERLAY, 0, STATIC
        ARGFRAME DOVERLAY, 0, STATIC
        PUSH    DPL
        CFI DPL0 Frame(CFA_SP, 4)
        CFI CFA_SP SP+-4
        PUSH    DPH
        CFI DPH0 Frame(CFA_SP, 5)
        CFI CFA_SP SP+-5
        ; Saved register size: 2
        ; Auto size: 25
        MOV     A,#-0x19
        LCALL   ?ALLOC_XSTACK8
        CFI CFA_XSP16 add(XSP16, 25)
//  721 	  uartSendMsg msg;
//  722 	  
//  723 	  msg.header = 0xff;
        LCALL   ?Subroutine12 & 0xFFFF
//  724 	  msg.shortAddr = pkt->srcAddr.addr.shortAddr;
??CrossCallReturnLabel_15:
        LCALL   ?XSTACK_DISP0_8
        LCALL   ?Subroutine5 & 0xFFFF
//  725 	  for(int i=0;i<8;i++)
//  726 	 {
//  727 		msg.extAddr[i] =  pkt->cmd.Data[7-i];
??CrossCallReturnLabel_6:
        LCALL   ?Subroutine20 & 0xFFFF
//  728 	 }
??CrossCallReturnLabel_31:
        PUSH    A
        CFI CFA_SP SP+-6
        LCALL   ?Subroutine22 & 0xFFFF
??CrossCallReturnLabel_39:
        POP     A
        CFI CFA_SP SP+-5
        LCALL   ?Subroutine4 & 0xFFFF
??CrossCallReturnLabel_2:
        JC      ??CrossCallReturnLabel_6
//  729 	
//  730 	  msg.body.msgType = SMARTHOME_FIREALARM;
        MOV     A,#0xb
        LCALL   ?XSTACK_DISP0_8
        MOV     A,#0x3
        MOVX    @DPTR,A
//  731 	  msg.body.len = 0;
        MOV     A,#0xc
        LCALL   ?XSTACK_DISP0_8
        CLR     A
        MOVX    @DPTR,A
//  732 	
//  733 	  for(int i=0;i<msg.body.len;i++)
        MOV     R2,A
        SJMP    ??CrossCallReturnLabel_85
//  734 	  {
//  735 		  msg.body.data[i] = pkt->cmd.Data[8+i];
??SHCoordSendFireAlarmMsg_0:
        LCALL   ?Subroutine21 & 0xFFFF
//  736 	  }
??CrossCallReturnLabel_35:
        PUSH    A
        CFI CFA_SP SP+-6
        LCALL   ?Subroutine11 & 0xFFFF
??CrossCallReturnLabel_81:
        POP     A
        CFI CFA_SP SP+-5
        LCALL   ?Subroutine7 & 0xFFFF
??CrossCallReturnLabel_85:
        MOV     R3,A
        MOV     A,#0xc
        LCALL   ?XSTACK_DISP0_8
        LCALL   ?Subroutine17 & 0xFFFF
??CrossCallReturnLabel_25:
        JC      ??SHCoordSendFireAlarmMsg_0
        CFI EndBlock cfiBlock74
//  737 	  msg.tailer = 0x11;
        REQUIRE ?Subroutine0
        ; // Fall through to label ?Subroutine0
//  738 	  
//  739 	SHCoordSendUartMsg(msg); 
//  740 }

        RSEG BANKED_CODE:CODE:NOROOT(0)
?Subroutine0:
        CFI Block cfiBlock75 Using cfiCommon0
        CFI NoFunction
        CFI CFA_SP SP+-5
        CFI CFA_XSP16 add(XSP16, 25)
        CFI DPL0 Frame(CFA_SP, 4)
        CFI DPH0 Frame(CFA_SP, 5)
        MOV     A,#0x17
        LCALL   ?XSTACK_DISP0_8
        MOV     A,#0x11
        LCALL   ?Subroutine13 & 0xFFFF
??CrossCallReturnLabel_17:
        MOV     A,#0x19
        LCALL   ?PUSH_XSTACK8_X
        CFI CFA_XSP16 add(XSP16, 50)
        LCALL   ??SHCoordSendUartMsg?relay
        MOV     A,#0x19
        LCALL   ?DEALLOC_XSTACK8
        CFI CFA_XSP16 add(XSP16, 25)
        MOV     A,#0x19
        CFI EndBlock cfiBlock75
        REQUIRE ??Subroutine44_0
        ; // Fall through to label ??Subroutine44_0

        RSEG BANKED_CODE:CODE:NOROOT(0)
??Subroutine44_0:
        CFI Block cfiBlock76 Using cfiCommon0
        CFI NoFunction
        CFI CFA_SP SP+-5
        CFI CFA_XSP16 add(XSP16, 50)
        CFI DPL0 Frame(CFA_SP, 4)
        CFI DPH0 Frame(CFA_SP, 5)
        CFI Invalid
        LCALL   ?DEALLOC_XSTACK8
        CFI CFA_XSP16 XSP16+0
        CFI Valid
        POP     DPH
        CFI CFA_SP SP+-4
        CFI DPH0 SameValue
        POP     DPL
        CFI CFA_SP SP+-3
        CFI DPL0 SameValue
        LJMP    ?BRET
        CFI EndBlock cfiBlock76

        RSEG BANKED_CODE:CODE:NOROOT(0)
?Subroutine22:
        CFI Block cfiCond77 Using cfiCommon0
        CFI NoFunction
        CFI Conditional ??CrossCallReturnLabel_37
        CFI DPL0 Frame(CFA_SP, 4)
        CFI DPH0 Frame(CFA_SP, 5)
        CFI CFA_SP SP+-6
        CFI CFA_XSP16 add(XSP16, 25)
        CFI Block cfiCond78 Using cfiCommon0
        CFI (cfiCond78) NoFunction
        CFI (cfiCond78) Conditional ??CrossCallReturnLabel_38
        CFI (cfiCond78) DPL0 Frame(CFA_SP, 4)
        CFI (cfiCond78) DPH0 Frame(CFA_SP, 5)
        CFI (cfiCond78) CFA_SP SP+-6
        CFI (cfiCond78) CFA_XSP16 add(XSP16, 25)
        CFI Block cfiCond79 Using cfiCommon0
        CFI (cfiCond79) NoFunction
        CFI (cfiCond79) Conditional ??CrossCallReturnLabel_39
        CFI (cfiCond79) DPL0 Frame(CFA_SP, 4)
        CFI (cfiCond79) DPH0 Frame(CFA_SP, 5)
        CFI (cfiCond79) CFA_SP SP+-6
        CFI (cfiCond79) CFA_XSP16 add(XSP16, 25)
        CFI Block cfiCond80 Using cfiCommon0
        CFI (cfiCond80) NoFunction
        CFI (cfiCond80) Conditional ??CrossCallReturnLabel_40
        CFI (cfiCond80) DPL0 Frame(CFA_SP, 4)
        CFI (cfiCond80) DPH0 Frame(CFA_SP, 5)
        CFI (cfiCond80) CFA_SP SP+-6
        CFI (cfiCond80) CFA_XSP16 add(XSP16, 25)
        CFI Block cfiPicker81 Using cfiCommon1
        CFI (cfiPicker81) NoFunction
        CFI (cfiPicker81) Picker
        MOV     DPL,?XSP + 0
        MOV     DPH,?XSP + 1
        MOV     A,DPL
        ADD     A,R4
        MOV     DPL,A
        MOV     A,DPH
        ADDC    A,R5
        MOV     DPH,A
        INC     DPTR
        INC     DPTR
        INC     DPTR
        RET
        CFI EndBlock cfiCond77
        CFI EndBlock cfiCond78
        CFI EndBlock cfiCond79
        CFI EndBlock cfiCond80
        CFI EndBlock cfiPicker81

        RSEG BANKED_CODE:CODE:NOROOT(0)
?Subroutine21:
        CFI Block cfiCond82 Using cfiCommon0
        CFI NoFunction
        CFI Conditional ??CrossCallReturnLabel_33
        CFI DPL0 Frame(CFA_SP, 4)
        CFI DPH0 Frame(CFA_SP, 5)
        CFI CFA_SP SP+-5
        CFI CFA_XSP16 add(XSP16, 25)
        CFI Block cfiCond83 Using cfiCommon0
        CFI (cfiCond83) NoFunction
        CFI (cfiCond83) Conditional ??CrossCallReturnLabel_34
        CFI (cfiCond83) DPL0 Frame(CFA_SP, 4)
        CFI (cfiCond83) DPH0 Frame(CFA_SP, 5)
        CFI (cfiCond83) CFA_SP SP+-5
        CFI (cfiCond83) CFA_XSP16 add(XSP16, 25)
        CFI Block cfiCond84 Using cfiCommon0
        CFI (cfiCond84) NoFunction
        CFI (cfiCond84) Conditional ??CrossCallReturnLabel_35
        CFI (cfiCond84) DPL0 Frame(CFA_SP, 4)
        CFI (cfiCond84) DPH0 Frame(CFA_SP, 5)
        CFI (cfiCond84) CFA_SP SP+-5
        CFI (cfiCond84) CFA_XSP16 add(XSP16, 25)
        CFI Block cfiCond85 Using cfiCommon0
        CFI (cfiCond85) NoFunction
        CFI (cfiCond85) Conditional ??CrossCallReturnLabel_36
        CFI (cfiCond85) DPL0 Frame(CFA_SP, 4)
        CFI (cfiCond85) DPH0 Frame(CFA_SP, 5)
        CFI (cfiCond85) CFA_SP SP+-5
        CFI (cfiCond85) CFA_XSP16 add(XSP16, 25)
        CFI Block cfiPicker86 Using cfiCommon1
        CFI (cfiPicker86) NoFunction
        CFI (cfiPicker86) Picker
        LCALL   ?Subroutine32 & 0xFFFF
??CrossCallReturnLabel_60:
        INC     DPTR
        MOVX    A,@DPTR
        RET
        CFI EndBlock cfiCond82
        CFI EndBlock cfiCond83
        CFI EndBlock cfiCond84
        CFI EndBlock cfiCond85
        CFI EndBlock cfiPicker86

        RSEG BANKED_CODE:CODE:NOROOT(0)
?Subroutine20:
        CFI Block cfiCond87 Using cfiCommon0
        CFI NoFunction
        CFI Conditional ??CrossCallReturnLabel_29
        CFI DPL0 Frame(CFA_SP, 4)
        CFI DPH0 Frame(CFA_SP, 5)
        CFI CFA_SP SP+-5
        CFI CFA_XSP16 add(XSP16, 25)
        CFI Block cfiCond88 Using cfiCommon0
        CFI (cfiCond88) NoFunction
        CFI (cfiCond88) Conditional ??CrossCallReturnLabel_30
        CFI (cfiCond88) DPL0 Frame(CFA_SP, 4)
        CFI (cfiCond88) DPH0 Frame(CFA_SP, 5)
        CFI (cfiCond88) CFA_SP SP+-5
        CFI (cfiCond88) CFA_XSP16 add(XSP16, 25)
        CFI Block cfiCond89 Using cfiCommon0
        CFI (cfiCond89) NoFunction
        CFI (cfiCond89) Conditional ??CrossCallReturnLabel_31
        CFI (cfiCond89) DPL0 Frame(CFA_SP, 4)
        CFI (cfiCond89) DPH0 Frame(CFA_SP, 5)
        CFI (cfiCond89) CFA_SP SP+-5
        CFI (cfiCond89) CFA_XSP16 add(XSP16, 25)
        CFI Block cfiCond90 Using cfiCommon0
        CFI (cfiCond90) NoFunction
        CFI (cfiCond90) Conditional ??CrossCallReturnLabel_32
        CFI (cfiCond90) DPL0 Frame(CFA_SP, 4)
        CFI (cfiCond90) DPH0 Frame(CFA_SP, 5)
        CFI (cfiCond90) CFA_SP SP+-5
        CFI (cfiCond90) CFA_XSP16 add(XSP16, 25)
        CFI Block cfiPicker91 Using cfiCommon1
        CFI (cfiPicker91) NoFunction
        CFI (cfiPicker91) Picker
        CLR     C
        CLR     A
        SUBB    A,R4
        MOV     R2,A
        CLR     A
        SUBB    A,R5
        MOV     R3,A
        LCALL   ?Subroutine32 & 0xFFFF
??CrossCallReturnLabel_59:
        MOVX    A,@DPTR
        RET
        CFI EndBlock cfiCond87
        CFI EndBlock cfiCond88
        CFI EndBlock cfiCond89
        CFI EndBlock cfiCond90
        CFI EndBlock cfiPicker91

        RSEG BANKED_CODE:CODE:NOROOT(0)
?Subroutine32:
        CFI Block cfiCond92 Using cfiCommon0
        CFI NoFunction
        CFI Conditional ??CrossCallReturnLabel_60, ??CrossCallReturnLabel_33
        CFI DPL0 Frame(CFA_SP, 4)
        CFI DPH0 Frame(CFA_SP, 5)
        CFI CFA_SP SP+-5
        CFI CFA_XSP16 add(XSP16, 25)
        CFI Block cfiCond93 Using cfiCommon0
        CFI (cfiCond93) NoFunction
        CFI (cfiCond93) Conditional ??CrossCallReturnLabel_60, ??CrossCallReturnLabel_34
        CFI (cfiCond93) DPL0 Frame(CFA_SP, 4)
        CFI (cfiCond93) DPH0 Frame(CFA_SP, 5)
        CFI (cfiCond93) CFA_SP SP+-5
        CFI (cfiCond93) CFA_XSP16 add(XSP16, 25)
        CFI Block cfiCond94 Using cfiCommon0
        CFI (cfiCond94) NoFunction
        CFI (cfiCond94) Conditional ??CrossCallReturnLabel_60, ??CrossCallReturnLabel_35
        CFI (cfiCond94) DPL0 Frame(CFA_SP, 4)
        CFI (cfiCond94) DPH0 Frame(CFA_SP, 5)
        CFI (cfiCond94) CFA_SP SP+-5
        CFI (cfiCond94) CFA_XSP16 add(XSP16, 25)
        CFI Block cfiCond95 Using cfiCommon0
        CFI (cfiCond95) NoFunction
        CFI (cfiCond95) Conditional ??CrossCallReturnLabel_60, ??CrossCallReturnLabel_36
        CFI (cfiCond95) DPL0 Frame(CFA_SP, 4)
        CFI (cfiCond95) DPH0 Frame(CFA_SP, 5)
        CFI (cfiCond95) CFA_SP SP+-5
        CFI (cfiCond95) CFA_XSP16 add(XSP16, 25)
        CFI Block cfiCond96 Using cfiCommon0
        CFI (cfiCond96) NoFunction
        CFI (cfiCond96) Conditional ??CrossCallReturnLabel_59, ??CrossCallReturnLabel_29
        CFI (cfiCond96) DPL0 Frame(CFA_SP, 4)
        CFI (cfiCond96) DPH0 Frame(CFA_SP, 5)
        CFI (cfiCond96) CFA_SP SP+-5
        CFI (cfiCond96) CFA_XSP16 add(XSP16, 25)
        CFI Block cfiCond97 Using cfiCommon0
        CFI (cfiCond97) NoFunction
        CFI (cfiCond97) Conditional ??CrossCallReturnLabel_59, ??CrossCallReturnLabel_30
        CFI (cfiCond97) DPL0 Frame(CFA_SP, 4)
        CFI (cfiCond97) DPH0 Frame(CFA_SP, 5)
        CFI (cfiCond97) CFA_SP SP+-5
        CFI (cfiCond97) CFA_XSP16 add(XSP16, 25)
        CFI Block cfiCond98 Using cfiCommon0
        CFI (cfiCond98) NoFunction
        CFI (cfiCond98) Conditional ??CrossCallReturnLabel_59, ??CrossCallReturnLabel_31
        CFI (cfiCond98) DPL0 Frame(CFA_SP, 4)
        CFI (cfiCond98) DPH0 Frame(CFA_SP, 5)
        CFI (cfiCond98) CFA_SP SP+-5
        CFI (cfiCond98) CFA_XSP16 add(XSP16, 25)
        CFI Block cfiCond99 Using cfiCommon0
        CFI (cfiCond99) NoFunction
        CFI (cfiCond99) Conditional ??CrossCallReturnLabel_59, ??CrossCallReturnLabel_32
        CFI (cfiCond99) DPL0 Frame(CFA_SP, 4)
        CFI (cfiCond99) DPH0 Frame(CFA_SP, 5)
        CFI (cfiCond99) CFA_SP SP+-5
        CFI (cfiCond99) CFA_XSP16 add(XSP16, 25)
        CFI Block cfiPicker100 Using cfiCommon1
        CFI (cfiPicker100) NoFunction
        CFI (cfiPicker100) Picker
        MOV     A,R0
        ADD     A,R2
        MOV     DPL,A
        MOV     A,R1
        ADDC    A,R3
        MOV     DPH,A
        INC     DPTR
        INC     DPTR
        INC     DPTR
        INC     DPTR
        INC     DPTR
        INC     DPTR
        INC     DPTR
        RET
        CFI EndBlock cfiCond92
        CFI EndBlock cfiCond93
        CFI EndBlock cfiCond94
        CFI EndBlock cfiCond95
        CFI EndBlock cfiCond96
        CFI EndBlock cfiCond97
        CFI EndBlock cfiCond98
        CFI EndBlock cfiCond99
        CFI EndBlock cfiPicker100

        RSEG BANKED_CODE:CODE:NOROOT(0)
?Subroutine17:
        CFI Block cfiCond101 Using cfiCommon0
        CFI NoFunction
        CFI Conditional ??CrossCallReturnLabel_23
        CFI DPL0 Frame(CFA_SP, 4)
        CFI DPH0 Frame(CFA_SP, 5)
        CFI CFA_SP SP+-5
        CFI CFA_XSP16 add(XSP16, 25)
        CFI Block cfiCond102 Using cfiCommon0
        CFI (cfiCond102) NoFunction
        CFI (cfiCond102) Conditional ??CrossCallReturnLabel_24
        CFI (cfiCond102) DPL0 Frame(CFA_SP, 4)
        CFI (cfiCond102) DPH0 Frame(CFA_SP, 5)
        CFI (cfiCond102) CFA_SP SP+-5
        CFI (cfiCond102) CFA_XSP16 add(XSP16, 25)
        CFI Block cfiCond103 Using cfiCommon0
        CFI (cfiCond103) NoFunction
        CFI (cfiCond103) Conditional ??CrossCallReturnLabel_25
        CFI (cfiCond103) DPL0 Frame(CFA_SP, 4)
        CFI (cfiCond103) DPH0 Frame(CFA_SP, 5)
        CFI (cfiCond103) CFA_SP SP+-5
        CFI (cfiCond103) CFA_XSP16 add(XSP16, 25)
        CFI Block cfiCond104 Using cfiCommon0
        CFI (cfiCond104) NoFunction
        CFI (cfiCond104) Conditional ??CrossCallReturnLabel_26
        CFI (cfiCond104) DPL0 Frame(CFA_SP, 4)
        CFI (cfiCond104) DPH0 Frame(CFA_SP, 5)
        CFI (cfiCond104) CFA_SP SP+-5
        CFI (cfiCond104) CFA_XSP16 add(XSP16, 25)
        CFI Block cfiPicker105 Using cfiCommon1
        CFI (cfiPicker105) NoFunction
        CFI (cfiPicker105) Picker
        MOVX    A,@DPTR
        MOV     R4,A
        CLR     C
        MOV     A,R2
        SUBB    A,R4
        MOV     A,R3
        LCALL   ?Subroutine33 & 0xFFFF
??CrossCallReturnLabel_96:
        RET
        CFI EndBlock cfiCond101
        CFI EndBlock cfiCond102
        CFI EndBlock cfiCond103
        CFI EndBlock cfiCond104
        CFI EndBlock cfiPicker105

        RSEG BANKED_CODE:CODE:NOROOT(0)
?Subroutine12:
        CFI Block cfiCond106 Using cfiCommon0
        CFI NoFunction
        CFI Conditional ??CrossCallReturnLabel_13
        CFI DPL0 Frame(CFA_SP, 4)
        CFI DPH0 Frame(CFA_SP, 5)
        CFI CFA_SP SP+-5
        CFI CFA_XSP16 add(XSP16, 25)
        CFI Block cfiCond107 Using cfiCommon0
        CFI (cfiCond107) NoFunction
        CFI (cfiCond107) Conditional ??CrossCallReturnLabel_14
        CFI (cfiCond107) DPL0 Frame(CFA_SP, 4)
        CFI (cfiCond107) DPH0 Frame(CFA_SP, 5)
        CFI (cfiCond107) CFA_SP SP+-5
        CFI (cfiCond107) CFA_XSP16 add(XSP16, 25)
        CFI Block cfiCond108 Using cfiCommon0
        CFI (cfiCond108) NoFunction
        CFI (cfiCond108) Conditional ??CrossCallReturnLabel_15
        CFI (cfiCond108) DPL0 Frame(CFA_SP, 4)
        CFI (cfiCond108) DPH0 Frame(CFA_SP, 5)
        CFI (cfiCond108) CFA_SP SP+-5
        CFI (cfiCond108) CFA_XSP16 add(XSP16, 25)
        CFI Block cfiCond109 Using cfiCommon0
        CFI (cfiCond109) NoFunction
        CFI (cfiCond109) Conditional ??CrossCallReturnLabel_16
        CFI (cfiCond109) DPL0 Frame(CFA_SP, 4)
        CFI (cfiCond109) DPH0 Frame(CFA_SP, 5)
        CFI (cfiCond109) CFA_SP SP+-5
        CFI (cfiCond109) CFA_XSP16 add(XSP16, 25)
        CFI Block cfiPicker110 Using cfiCommon1
        CFI (cfiPicker110) NoFunction
        CFI (cfiPicker110) Picker
        MOV     DPL,?XSP + 0
        MOV     DPH,?XSP + 1
        MOV     A,#-0x1
        LCALL   ?Subroutine30 & 0xFFFF
??CrossCallReturnLabel_53:
        INC     DPTR
        INC     DPTR
        INC     DPTR
        LCALL   ?Subroutine31 & 0xFFFF
??CrossCallReturnLabel_58:
        MOV     A,#0x1
        RET
        CFI EndBlock cfiCond106
        CFI EndBlock cfiCond107
        CFI EndBlock cfiCond108
        CFI EndBlock cfiCond109
        CFI EndBlock cfiPicker110

        RSEG BANKED_CODE:CODE:NOROOT(0)
?Subroutine5:
        CFI Block cfiCond111 Using cfiCommon0
        CFI NoFunction
        CFI Conditional ??CrossCallReturnLabel_4
        CFI DPL0 Frame(CFA_SP, 4)
        CFI DPH0 Frame(CFA_SP, 5)
        CFI CFA_SP SP+-5
        CFI CFA_XSP16 add(XSP16, 25)
        CFI Block cfiCond112 Using cfiCommon0
        CFI (cfiCond112) NoFunction
        CFI (cfiCond112) Conditional ??CrossCallReturnLabel_5
        CFI (cfiCond112) DPL0 Frame(CFA_SP, 4)
        CFI (cfiCond112) DPH0 Frame(CFA_SP, 5)
        CFI (cfiCond112) CFA_SP SP+-5
        CFI (cfiCond112) CFA_XSP16 add(XSP16, 25)
        CFI Block cfiCond113 Using cfiCommon0
        CFI (cfiCond113) NoFunction
        CFI (cfiCond113) Conditional ??CrossCallReturnLabel_6
        CFI (cfiCond113) DPL0 Frame(CFA_SP, 4)
        CFI (cfiCond113) DPH0 Frame(CFA_SP, 5)
        CFI (cfiCond113) CFA_SP SP+-5
        CFI (cfiCond113) CFA_XSP16 add(XSP16, 25)
        CFI Block cfiCond114 Using cfiCommon0
        CFI (cfiCond114) NoFunction
        CFI (cfiCond114) Conditional ??CrossCallReturnLabel_7
        CFI (cfiCond114) DPL0 Frame(CFA_SP, 4)
        CFI (cfiCond114) DPH0 Frame(CFA_SP, 5)
        CFI (cfiCond114) CFA_SP SP+-5
        CFI (cfiCond114) CFA_XSP16 add(XSP16, 25)
        CFI Block cfiPicker115 Using cfiCommon1
        CFI (cfiPicker115) NoFunction
        CFI (cfiPicker115) Picker
        MOV     A,R0
        MOVX    @DPTR,A
        INC     DPTR
        MOV     A,R1
        MOVX    @DPTR,A
        MOV     R4,#0x0
        MOV     R5,#0x0
        MOV     A,R2
        ADD     A,#0x21
        MOV     DPL,A
        MOV     A,R3
        ADDC    A,#0x0
        MOV     DPH,A
        LCALL   ?Subroutine31 & 0xFFFF
??CrossCallReturnLabel_57:
        RET
        CFI EndBlock cfiCond111
        CFI EndBlock cfiCond112
        CFI EndBlock cfiCond113
        CFI EndBlock cfiCond114
        CFI EndBlock cfiPicker115

        RSEG BANKED_CODE:CODE:NOROOT(0)
?Subroutine31:
        CFI Block cfiCond116 Using cfiCommon0
        CFI NoFunction
        CFI Conditional ??CrossCallReturnLabel_55
        CFI R6 load(1, XDATA, add(CFA_XSP16, literal(-12)))
        CFI VB load(1, XDATA, add(CFA_XSP16, literal(-11)))
        CFI V0 load(1, XDATA, add(CFA_XSP16, literal(-10)))
        CFI V1 load(1, XDATA, add(CFA_XSP16, literal(-9)))
        CFI V2 load(1, XDATA, add(CFA_XSP16, literal(-8)))
        CFI V3 load(1, XDATA, add(CFA_XSP16, literal(-7)))
        CFI R7 load(1, XDATA, add(CFA_XSP16, literal(-6)))
        CFI ?RET_LOW load(1, XDATA, add(CFA_XSP16, literal(-5)))
        CFI ?RET_HIGH load(1, XDATA, add(CFA_XSP16, literal(-4)))
        CFI ?BRET_EXT load(1, XDATA, add(CFA_XSP16, literal(-3)))
        CFI DPL0 load(1, XDATA, add(CFA_XSP16, literal(-2)))
        CFI DPH0 load(1, XDATA, add(CFA_XSP16, literal(-1)))
        CFI CFA_SP SP+0
        CFI CFA_XSP16 add(XSP16, 12)
        CFI Block cfiCond117 Using cfiCommon0
        CFI (cfiCond117) NoFunction
        CFI (cfiCond117) Conditional ??CrossCallReturnLabel_58, ??CrossCallReturnLabel_13
        CFI (cfiCond117) DPL0 Frame(CFA_SP, 4)
        CFI (cfiCond117) DPH0 Frame(CFA_SP, 5)
        CFI (cfiCond117) CFA_SP SP+-5
        CFI (cfiCond117) CFA_XSP16 add(XSP16, 25)
        CFI Block cfiCond118 Using cfiCommon0
        CFI (cfiCond118) NoFunction
        CFI (cfiCond118) Conditional ??CrossCallReturnLabel_58, ??CrossCallReturnLabel_14
        CFI (cfiCond118) DPL0 Frame(CFA_SP, 4)
        CFI (cfiCond118) DPH0 Frame(CFA_SP, 5)
        CFI (cfiCond118) CFA_SP SP+-5
        CFI (cfiCond118) CFA_XSP16 add(XSP16, 25)
        CFI Block cfiCond119 Using cfiCommon0
        CFI (cfiCond119) NoFunction
        CFI (cfiCond119) Conditional ??CrossCallReturnLabel_58, ??CrossCallReturnLabel_15
        CFI (cfiCond119) DPL0 Frame(CFA_SP, 4)
        CFI (cfiCond119) DPH0 Frame(CFA_SP, 5)
        CFI (cfiCond119) CFA_SP SP+-5
        CFI (cfiCond119) CFA_XSP16 add(XSP16, 25)
        CFI Block cfiCond120 Using cfiCommon0
        CFI (cfiCond120) NoFunction
        CFI (cfiCond120) Conditional ??CrossCallReturnLabel_58, ??CrossCallReturnLabel_16
        CFI (cfiCond120) DPL0 Frame(CFA_SP, 4)
        CFI (cfiCond120) DPH0 Frame(CFA_SP, 5)
        CFI (cfiCond120) CFA_SP SP+-5
        CFI (cfiCond120) CFA_XSP16 add(XSP16, 25)
        CFI Block cfiCond121 Using cfiCommon0
        CFI (cfiCond121) NoFunction
        CFI (cfiCond121) Conditional ??CrossCallReturnLabel_57, ??CrossCallReturnLabel_4
        CFI (cfiCond121) DPL0 Frame(CFA_SP, 4)
        CFI (cfiCond121) DPH0 Frame(CFA_SP, 5)
        CFI (cfiCond121) CFA_SP SP+-5
        CFI (cfiCond121) CFA_XSP16 add(XSP16, 25)
        CFI Block cfiCond122 Using cfiCommon0
        CFI (cfiCond122) NoFunction
        CFI (cfiCond122) Conditional ??CrossCallReturnLabel_57, ??CrossCallReturnLabel_5
        CFI (cfiCond122) DPL0 Frame(CFA_SP, 4)
        CFI (cfiCond122) DPH0 Frame(CFA_SP, 5)
        CFI (cfiCond122) CFA_SP SP+-5
        CFI (cfiCond122) CFA_XSP16 add(XSP16, 25)
        CFI Block cfiCond123 Using cfiCommon0
        CFI (cfiCond123) NoFunction
        CFI (cfiCond123) Conditional ??CrossCallReturnLabel_57, ??CrossCallReturnLabel_6
        CFI (cfiCond123) DPL0 Frame(CFA_SP, 4)
        CFI (cfiCond123) DPH0 Frame(CFA_SP, 5)
        CFI (cfiCond123) CFA_SP SP+-5
        CFI (cfiCond123) CFA_XSP16 add(XSP16, 25)
        CFI Block cfiCond124 Using cfiCommon0
        CFI (cfiCond124) NoFunction
        CFI (cfiCond124) Conditional ??CrossCallReturnLabel_57, ??CrossCallReturnLabel_7
        CFI (cfiCond124) DPL0 Frame(CFA_SP, 4)
        CFI (cfiCond124) DPH0 Frame(CFA_SP, 5)
        CFI (cfiCond124) CFA_SP SP+-5
        CFI (cfiCond124) CFA_XSP16 add(XSP16, 25)
        CFI Block cfiCond125 Using cfiCommon0
        CFI (cfiCond125) NoFunction
        CFI (cfiCond125) Conditional ??CrossCallReturnLabel_56
        CFI (cfiCond125) R6 load(1, XDATA, add(CFA_XSP16, literal(-10)))
        CFI (cfiCond125) VB load(1, XDATA, add(CFA_XSP16, literal(-9)))
        CFI (cfiCond125) V0 load(1, XDATA, add(CFA_XSP16, literal(-8)))
        CFI (cfiCond125) V1 load(1, XDATA, add(CFA_XSP16, literal(-7)))
        CFI (cfiCond125) R7 load(1, XDATA, add(CFA_XSP16, literal(-6)))
        CFI (cfiCond125) ?RET_LOW load(1, XDATA, add(CFA_XSP16, literal(-5)))
        CFI (cfiCond125) ?RET_HIGH load(1, XDATA, add(CFA_XSP16, literal(-4)))
        CFI (cfiCond125) ?BRET_EXT load(1, XDATA, add(CFA_XSP16, literal(-3)))
        CFI (cfiCond125) DPL0 load(1, XDATA, add(CFA_XSP16, literal(-2)))
        CFI (cfiCond125) DPH0 load(1, XDATA, add(CFA_XSP16, literal(-1)))
        CFI (cfiCond125) CFA_SP SP+0
        CFI (cfiCond125) CFA_XSP16 add(XSP16, 31)
        CFI Block cfiPicker126 Using cfiCommon1
        CFI (cfiPicker126) NoFunction
        CFI (cfiPicker126) Picker
        MOVX    A,@DPTR
        MOV     R0,A
        INC     DPTR
        MOVX    A,@DPTR
        MOV     R1,A
        RET
        CFI EndBlock cfiCond116
        CFI EndBlock cfiCond117
        CFI EndBlock cfiCond118
        CFI EndBlock cfiCond119
        CFI EndBlock cfiCond120
        CFI EndBlock cfiCond121
        CFI EndBlock cfiCond122
        CFI EndBlock cfiCond123
        CFI EndBlock cfiCond124
        CFI EndBlock cfiCond125
        CFI EndBlock cfiPicker126

        RSEG BANKED_CODE:CODE:NOROOT(0)
?Subroutine4:
        CFI Block cfiCond127 Using cfiCommon0
        CFI NoFunction
        CFI Conditional ??CrossCallReturnLabel_0
        CFI DPL0 Frame(CFA_SP, 4)
        CFI DPH0 Frame(CFA_SP, 5)
        CFI CFA_SP SP+-5
        CFI CFA_XSP16 add(XSP16, 25)
        CFI Block cfiCond128 Using cfiCommon0
        CFI (cfiCond128) NoFunction
        CFI (cfiCond128) Conditional ??CrossCallReturnLabel_1
        CFI (cfiCond128) DPL0 Frame(CFA_SP, 4)
        CFI (cfiCond128) DPH0 Frame(CFA_SP, 5)
        CFI (cfiCond128) CFA_SP SP+-5
        CFI (cfiCond128) CFA_XSP16 add(XSP16, 25)
        CFI Block cfiCond129 Using cfiCommon0
        CFI (cfiCond129) NoFunction
        CFI (cfiCond129) Conditional ??CrossCallReturnLabel_2
        CFI (cfiCond129) DPL0 Frame(CFA_SP, 4)
        CFI (cfiCond129) DPH0 Frame(CFA_SP, 5)
        CFI (cfiCond129) CFA_SP SP+-5
        CFI (cfiCond129) CFA_XSP16 add(XSP16, 25)
        CFI Block cfiCond130 Using cfiCommon0
        CFI (cfiCond130) NoFunction
        CFI (cfiCond130) Conditional ??CrossCallReturnLabel_3
        CFI (cfiCond130) DPL0 Frame(CFA_SP, 4)
        CFI (cfiCond130) DPH0 Frame(CFA_SP, 5)
        CFI (cfiCond130) CFA_SP SP+-5
        CFI (cfiCond130) CFA_XSP16 add(XSP16, 25)
        CFI Block cfiPicker131 Using cfiCommon1
        CFI (cfiPicker131) NoFunction
        CFI (cfiPicker131) Picker
        MOVX    @DPTR,A
        MOV     A,R4
        ADD     A,#0x1
        INC     R4
        MOV     A,R5
        ADDC    A,#0x0
        MOV     R5,A
        CLR     C
        MOV     A,R4
        SUBB    A,#0x8
        MOV     A,R5
        LCALL   ?Subroutine33 & 0xFFFF
??CrossCallReturnLabel_95:
        RET
        CFI EndBlock cfiCond127
        CFI EndBlock cfiCond128
        CFI EndBlock cfiCond129
        CFI EndBlock cfiCond130
        CFI EndBlock cfiPicker131

        RSEG BANKED_CODE:CODE:NOROOT(0)
?Subroutine33:
        CFI Block cfiCond132 Using cfiCommon0
        CFI NoFunction
        CFI Conditional ??CrossCallReturnLabel_96, ??CrossCallReturnLabel_23
        CFI DPL0 Frame(CFA_SP, 4)
        CFI DPH0 Frame(CFA_SP, 5)
        CFI CFA_SP SP+-5
        CFI CFA_XSP16 add(XSP16, 25)
        CFI Block cfiCond133 Using cfiCommon0
        CFI (cfiCond133) NoFunction
        CFI (cfiCond133) Conditional ??CrossCallReturnLabel_96, ??CrossCallReturnLabel_24
        CFI (cfiCond133) DPL0 Frame(CFA_SP, 4)
        CFI (cfiCond133) DPH0 Frame(CFA_SP, 5)
        CFI (cfiCond133) CFA_SP SP+-5
        CFI (cfiCond133) CFA_XSP16 add(XSP16, 25)
        CFI Block cfiCond134 Using cfiCommon0
        CFI (cfiCond134) NoFunction
        CFI (cfiCond134) Conditional ??CrossCallReturnLabel_96, ??CrossCallReturnLabel_25
        CFI (cfiCond134) DPL0 Frame(CFA_SP, 4)
        CFI (cfiCond134) DPH0 Frame(CFA_SP, 5)
        CFI (cfiCond134) CFA_SP SP+-5
        CFI (cfiCond134) CFA_XSP16 add(XSP16, 25)
        CFI Block cfiCond135 Using cfiCommon0
        CFI (cfiCond135) NoFunction
        CFI (cfiCond135) Conditional ??CrossCallReturnLabel_96, ??CrossCallReturnLabel_26
        CFI (cfiCond135) DPL0 Frame(CFA_SP, 4)
        CFI (cfiCond135) DPH0 Frame(CFA_SP, 5)
        CFI (cfiCond135) CFA_SP SP+-5
        CFI (cfiCond135) CFA_XSP16 add(XSP16, 25)
        CFI Block cfiCond136 Using cfiCommon0
        CFI (cfiCond136) NoFunction
        CFI (cfiCond136) Conditional ??CrossCallReturnLabel_95, ??CrossCallReturnLabel_0
        CFI (cfiCond136) DPL0 Frame(CFA_SP, 4)
        CFI (cfiCond136) DPH0 Frame(CFA_SP, 5)
        CFI (cfiCond136) CFA_SP SP+-5
        CFI (cfiCond136) CFA_XSP16 add(XSP16, 25)
        CFI Block cfiCond137 Using cfiCommon0
        CFI (cfiCond137) NoFunction
        CFI (cfiCond137) Conditional ??CrossCallReturnLabel_95, ??CrossCallReturnLabel_1
        CFI (cfiCond137) DPL0 Frame(CFA_SP, 4)
        CFI (cfiCond137) DPH0 Frame(CFA_SP, 5)
        CFI (cfiCond137) CFA_SP SP+-5
        CFI (cfiCond137) CFA_XSP16 add(XSP16, 25)
        CFI Block cfiCond138 Using cfiCommon0
        CFI (cfiCond138) NoFunction
        CFI (cfiCond138) Conditional ??CrossCallReturnLabel_95, ??CrossCallReturnLabel_2
        CFI (cfiCond138) DPL0 Frame(CFA_SP, 4)
        CFI (cfiCond138) DPH0 Frame(CFA_SP, 5)
        CFI (cfiCond138) CFA_SP SP+-5
        CFI (cfiCond138) CFA_XSP16 add(XSP16, 25)
        CFI Block cfiCond139 Using cfiCommon0
        CFI (cfiCond139) NoFunction
        CFI (cfiCond139) Conditional ??CrossCallReturnLabel_95, ??CrossCallReturnLabel_3
        CFI (cfiCond139) DPL0 Frame(CFA_SP, 4)
        CFI (cfiCond139) DPH0 Frame(CFA_SP, 5)
        CFI (cfiCond139) CFA_SP SP+-5
        CFI (cfiCond139) CFA_XSP16 add(XSP16, 25)
        CFI Block cfiCond140 Using cfiCommon0
        CFI (cfiCond140) NoFunction
        CFI (cfiCond140) Conditional ??CrossCallReturnLabel_97, ??CrossCallReturnLabel_90
        CFI (cfiCond140) DPL0 Frame(CFA_SP, 4)
        CFI (cfiCond140) DPH0 Frame(CFA_SP, 5)
        CFI (cfiCond140) CFA_SP SP+-5
        CFI (cfiCond140) CFA_XSP16 add(XSP16, 50)
        CFI Block cfiCond141 Using cfiCommon0
        CFI (cfiCond141) NoFunction
        CFI (cfiCond141) Conditional ??CrossCallReturnLabel_97, ??CrossCallReturnLabel_91
        CFI (cfiCond141) DPL0 Frame(CFA_SP, 4)
        CFI (cfiCond141) DPH0 Frame(CFA_SP, 5)
        CFI (cfiCond141) CFA_SP SP+-5
        CFI (cfiCond141) CFA_XSP16 add(XSP16, 50)
        CFI Block cfiCond142 Using cfiCommon0
        CFI (cfiCond142) NoFunction
        CFI (cfiCond142) Conditional ??CrossCallReturnLabel_97, ??CrossCallReturnLabel_92
        CFI (cfiCond142) R6 load(1, XDATA, add(CFA_XSP16, literal(-10)))
        CFI (cfiCond142) VB load(1, XDATA, add(CFA_XSP16, literal(-9)))
        CFI (cfiCond142) V0 load(1, XDATA, add(CFA_XSP16, literal(-8)))
        CFI (cfiCond142) V1 load(1, XDATA, add(CFA_XSP16, literal(-7)))
        CFI (cfiCond142) R7 load(1, XDATA, add(CFA_XSP16, literal(-6)))
        CFI (cfiCond142) ?RET_LOW load(1, XDATA, add(CFA_XSP16, literal(-5)))
        CFI (cfiCond142) ?RET_HIGH load(1, XDATA, add(CFA_XSP16, literal(-4)))
        CFI (cfiCond142) ?BRET_EXT load(1, XDATA, add(CFA_XSP16, literal(-3)))
        CFI (cfiCond142) DPL0 load(1, XDATA, add(CFA_XSP16, literal(-2)))
        CFI (cfiCond142) DPH0 load(1, XDATA, add(CFA_XSP16, literal(-1)))
        CFI (cfiCond142) CFA_SP SP+0
        CFI (cfiCond142) CFA_XSP16 add(XSP16, 31)
        CFI Block cfiCond143 Using cfiCommon0
        CFI (cfiCond143) NoFunction
        CFI (cfiCond143) Conditional ??CrossCallReturnLabel_97, ??CrossCallReturnLabel_93
        CFI (cfiCond143) R6 load(1, XDATA, add(CFA_XSP16, literal(-16)))
        CFI (cfiCond143) VB load(1, XDATA, add(CFA_XSP16, literal(-15)))
        CFI (cfiCond143) V0 load(1, XDATA, add(CFA_XSP16, literal(-14)))
        CFI (cfiCond143) V1 load(1, XDATA, add(CFA_XSP16, literal(-13)))
        CFI (cfiCond143) V2 load(1, XDATA, add(CFA_XSP16, literal(-12)))
        CFI (cfiCond143) V3 load(1, XDATA, add(CFA_XSP16, literal(-11)))
        CFI (cfiCond143) V4 load(1, XDATA, add(CFA_XSP16, literal(-10)))
        CFI (cfiCond143) V5 load(1, XDATA, add(CFA_XSP16, literal(-9)))
        CFI (cfiCond143) V6 load(1, XDATA, add(CFA_XSP16, literal(-8)))
        CFI (cfiCond143) V7 load(1, XDATA, add(CFA_XSP16, literal(-7)))
        CFI (cfiCond143) R7 load(1, XDATA, add(CFA_XSP16, literal(-6)))
        CFI (cfiCond143) ?RET_LOW load(1, XDATA, add(CFA_XSP16, literal(-5)))
        CFI (cfiCond143) ?RET_HIGH load(1, XDATA, add(CFA_XSP16, literal(-4)))
        CFI (cfiCond143) ?BRET_EXT load(1, XDATA, add(CFA_XSP16, literal(-3)))
        CFI (cfiCond143) DPL0 load(1, XDATA, add(CFA_XSP16, literal(-2)))
        CFI (cfiCond143) DPH0 load(1, XDATA, add(CFA_XSP16, literal(-1)))
        CFI (cfiCond143) CFA_SP SP+0
        CFI (cfiCond143) CFA_XSP16 add(XSP16, 157)
        CFI Block cfiCond144 Using cfiCommon0
        CFI (cfiCond144) NoFunction
        CFI (cfiCond144) Conditional ??CrossCallReturnLabel_97, ??CrossCallReturnLabel_94
        CFI (cfiCond144) R6 load(1, XDATA, add(CFA_XSP16, literal(-16)))
        CFI (cfiCond144) VB load(1, XDATA, add(CFA_XSP16, literal(-15)))
        CFI (cfiCond144) V0 load(1, XDATA, add(CFA_XSP16, literal(-14)))
        CFI (cfiCond144) V1 load(1, XDATA, add(CFA_XSP16, literal(-13)))
        CFI (cfiCond144) V2 load(1, XDATA, add(CFA_XSP16, literal(-12)))
        CFI (cfiCond144) V3 load(1, XDATA, add(CFA_XSP16, literal(-11)))
        CFI (cfiCond144) V4 load(1, XDATA, add(CFA_XSP16, literal(-10)))
        CFI (cfiCond144) V5 load(1, XDATA, add(CFA_XSP16, literal(-9)))
        CFI (cfiCond144) V6 load(1, XDATA, add(CFA_XSP16, literal(-8)))
        CFI (cfiCond144) V7 load(1, XDATA, add(CFA_XSP16, literal(-7)))
        CFI (cfiCond144) R7 load(1, XDATA, add(CFA_XSP16, literal(-6)))
        CFI (cfiCond144) ?RET_LOW load(1, XDATA, add(CFA_XSP16, literal(-5)))
        CFI (cfiCond144) ?RET_HIGH load(1, XDATA, add(CFA_XSP16, literal(-4)))
        CFI (cfiCond144) ?BRET_EXT load(1, XDATA, add(CFA_XSP16, literal(-3)))
        CFI (cfiCond144) DPL0 load(1, XDATA, add(CFA_XSP16, literal(-2)))
        CFI (cfiCond144) DPH0 load(1, XDATA, add(CFA_XSP16, literal(-1)))
        CFI (cfiCond144) CFA_SP SP+0
        CFI (cfiCond144) CFA_XSP16 add(XSP16, 157)
        CFI Block cfiCond145 Using cfiCommon0
        CFI (cfiCond145) NoFunction
        CFI (cfiCond145) Conditional ??CrossCallReturnLabel_97, ??CrossCallReturnLabel_88
        CFI (cfiCond145) R6 load(1, XDATA, add(CFA_XSP16, literal(-16)))
        CFI (cfiCond145) VB load(1, XDATA, add(CFA_XSP16, literal(-15)))
        CFI (cfiCond145) V0 load(1, XDATA, add(CFA_XSP16, literal(-14)))
        CFI (cfiCond145) V1 load(1, XDATA, add(CFA_XSP16, literal(-13)))
        CFI (cfiCond145) V2 load(1, XDATA, add(CFA_XSP16, literal(-12)))
        CFI (cfiCond145) V3 load(1, XDATA, add(CFA_XSP16, literal(-11)))
        CFI (cfiCond145) V4 load(1, XDATA, add(CFA_XSP16, literal(-10)))
        CFI (cfiCond145) V5 load(1, XDATA, add(CFA_XSP16, literal(-9)))
        CFI (cfiCond145) V6 load(1, XDATA, add(CFA_XSP16, literal(-8)))
        CFI (cfiCond145) V7 load(1, XDATA, add(CFA_XSP16, literal(-7)))
        CFI (cfiCond145) R7 load(1, XDATA, add(CFA_XSP16, literal(-6)))
        CFI (cfiCond145) ?RET_LOW load(1, XDATA, add(CFA_XSP16, literal(-5)))
        CFI (cfiCond145) ?RET_HIGH load(1, XDATA, add(CFA_XSP16, literal(-4)))
        CFI (cfiCond145) ?BRET_EXT load(1, XDATA, add(CFA_XSP16, literal(-3)))
        CFI (cfiCond145) DPL0 load(1, XDATA, add(CFA_XSP16, literal(-2)))
        CFI (cfiCond145) DPH0 load(1, XDATA, add(CFA_XSP16, literal(-1)))
        CFI (cfiCond145) CFA_SP SP+0
        CFI (cfiCond145) CFA_XSP16 add(XSP16, 157)
        CFI Block cfiCond146 Using cfiCommon0
        CFI (cfiCond146) NoFunction
        CFI (cfiCond146) Conditional ??CrossCallReturnLabel_97, ??CrossCallReturnLabel_89
        CFI (cfiCond146) R6 load(1, XDATA, add(CFA_XSP16, literal(-16)))
        CFI (cfiCond146) VB load(1, XDATA, add(CFA_XSP16, literal(-15)))
        CFI (cfiCond146) V0 load(1, XDATA, add(CFA_XSP16, literal(-14)))
        CFI (cfiCond146) V1 load(1, XDATA, add(CFA_XSP16, literal(-13)))
        CFI (cfiCond146) V2 load(1, XDATA, add(CFA_XSP16, literal(-12)))
        CFI (cfiCond146) V3 load(1, XDATA, add(CFA_XSP16, literal(-11)))
        CFI (cfiCond146) V4 load(1, XDATA, add(CFA_XSP16, literal(-10)))
        CFI (cfiCond146) V5 load(1, XDATA, add(CFA_XSP16, literal(-9)))
        CFI (cfiCond146) V6 load(1, XDATA, add(CFA_XSP16, literal(-8)))
        CFI (cfiCond146) V7 load(1, XDATA, add(CFA_XSP16, literal(-7)))
        CFI (cfiCond146) R7 load(1, XDATA, add(CFA_XSP16, literal(-6)))
        CFI (cfiCond146) ?RET_LOW load(1, XDATA, add(CFA_XSP16, literal(-5)))
        CFI (cfiCond146) ?RET_HIGH load(1, XDATA, add(CFA_XSP16, literal(-4)))
        CFI (cfiCond146) ?BRET_EXT load(1, XDATA, add(CFA_XSP16, literal(-3)))
        CFI (cfiCond146) DPL0 load(1, XDATA, add(CFA_XSP16, literal(-2)))
        CFI (cfiCond146) DPH0 load(1, XDATA, add(CFA_XSP16, literal(-1)))
        CFI (cfiCond146) CFA_SP SP+0
        CFI (cfiCond146) CFA_XSP16 add(XSP16, 157)
        CFI Block cfiPicker147 Using cfiCommon1
        CFI (cfiPicker147) NoFunction
        CFI (cfiPicker147) Picker
        SUBB    A,#0x0
        MOV     C,0xD0 /* PSW */.2
        XRL     A,PSW
        RLC     A
        RET
        CFI EndBlock cfiCond132
        CFI EndBlock cfiCond133
        CFI EndBlock cfiCond134
        CFI EndBlock cfiCond135
        CFI EndBlock cfiCond136
        CFI EndBlock cfiCond137
        CFI EndBlock cfiCond138
        CFI EndBlock cfiCond139
        CFI EndBlock cfiCond140
        CFI EndBlock cfiCond141
        CFI EndBlock cfiCond142
        CFI EndBlock cfiCond143
        CFI EndBlock cfiCond144
        CFI EndBlock cfiCond145
        CFI EndBlock cfiCond146
        CFI EndBlock cfiPicker147
//  741 

        RSEG BANKED_CODE:CODE:NOROOT(0)
//  742 void SHCoordSendSmokeAlarmMsg(afIncomingMSGPacket_t *pkt)
SHCoordSendSmokeAlarmMsg:
        CFI Block cfiBlock148 Using cfiCommon0
        CFI Function SHCoordSendSmokeAlarmMsg
        CODE
//  743 {
        FUNCALL SHCoordSendSmokeAlarmMsg, SHCoordSendUartMsg
        LOCFRAME ISTACK, 2, STACK
        LOCFRAME PSTACK, 0, STACK
        LOCFRAME XSTACK, 50, STACK
        LOCFRAME IOVERLAY, 0, STATIC
        LOCFRAME DOVERLAY, 0, STATIC
        ARGFRAME ISTACK, 2, STACK
        ARGFRAME PSTACK, 0, STACK
        ARGFRAME XSTACK, 50, STACK
        ARGFRAME IOVERLAY, 0, STATIC
        ARGFRAME DOVERLAY, 0, STATIC
        PUSH    DPL
        CFI DPL0 Frame(CFA_SP, 4)
        CFI CFA_SP SP+-4
        PUSH    DPH
        CFI DPH0 Frame(CFA_SP, 5)
        CFI CFA_SP SP+-5
        ; Saved register size: 2
        ; Auto size: 25
        MOV     A,#-0x19
        LCALL   ?ALLOC_XSTACK8
        CFI CFA_XSP16 add(XSP16, 25)
//  744 	  uartSendMsg msg;
//  745 	  
//  746 	  msg.header = 0xff;
        LCALL   ?Subroutine12 & 0xFFFF
//  747 	  msg.shortAddr = pkt->srcAddr.addr.shortAddr;
??CrossCallReturnLabel_16:
        LCALL   ?XSTACK_DISP0_8
        LCALL   ?Subroutine5 & 0xFFFF
//  748 	  for(int i=0;i<8;i++)
//  749 	 {
//  750 		msg.extAddr[i] =  pkt->cmd.Data[7-i];
??CrossCallReturnLabel_7:
        LCALL   ?Subroutine20 & 0xFFFF
//  751 	 }
??CrossCallReturnLabel_32:
        PUSH    A
        CFI CFA_SP SP+-6
        LCALL   ?Subroutine22 & 0xFFFF
??CrossCallReturnLabel_40:
        POP     A
        CFI CFA_SP SP+-5
        LCALL   ?Subroutine4 & 0xFFFF
??CrossCallReturnLabel_3:
        JC      ??CrossCallReturnLabel_7
//  752 	
//  753 	  msg.body.msgType = SMARTHOME_SMOKEALARM;
        MOV     A,#0xb
        LCALL   ?XSTACK_DISP0_8
        MOV     A,#0x4
        MOVX    @DPTR,A
//  754 	  msg.body.len = 0;
        MOV     A,#0xc
        LCALL   ?XSTACK_DISP0_8
        CLR     A
        MOVX    @DPTR,A
//  755 	
//  756 	  for(int i=0;i<msg.body.len;i++)
        MOV     R2,A
        SJMP    ??CrossCallReturnLabel_86
//  757 	  {
//  758 		  msg.body.data[i] = pkt->cmd.Data[8+i];
??SHCoordSendSmokeAlarmMsg_0:
        LCALL   ?Subroutine21 & 0xFFFF
//  759 	  }
??CrossCallReturnLabel_36:
        PUSH    A
        CFI CFA_SP SP+-6
        LCALL   ?Subroutine11 & 0xFFFF
??CrossCallReturnLabel_82:
        POP     A
        CFI CFA_SP SP+-5
        LCALL   ?Subroutine7 & 0xFFFF
??CrossCallReturnLabel_86:
        MOV     R3,A
        MOV     A,#0xc
        LCALL   ?XSTACK_DISP0_8
        LCALL   ?Subroutine17 & 0xFFFF
??CrossCallReturnLabel_26:
        JC      ??SHCoordSendSmokeAlarmMsg_0
//  760 	  msg.tailer = 0x11;
        LJMP    ?Subroutine0 & 0xFFFF
        CFI EndBlock cfiBlock148
//  761 	  
//  762 	SHCoordSendUartMsg(msg); 
//  763 }
//  764 

        RSEG BANKED_CODE:CODE:NOROOT(0)
//  765 void SHCoordSendUartMsg(uartSendMsg msg)
SHCoordSendUartMsg:
        CFI Block cfiBlock149 Using cfiCommon0
        CFI Function SHCoordSendUartMsg
        CODE
//  766 {
        FUNCALL SHCoordSendUartMsg, HalUARTWrite
        LOCFRAME ISTACK, 2, STACK
        LOCFRAME PSTACK, 0, STACK
        LOCFRAME XSTACK, 50, STACK
        LOCFRAME IOVERLAY, 0, STATIC
        LOCFRAME DOVERLAY, 0, STATIC
        ARGFRAME ISTACK, 2, STACK
        ARGFRAME PSTACK, 0, STACK
        ARGFRAME XSTACK, 50, STACK
        ARGFRAME IOVERLAY, 0, STATIC
        ARGFRAME DOVERLAY, 0, STATIC
        PUSH    DPL
        CFI DPL0 Frame(CFA_SP, 4)
        CFI CFA_SP SP+-4
        PUSH    DPH
        CFI DPH0 Frame(CFA_SP, 5)
        CFI CFA_SP SP+-5
        ; Saved register size: 2
        ; Auto size: 50
        MOV     A,#-0x32
        LCALL   ?ALLOC_XSTACK8
        CFI CFA_XSP16 add(XSP16, 50)
//  767 	uint8 data[50]={0};
        MOV     DPL,?XSP + 0
        MOV     DPH,?XSP + 1
        MOV     R4,DPL
        MOV     R5,DPH
        MOV     DPH,#(`?<Constant {0}>` >> 8) & 0xff
        MOV     DPL,#`?<Constant {0}>` & 0xff
        MOV     A,#0x32
        LCALL   ?MOVE_LONG8_XDATA_XDATA
//  768      data[0] = msg.header;
        MOV     A,#0x32
        LCALL   ?XSTACK_DISP0_8
        MOVX    A,@DPTR
        MOV     DPL,?XSP + 0
        MOV     DPH,?XSP + 1
        MOVX    @DPTR,A
//  769      data[1] = msg.shortAddr>>8;
        MOV     A,#0x33
        LCALL   ?XSTACK_DISP0_8
        MOVX    A,@DPTR
        MOV     R2,A
        INC     DPTR
        MOVX    A,@DPTR
        PUSH    A
        CFI CFA_SP SP+-6
        MOV     A,#0x1
        LCALL   ?XSTACK_DISP0_8
        POP     A
        CFI CFA_SP SP+-5
        MOVX    @DPTR,A
//  770      data[2] = msg.shortAddr;
        MOV     A,#0x2
        LCALL   ?XSTACK_DISP0_8
        MOV     A,R2
        MOVX    @DPTR,A
//  771       for(int i=0;i<8;i++)
        MOV     R0,#0x0
        MOV     R1,#0x0
//  772      {
//  773     	data[3+i] =  msg.extAddr[i];
??SHCoordSendUartMsg_0:
        MOV     A,#0x32
        LCALL   ?XSTACK_DISP0_8
        LCALL   ?Subroutine26 & 0xFFFF
//  774      }
??CrossCallReturnLabel_43:
        MOVX    A,@DPTR
        PUSH    A
        CFI CFA_SP SP+-6
        MOV     DPL,?XSP + 0
        MOV     DPH,?XSP + 1
        LCALL   ?Subroutine26 & 0xFFFF
??CrossCallReturnLabel_44:
        POP     A
        CFI CFA_SP SP+-5
        LCALL   ?Subroutine6 & 0xFFFF
??CrossCallReturnLabel_8:
        SUBB    A,#0x8
        LCALL   ?Subroutine25 & 0xFFFF
??CrossCallReturnLabel_90:
        JC      ??SHCoordSendUartMsg_0
//  775      data[11] = msg.body.msgType;
        MOV     A,#0x3d
        LCALL   ?XSTACK_DISP0_8
        MOVX    A,@DPTR
        PUSH    A
        CFI CFA_SP SP+-6
        MOV     A,#0xb
        LCALL   ?XSTACK_DISP0_8
        POP     A
        CFI CFA_SP SP+-5
        MOVX    @DPTR,A
//  776      data[12] = msg.body.len;
        MOV     A,#0x3e
        LCALL   ?XSTACK_DISP0_8
        MOVX    A,@DPTR
        MOV     R2,A
        MOV     A,#0xc
        LCALL   ?XSTACK_DISP0_8
        MOV     A,R2
        MOVX    @DPTR,A
//  777 	for(int i=0;i<msg.body.len;i++)
        MOV     R0,#0x0
        MOV     R1,#0x0
        SJMP    ??CrossCallReturnLabel_98
//  778 	 {
//  779 	  	data[13 + i] = msg.body.data[i];
??SHCoordSendUartMsg_1:
        MOV     A,#0x32
        LCALL   ?XSTACK_DISP0_8
        MOV     A,DPL
        ADD     A,R0
        MOV     R4,A
        MOV     A,DPH
        ADDC    A,R1
        MOV     R5,A
        MOV     A,R4
        ADD     A,#0xd
        MOV     DPL,A
        MOV     A,R5
        LCALL   ??Subroutine49_0 & 0xFFFF
//  780 	 }
??CrossCallReturnLabel_105:
        PUSH    A
        CFI CFA_SP SP+-6
        MOV     DPL,?XSP + 0
        MOV     DPH,?XSP + 1
        MOV     A,DPL
        ADD     A,R0
        MOV     R4,A
        MOV     A,DPH
        ADDC    A,R1
        LCALL   ??Subroutine41_0 & 0xFFFF
??CrossCallReturnLabel_78:
        POP     A
        CFI CFA_SP SP+-5
        LCALL   ?Subroutine8 & 0xFFFF
??CrossCallReturnLabel_98:
        CLR     C
        MOV     A,R0
        SUBB    A,R2
        LCALL   ?Subroutine25 & 0xFFFF
??CrossCallReturnLabel_91:
        JC      ??SHCoordSendUartMsg_1
//  781      data[13+msg.body.len] = msg.tailer;
        MOV     A,#0x49
        LCALL   ?XSTACK_DISP0_8
        MOVX    A,@DPTR
        PUSH    A
        CFI CFA_SP SP+-6
        MOV     DPL,?XSP + 0
        MOV     DPH,?XSP + 1
        MOV     A,DPL
        ADD     A,R2
        MOV     R0,A
        MOV     A,DPH
        ADDC    A,#0x0
        MOV     R1,A
        MOV     A,R0
        ADD     A,#0xd
        MOV     DPL,A
        MOV     A,R1
        LCALL   ??Subroutine42_0 & 0xFFFF
??CrossCallReturnLabel_77:
        POP     A
        CFI CFA_SP SP+-5
        MOVX    @DPTR,A
//  782 
//  783      HalUARTWrite(0,data,14+msg.body.len);
        ; Setup parameters for call to function HalUARTWrite
        MOV     A,R2
        ADD     A,#0xe
        MOV     R4,A
        CLR     A
        ADDC    A,#0x0
        MOV     R5,A
        MOV     DPL,?XSP + 0
        MOV     DPH,?XSP + 1
        MOV     R2,DPL
        MOV     R3,DPH
        MOV     R1,#0x0
        LCALL   ??HalUARTWrite?relay
//  784 }
        MOV     A,#0x32
        LJMP    ??Subroutine44_0 & 0xFFFF
        CFI EndBlock cfiBlock149

        RSEG BANKED_CODE:CODE:NOROOT(0)
?Subroutine26:
        CFI Block cfiCond150 Using cfiCommon0
        CFI NoFunction
        CFI Conditional ??CrossCallReturnLabel_43
        CFI DPL0 Frame(CFA_SP, 4)
        CFI DPH0 Frame(CFA_SP, 5)
        CFI CFA_SP SP+-5
        CFI CFA_XSP16 add(XSP16, 50)
        CFI Block cfiCond151 Using cfiCommon0
        CFI (cfiCond151) NoFunction
        CFI (cfiCond151) Conditional ??CrossCallReturnLabel_44
        CFI (cfiCond151) DPL0 Frame(CFA_SP, 4)
        CFI (cfiCond151) DPH0 Frame(CFA_SP, 5)
        CFI (cfiCond151) CFA_SP SP+-6
        CFI (cfiCond151) CFA_XSP16 add(XSP16, 50)
        CFI Block cfiPicker152 Using cfiCommon1
        CFI (cfiPicker152) NoFunction
        CFI (cfiPicker152) Picker
        LCALL   ?Subroutine35 & 0xFFFF
??CrossCallReturnLabel_64:
        INC     DPTR
        INC     DPTR
        INC     DPTR
        RET
        CFI EndBlock cfiCond150
        CFI EndBlock cfiCond151
        CFI EndBlock cfiPicker152

        RSEG BANKED_CODE:CODE:NOROOT(0)
?Subroutine25:
        CFI Block cfiCond153 Using cfiCommon0
        CFI NoFunction
        CFI Conditional ??CrossCallReturnLabel_90
        CFI DPL0 Frame(CFA_SP, 4)
        CFI DPH0 Frame(CFA_SP, 5)
        CFI CFA_SP SP+-5
        CFI CFA_XSP16 add(XSP16, 50)
        CFI Block cfiCond154 Using cfiCommon0
        CFI (cfiCond154) NoFunction
        CFI (cfiCond154) Conditional ??CrossCallReturnLabel_91
        CFI (cfiCond154) DPL0 Frame(CFA_SP, 4)
        CFI (cfiCond154) DPH0 Frame(CFA_SP, 5)
        CFI (cfiCond154) CFA_SP SP+-5
        CFI (cfiCond154) CFA_XSP16 add(XSP16, 50)
        CFI Block cfiCond155 Using cfiCommon0
        CFI (cfiCond155) NoFunction
        CFI (cfiCond155) Conditional ??CrossCallReturnLabel_92
        CFI (cfiCond155) R6 load(1, XDATA, add(CFA_XSP16, literal(-10)))
        CFI (cfiCond155) VB load(1, XDATA, add(CFA_XSP16, literal(-9)))
        CFI (cfiCond155) V0 load(1, XDATA, add(CFA_XSP16, literal(-8)))
        CFI (cfiCond155) V1 load(1, XDATA, add(CFA_XSP16, literal(-7)))
        CFI (cfiCond155) R7 load(1, XDATA, add(CFA_XSP16, literal(-6)))
        CFI (cfiCond155) ?RET_LOW load(1, XDATA, add(CFA_XSP16, literal(-5)))
        CFI (cfiCond155) ?RET_HIGH load(1, XDATA, add(CFA_XSP16, literal(-4)))
        CFI (cfiCond155) ?BRET_EXT load(1, XDATA, add(CFA_XSP16, literal(-3)))
        CFI (cfiCond155) DPL0 load(1, XDATA, add(CFA_XSP16, literal(-2)))
        CFI (cfiCond155) DPH0 load(1, XDATA, add(CFA_XSP16, literal(-1)))
        CFI (cfiCond155) CFA_SP SP+0
        CFI (cfiCond155) CFA_XSP16 add(XSP16, 31)
        CFI Block cfiCond156 Using cfiCommon0
        CFI (cfiCond156) NoFunction
        CFI (cfiCond156) Conditional ??CrossCallReturnLabel_93
        CFI (cfiCond156) R6 load(1, XDATA, add(CFA_XSP16, literal(-16)))
        CFI (cfiCond156) VB load(1, XDATA, add(CFA_XSP16, literal(-15)))
        CFI (cfiCond156) V0 load(1, XDATA, add(CFA_XSP16, literal(-14)))
        CFI (cfiCond156) V1 load(1, XDATA, add(CFA_XSP16, literal(-13)))
        CFI (cfiCond156) V2 load(1, XDATA, add(CFA_XSP16, literal(-12)))
        CFI (cfiCond156) V3 load(1, XDATA, add(CFA_XSP16, literal(-11)))
        CFI (cfiCond156) V4 load(1, XDATA, add(CFA_XSP16, literal(-10)))
        CFI (cfiCond156) V5 load(1, XDATA, add(CFA_XSP16, literal(-9)))
        CFI (cfiCond156) V6 load(1, XDATA, add(CFA_XSP16, literal(-8)))
        CFI (cfiCond156) V7 load(1, XDATA, add(CFA_XSP16, literal(-7)))
        CFI (cfiCond156) R7 load(1, XDATA, add(CFA_XSP16, literal(-6)))
        CFI (cfiCond156) ?RET_LOW load(1, XDATA, add(CFA_XSP16, literal(-5)))
        CFI (cfiCond156) ?RET_HIGH load(1, XDATA, add(CFA_XSP16, literal(-4)))
        CFI (cfiCond156) ?BRET_EXT load(1, XDATA, add(CFA_XSP16, literal(-3)))
        CFI (cfiCond156) DPL0 load(1, XDATA, add(CFA_XSP16, literal(-2)))
        CFI (cfiCond156) DPH0 load(1, XDATA, add(CFA_XSP16, literal(-1)))
        CFI (cfiCond156) CFA_SP SP+0
        CFI (cfiCond156) CFA_XSP16 add(XSP16, 157)
        CFI Block cfiCond157 Using cfiCommon0
        CFI (cfiCond157) NoFunction
        CFI (cfiCond157) Conditional ??CrossCallReturnLabel_94
        CFI (cfiCond157) R6 load(1, XDATA, add(CFA_XSP16, literal(-16)))
        CFI (cfiCond157) VB load(1, XDATA, add(CFA_XSP16, literal(-15)))
        CFI (cfiCond157) V0 load(1, XDATA, add(CFA_XSP16, literal(-14)))
        CFI (cfiCond157) V1 load(1, XDATA, add(CFA_XSP16, literal(-13)))
        CFI (cfiCond157) V2 load(1, XDATA, add(CFA_XSP16, literal(-12)))
        CFI (cfiCond157) V3 load(1, XDATA, add(CFA_XSP16, literal(-11)))
        CFI (cfiCond157) V4 load(1, XDATA, add(CFA_XSP16, literal(-10)))
        CFI (cfiCond157) V5 load(1, XDATA, add(CFA_XSP16, literal(-9)))
        CFI (cfiCond157) V6 load(1, XDATA, add(CFA_XSP16, literal(-8)))
        CFI (cfiCond157) V7 load(1, XDATA, add(CFA_XSP16, literal(-7)))
        CFI (cfiCond157) R7 load(1, XDATA, add(CFA_XSP16, literal(-6)))
        CFI (cfiCond157) ?RET_LOW load(1, XDATA, add(CFA_XSP16, literal(-5)))
        CFI (cfiCond157) ?RET_HIGH load(1, XDATA, add(CFA_XSP16, literal(-4)))
        CFI (cfiCond157) ?BRET_EXT load(1, XDATA, add(CFA_XSP16, literal(-3)))
        CFI (cfiCond157) DPL0 load(1, XDATA, add(CFA_XSP16, literal(-2)))
        CFI (cfiCond157) DPH0 load(1, XDATA, add(CFA_XSP16, literal(-1)))
        CFI (cfiCond157) CFA_SP SP+0
        CFI (cfiCond157) CFA_XSP16 add(XSP16, 157)
        CFI Block cfiPicker158 Using cfiCommon1
        CFI (cfiPicker158) NoFunction
        CFI (cfiPicker158) Picker
        MOV     A,R1
        CFI EndBlock cfiCond153
        CFI EndBlock cfiCond154
        CFI EndBlock cfiCond155
        CFI EndBlock cfiCond156
        CFI EndBlock cfiCond157
        CFI EndBlock cfiPicker158
        REQUIRE ??Subroutine45_0
        ; // Fall through to label ??Subroutine45_0

        RSEG BANKED_CODE:CODE:NOROOT(0)
??Subroutine45_0:
        CFI Block cfiCond159 Using cfiCommon0
        CFI NoFunction
        CFI Conditional ??CrossCallReturnLabel_88
        CFI R6 load(1, XDATA, add(CFA_XSP16, literal(-16)))
        CFI VB load(1, XDATA, add(CFA_XSP16, literal(-15)))
        CFI V0 load(1, XDATA, add(CFA_XSP16, literal(-14)))
        CFI V1 load(1, XDATA, add(CFA_XSP16, literal(-13)))
        CFI V2 load(1, XDATA, add(CFA_XSP16, literal(-12)))
        CFI V3 load(1, XDATA, add(CFA_XSP16, literal(-11)))
        CFI V4 load(1, XDATA, add(CFA_XSP16, literal(-10)))
        CFI V5 load(1, XDATA, add(CFA_XSP16, literal(-9)))
        CFI V6 load(1, XDATA, add(CFA_XSP16, literal(-8)))
        CFI V7 load(1, XDATA, add(CFA_XSP16, literal(-7)))
        CFI R7 load(1, XDATA, add(CFA_XSP16, literal(-6)))
        CFI ?RET_LOW load(1, XDATA, add(CFA_XSP16, literal(-5)))
        CFI ?RET_HIGH load(1, XDATA, add(CFA_XSP16, literal(-4)))
        CFI ?BRET_EXT load(1, XDATA, add(CFA_XSP16, literal(-3)))
        CFI DPL0 load(1, XDATA, add(CFA_XSP16, literal(-2)))
        CFI DPH0 load(1, XDATA, add(CFA_XSP16, literal(-1)))
        CFI CFA_SP SP+0
        CFI CFA_XSP16 add(XSP16, 157)
        CFI Block cfiCond160 Using cfiCommon0
        CFI (cfiCond160) NoFunction
        CFI (cfiCond160) Conditional ??CrossCallReturnLabel_89
        CFI (cfiCond160) R6 load(1, XDATA, add(CFA_XSP16, literal(-16)))
        CFI (cfiCond160) VB load(1, XDATA, add(CFA_XSP16, literal(-15)))
        CFI (cfiCond160) V0 load(1, XDATA, add(CFA_XSP16, literal(-14)))
        CFI (cfiCond160) V1 load(1, XDATA, add(CFA_XSP16, literal(-13)))
        CFI (cfiCond160) V2 load(1, XDATA, add(CFA_XSP16, literal(-12)))
        CFI (cfiCond160) V3 load(1, XDATA, add(CFA_XSP16, literal(-11)))
        CFI (cfiCond160) V4 load(1, XDATA, add(CFA_XSP16, literal(-10)))
        CFI (cfiCond160) V5 load(1, XDATA, add(CFA_XSP16, literal(-9)))
        CFI (cfiCond160) V6 load(1, XDATA, add(CFA_XSP16, literal(-8)))
        CFI (cfiCond160) V7 load(1, XDATA, add(CFA_XSP16, literal(-7)))
        CFI (cfiCond160) R7 load(1, XDATA, add(CFA_XSP16, literal(-6)))
        CFI (cfiCond160) ?RET_LOW load(1, XDATA, add(CFA_XSP16, literal(-5)))
        CFI (cfiCond160) ?RET_HIGH load(1, XDATA, add(CFA_XSP16, literal(-4)))
        CFI (cfiCond160) ?BRET_EXT load(1, XDATA, add(CFA_XSP16, literal(-3)))
        CFI (cfiCond160) DPL0 load(1, XDATA, add(CFA_XSP16, literal(-2)))
        CFI (cfiCond160) DPH0 load(1, XDATA, add(CFA_XSP16, literal(-1)))
        CFI (cfiCond160) CFA_SP SP+0
        CFI (cfiCond160) CFA_XSP16 add(XSP16, 157)
        CFI Block cfiCond161 Using cfiCommon0
        CFI (cfiCond161) NoFunction
        CFI (cfiCond161) Conditional ??CrossCallReturnLabel_90
        CFI (cfiCond161) DPL0 Frame(CFA_SP, 4)
        CFI (cfiCond161) DPH0 Frame(CFA_SP, 5)
        CFI (cfiCond161) CFA_SP SP+-5
        CFI (cfiCond161) CFA_XSP16 add(XSP16, 50)
        CFI Block cfiCond162 Using cfiCommon0
        CFI (cfiCond162) NoFunction
        CFI (cfiCond162) Conditional ??CrossCallReturnLabel_91
        CFI (cfiCond162) DPL0 Frame(CFA_SP, 4)
        CFI (cfiCond162) DPH0 Frame(CFA_SP, 5)
        CFI (cfiCond162) CFA_SP SP+-5
        CFI (cfiCond162) CFA_XSP16 add(XSP16, 50)
        CFI Block cfiCond163 Using cfiCommon0
        CFI (cfiCond163) NoFunction
        CFI (cfiCond163) Conditional ??CrossCallReturnLabel_92
        CFI (cfiCond163) R6 load(1, XDATA, add(CFA_XSP16, literal(-10)))
        CFI (cfiCond163) VB load(1, XDATA, add(CFA_XSP16, literal(-9)))
        CFI (cfiCond163) V0 load(1, XDATA, add(CFA_XSP16, literal(-8)))
        CFI (cfiCond163) V1 load(1, XDATA, add(CFA_XSP16, literal(-7)))
        CFI (cfiCond163) R7 load(1, XDATA, add(CFA_XSP16, literal(-6)))
        CFI (cfiCond163) ?RET_LOW load(1, XDATA, add(CFA_XSP16, literal(-5)))
        CFI (cfiCond163) ?RET_HIGH load(1, XDATA, add(CFA_XSP16, literal(-4)))
        CFI (cfiCond163) ?BRET_EXT load(1, XDATA, add(CFA_XSP16, literal(-3)))
        CFI (cfiCond163) DPL0 load(1, XDATA, add(CFA_XSP16, literal(-2)))
        CFI (cfiCond163) DPH0 load(1, XDATA, add(CFA_XSP16, literal(-1)))
        CFI (cfiCond163) CFA_SP SP+0
        CFI (cfiCond163) CFA_XSP16 add(XSP16, 31)
        CFI Block cfiCond164 Using cfiCommon0
        CFI (cfiCond164) NoFunction
        CFI (cfiCond164) Conditional ??CrossCallReturnLabel_93
        CFI (cfiCond164) R6 load(1, XDATA, add(CFA_XSP16, literal(-16)))
        CFI (cfiCond164) VB load(1, XDATA, add(CFA_XSP16, literal(-15)))
        CFI (cfiCond164) V0 load(1, XDATA, add(CFA_XSP16, literal(-14)))
        CFI (cfiCond164) V1 load(1, XDATA, add(CFA_XSP16, literal(-13)))
        CFI (cfiCond164) V2 load(1, XDATA, add(CFA_XSP16, literal(-12)))
        CFI (cfiCond164) V3 load(1, XDATA, add(CFA_XSP16, literal(-11)))
        CFI (cfiCond164) V4 load(1, XDATA, add(CFA_XSP16, literal(-10)))
        CFI (cfiCond164) V5 load(1, XDATA, add(CFA_XSP16, literal(-9)))
        CFI (cfiCond164) V6 load(1, XDATA, add(CFA_XSP16, literal(-8)))
        CFI (cfiCond164) V7 load(1, XDATA, add(CFA_XSP16, literal(-7)))
        CFI (cfiCond164) R7 load(1, XDATA, add(CFA_XSP16, literal(-6)))
        CFI (cfiCond164) ?RET_LOW load(1, XDATA, add(CFA_XSP16, literal(-5)))
        CFI (cfiCond164) ?RET_HIGH load(1, XDATA, add(CFA_XSP16, literal(-4)))
        CFI (cfiCond164) ?BRET_EXT load(1, XDATA, add(CFA_XSP16, literal(-3)))
        CFI (cfiCond164) DPL0 load(1, XDATA, add(CFA_XSP16, literal(-2)))
        CFI (cfiCond164) DPH0 load(1, XDATA, add(CFA_XSP16, literal(-1)))
        CFI (cfiCond164) CFA_SP SP+0
        CFI (cfiCond164) CFA_XSP16 add(XSP16, 157)
        CFI Block cfiCond165 Using cfiCommon0
        CFI (cfiCond165) NoFunction
        CFI (cfiCond165) Conditional ??CrossCallReturnLabel_94
        CFI (cfiCond165) R6 load(1, XDATA, add(CFA_XSP16, literal(-16)))
        CFI (cfiCond165) VB load(1, XDATA, add(CFA_XSP16, literal(-15)))
        CFI (cfiCond165) V0 load(1, XDATA, add(CFA_XSP16, literal(-14)))
        CFI (cfiCond165) V1 load(1, XDATA, add(CFA_XSP16, literal(-13)))
        CFI (cfiCond165) V2 load(1, XDATA, add(CFA_XSP16, literal(-12)))
        CFI (cfiCond165) V3 load(1, XDATA, add(CFA_XSP16, literal(-11)))
        CFI (cfiCond165) V4 load(1, XDATA, add(CFA_XSP16, literal(-10)))
        CFI (cfiCond165) V5 load(1, XDATA, add(CFA_XSP16, literal(-9)))
        CFI (cfiCond165) V6 load(1, XDATA, add(CFA_XSP16, literal(-8)))
        CFI (cfiCond165) V7 load(1, XDATA, add(CFA_XSP16, literal(-7)))
        CFI (cfiCond165) R7 load(1, XDATA, add(CFA_XSP16, literal(-6)))
        CFI (cfiCond165) ?RET_LOW load(1, XDATA, add(CFA_XSP16, literal(-5)))
        CFI (cfiCond165) ?RET_HIGH load(1, XDATA, add(CFA_XSP16, literal(-4)))
        CFI (cfiCond165) ?BRET_EXT load(1, XDATA, add(CFA_XSP16, literal(-3)))
        CFI (cfiCond165) DPL0 load(1, XDATA, add(CFA_XSP16, literal(-2)))
        CFI (cfiCond165) DPH0 load(1, XDATA, add(CFA_XSP16, literal(-1)))
        CFI (cfiCond165) CFA_SP SP+0
        CFI (cfiCond165) CFA_XSP16 add(XSP16, 157)
        CFI Block cfiPicker166 Using cfiCommon1
        CFI (cfiPicker166) NoFunction
        CFI (cfiPicker166) Picker
        LCALL   ?Subroutine33 & 0xFFFF
??CrossCallReturnLabel_97:
        RET
        CFI EndBlock cfiCond159
        CFI EndBlock cfiCond160
        CFI EndBlock cfiCond161
        CFI EndBlock cfiCond162
        CFI EndBlock cfiCond163
        CFI EndBlock cfiCond164
        CFI EndBlock cfiCond165
        CFI EndBlock cfiPicker166

        RSEG BANKED_CODE:CODE:NOROOT(0)
?Subroutine8:
        CFI Block cfiCond167 Using cfiCommon0
        CFI NoFunction
        CFI Conditional ??CrossCallReturnLabel_98
        CFI DPL0 Frame(CFA_SP, 4)
        CFI DPH0 Frame(CFA_SP, 5)
        CFI CFA_SP SP+-5
        CFI CFA_XSP16 add(XSP16, 50)
        CFI Block cfiCond168 Using cfiCommon0
        CFI (cfiCond168) NoFunction
        CFI (cfiCond168) Conditional ??CrossCallReturnLabel_99
        CFI (cfiCond168) R6 load(1, XDATA, add(CFA_XSP16, literal(-10)))
        CFI (cfiCond168) VB load(1, XDATA, add(CFA_XSP16, literal(-9)))
        CFI (cfiCond168) V0 load(1, XDATA, add(CFA_XSP16, literal(-8)))
        CFI (cfiCond168) V1 load(1, XDATA, add(CFA_XSP16, literal(-7)))
        CFI (cfiCond168) R7 load(1, XDATA, add(CFA_XSP16, literal(-6)))
        CFI (cfiCond168) ?RET_LOW load(1, XDATA, add(CFA_XSP16, literal(-5)))
        CFI (cfiCond168) ?RET_HIGH load(1, XDATA, add(CFA_XSP16, literal(-4)))
        CFI (cfiCond168) ?BRET_EXT load(1, XDATA, add(CFA_XSP16, literal(-3)))
        CFI (cfiCond168) DPL0 load(1, XDATA, add(CFA_XSP16, literal(-2)))
        CFI (cfiCond168) DPH0 load(1, XDATA, add(CFA_XSP16, literal(-1)))
        CFI (cfiCond168) CFA_SP SP+0
        CFI (cfiCond168) CFA_XSP16 add(XSP16, 31)
        CFI Block cfiPicker169 Using cfiCommon1
        CFI (cfiPicker169) NoFunction
        CFI (cfiPicker169) Picker
        MOVX    @DPTR,A
        CFI EndBlock cfiCond167
        CFI EndBlock cfiCond168
        CFI EndBlock cfiPicker169
        REQUIRE ??Subroutine46_0
        ; // Fall through to label ??Subroutine46_0

        RSEG BANKED_CODE:CODE:NOROOT(0)
??Subroutine46_0:
        CFI Block cfiCond170 Using cfiCommon0
        CFI NoFunction
        CFI Conditional ??CrossCallReturnLabel_100
        CFI Block cfiCond171 Using cfiCommon0
        CFI (cfiCond171) NoFunction
        CFI (cfiCond171) Conditional ??CrossCallReturnLabel_98
        CFI (cfiCond171) DPL0 Frame(CFA_SP, 4)
        CFI (cfiCond171) DPH0 Frame(CFA_SP, 5)
        CFI (cfiCond171) CFA_SP SP+-5
        CFI (cfiCond171) CFA_XSP16 add(XSP16, 50)
        CFI Block cfiCond172 Using cfiCommon0
        CFI (cfiCond172) NoFunction
        CFI (cfiCond172) Conditional ??CrossCallReturnLabel_99
        CFI (cfiCond172) R6 load(1, XDATA, add(CFA_XSP16, literal(-10)))
        CFI (cfiCond172) VB load(1, XDATA, add(CFA_XSP16, literal(-9)))
        CFI (cfiCond172) V0 load(1, XDATA, add(CFA_XSP16, literal(-8)))
        CFI (cfiCond172) V1 load(1, XDATA, add(CFA_XSP16, literal(-7)))
        CFI (cfiCond172) R7 load(1, XDATA, add(CFA_XSP16, literal(-6)))
        CFI (cfiCond172) ?RET_LOW load(1, XDATA, add(CFA_XSP16, literal(-5)))
        CFI (cfiCond172) ?RET_HIGH load(1, XDATA, add(CFA_XSP16, literal(-4)))
        CFI (cfiCond172) ?BRET_EXT load(1, XDATA, add(CFA_XSP16, literal(-3)))
        CFI (cfiCond172) DPL0 load(1, XDATA, add(CFA_XSP16, literal(-2)))
        CFI (cfiCond172) DPH0 load(1, XDATA, add(CFA_XSP16, literal(-1)))
        CFI (cfiCond172) CFA_SP SP+0
        CFI (cfiCond172) CFA_XSP16 add(XSP16, 31)
        CFI Block cfiPicker173 Using cfiCommon1
        CFI (cfiPicker173) NoFunction
        CFI (cfiPicker173) Picker
        MOV     A,R0
        ADD     A,#0x1
        INC     R0
        MOV     A,R1
        ADDC    A,#0x0
        MOV     R1,A
        RET
        CFI EndBlock cfiCond170
        CFI EndBlock cfiCond171
        CFI EndBlock cfiCond172
        CFI EndBlock cfiPicker173
//  785 

        RSEG BANKED_CODE:CODE:NOROOT(0)
//  786 void SHCoordReveiceUartMsg(uint8 *receiveMsg,uint16 len)
SHCoordReveiceUartMsg:
        CFI Block cfiBlock174 Using cfiCommon0
        CFI Function SHCoordReveiceUartMsg
        CODE
//  787 {
        FUNCALL SHCoordReveiceUartMsg, AF_DataRequest
        LOCFRAME ISTACK, 0, STACK
        LOCFRAME PSTACK, 0, STACK
        LOCFRAME XSTACK, 40, STACK
        LOCFRAME IOVERLAY, 0, STATIC
        LOCFRAME DOVERLAY, 0, STATIC
        ARGFRAME ISTACK, 0, STACK
        ARGFRAME PSTACK, 0, STACK
        ARGFRAME XSTACK, 40, STACK
        ARGFRAME IOVERLAY, 0, STATIC
        ARGFRAME DOVERLAY, 0, STATIC
        MOV     A,#-0xa
        LCALL   ?BANKED_ENTER_XDATA
        CFI DPH0 load(1, XDATA, add(CFA_XSP16, literal(-1)))
        CFI DPL0 load(1, XDATA, add(CFA_XSP16, literal(-2)))
        CFI ?BRET_EXT load(1, XDATA, add(CFA_XSP16, literal(-3)))
        CFI ?RET_HIGH load(1, XDATA, add(CFA_XSP16, literal(-4)))
        CFI ?RET_LOW load(1, XDATA, add(CFA_XSP16, literal(-5)))
        CFI R7 load(1, XDATA, add(CFA_XSP16, literal(-6)))
        CFI V1 load(1, XDATA, add(CFA_XSP16, literal(-7)))
        CFI V0 load(1, XDATA, add(CFA_XSP16, literal(-8)))
        CFI VB load(1, XDATA, add(CFA_XSP16, literal(-9)))
        CFI R6 load(1, XDATA, add(CFA_XSP16, literal(-10)))
        CFI CFA_SP SP+0
        CFI CFA_XSP16 add(XSP16, 10)
        ; Saved register size: 10
        ; Auto size: 21
        MOV     A,#-0x15
        LCALL   ?ALLOC_XSTACK8
        CFI CFA_XSP16 add(XSP16, 31)
//  788 	uartReceiveMsg msgData;
//  789 	
//  790 	msgData.header = receiveMsg[0];
        MOV     DPL,R2
        MOV     DPH,R3
        MOVX    A,@DPTR
        PUSH    A
        CFI CFA_SP SP+-1
        MOV     A,#0x4
        LCALL   ?XSTACK_DISP0_8
        POP     A
        CFI CFA_SP SP+0
        MOVX    @DPTR,A
//  791 	msgData.tailer= receiveMsg[len-1];
        MOV     A,R2
        ADD     A,R4
        MOV     R0,A
        MOV     A,R3
        ADDC    A,R5
        MOV     R1,A
        MOV     A,R0
        ADD     A,#-0x1
        MOV     DPL,A
        MOV     A,R1
        ADDC    A,#-0x1
        MOV     DPH,A
        MOVX    A,@DPTR
        MOV     R0,A
        MOV     A,#0x13
        LCALL   ?XSTACK_DISP0_8
        MOV     A,R0
        LCALL   ?Subroutine15 & 0xFFFF
//  792 	uint16 shortAdr[2]; 
//  793 	shortAdr[0] = receiveMsg[1];
??CrossCallReturnLabel_19:
        MOVX    A,@DPTR
        MOV     DPL,?XSP + 0
        MOV     DPH,?XSP + 1
        LCALL   ?Subroutine15 & 0xFFFF
//  794 	shortAdr[1] = receiveMsg[2];
??CrossCallReturnLabel_20:
        INC     DPTR
        MOVX    A,@DPTR
        MOV     R4,A
        MOV     A,#0x2
        LCALL   ?XSTACK_DISP0_8
        MOV     A,R4
        LCALL   ?Subroutine13 & 0xFFFF
//  795 	msgData.shortAddr= (shortAdr[0] << 8) | shortAdr[1];
??CrossCallReturnLabel_18:
        MOVX    A,@DPTR
        MOV     R1,A
        MOV     A,R4
        MOV     R0,A
        MOV     A,#0x5
        LCALL   ?XSTACK_DISP0_8
        MOV     A,R0
        MOVX    @DPTR,A
        INC     DPTR
        MOV     A,R1
        LCALL   ?Subroutine16 & 0xFFFF
//  796 	msgData.body.msgType = receiveMsg[3];
??CrossCallReturnLabel_21:
        MOVX    A,@DPTR
        PUSH    A
        CFI CFA_SP SP+-1
        MOV     A,#0x7
        LCALL   ?XSTACK_DISP0_8
        POP     A
        CFI CFA_SP SP+0
        LCALL   ?Subroutine16 & 0xFFFF
//  797 	msgData.body.len = receiveMsg[4];
??CrossCallReturnLabel_22:
        INC     DPTR
        MOVX    A,@DPTR
        PUSH    A
        CFI CFA_SP SP+-1
        MOV     A,#0x8
        LCALL   ?XSTACK_DISP0_8
        POP     A
        CFI CFA_SP SP+0
        MOVX    @DPTR,A
//  798 	for(int i = 0;i<msgData.body.len;i++)
        MOV     R0,#0x0
        MOV     R1,#0x0
        SJMP    ??CrossCallReturnLabel_99
//  799 	{
//  800 		msgData.body.data[i] = receiveMsg[5+i];
??SHCoordReveiceUartMsg_0:
        MOV     A,R2
        ADD     A,R0
        MOV     DPL,A
        MOV     A,R3
        LCALL   ?Subroutine24 & 0xFFFF
//  801 	}
??CrossCallReturnLabel_41:
        MOVX    A,@DPTR
        PUSH    A
        CFI CFA_SP SP+-1
        MOV     A,#0x4
        LCALL   ?XSTACK_DISP0_8
        MOV     A,DPL
        ADD     A,R0
        MOV     DPL,A
        MOV     A,DPH
        LCALL   ?Subroutine24 & 0xFFFF
??CrossCallReturnLabel_42:
        POP     A
        CFI CFA_SP SP+0
        LCALL   ?Subroutine8 & 0xFFFF
??CrossCallReturnLabel_99:
        MOV     A,#0x8
        LCALL   ?XSTACK_DISP0_8
        MOVX    A,@DPTR
        MOV     R4,A
        MOV     ?V0 + 0,R4
        CLR     C
        MOV     A,R0
        SUBB    A,?V0 + 0
        LCALL   ?Subroutine25 & 0xFFFF
??CrossCallReturnLabel_92:
        JC      ??SHCoordReveiceUartMsg_0
//  802 
//  803 	if(msgData.body.msgType == SMARTHOME_AIRCONDITIONMSG)
        MOV     A,#0x7
        LCALL   ?XSTACK_DISP0_8
        MOVX    A,@DPTR
        XRL     A,#0x2
        JNZ     ??SHCoordReveiceUartMsg_1
//  804 	{
//  805 	  	SmartHomeApp_AirContidion_DstAddr.addrMode = (afAddrMode_t)Addr16Bit;//广播
        MOV     DPTR,#SmartHomeApp_AirContidion_DstAddr + 8
        LCALL   ?Subroutine14 & 0xFFFF
//  806 	  	SmartHomeApp_AirContidion_DstAddr.endPoint = SMARTHOMEAPP_ENDPOINT;
//  807 	 	SmartHomeApp_AirContidion_DstAddr.addr.shortAddr = msgData.shortAddr;
??CrossCallReturnLabel_102:
        MOV     A,#0x5
        LCALL   ?XSTACK_DISP0_8
        LCALL   ?Subroutine31 & 0xFFFF
??CrossCallReturnLabel_56:
        MOV     DPTR,#SmartHomeApp_AirContidion_DstAddr
        MOV     A,R0
        MOVX    @DPTR,A
        INC     DPTR
        MOV     A,R1
        MOVX    @DPTR,A
//  808 
//  809 	    if ( AF_DataRequest( &SmartHomeApp_AirContidion_DstAddr, &SmartHomeApp_epDesc,
//  810 	                       SMARTHOME_AIRCONDITIONMSG,
//  811 	                       msgData.body.len ,
//  812 	                       msgData.body.data,
//  813 	                       &SmartHomeApp_TransID,
//  814 	                       AF_DISCV_ROUTE,
//  815 	                       AF_DEFAULT_RADIUS ) == afStatus_SUCCESS )
        ; Setup parameters for call to function AF_DataRequest
        MOV     ?V0 + 0,#0x1e
        MOV     R0,#?V0 + 0
        LCALL   ?PUSH_XSTACK_I_ONE
        CFI CFA_XSP16 add(XSP16, 32)
        MOV     ?V0 + 0,#SmartHomeApp_TransID & 0xff
        MOV     ?V0 + 1,#(SmartHomeApp_TransID >> 8) & 0xff
        MOV     R0,#?V0 + 0
        LCALL   ?PUSH_XSTACK_I_TWO
        CFI CFA_XSP16 add(XSP16, 34)
        MOV     A,#0xc
        LCALL   ?XSTACK_DISP0_8
        MOV     ?V0 + 0,DPL
        MOV     ?V0 + 1,DPH
        MOV     R0,#?V0 + 0
        LCALL   ?PUSH_XSTACK_I_TWO
        CFI CFA_XSP16 add(XSP16, 36)
        MOV     ?V0 + 0,R4
        MOV     ?V0 + 1,#0x0
        MOV     R0,#?V0 + 0
        LCALL   ?PUSH_XSTACK_I_TWO
        CFI CFA_XSP16 add(XSP16, 38)
        MOV     ?V0 + 0,#0x2
        MOV     R0,#?V0 + 0
        LCALL   ?PUSH_XSTACK_I_TWO
        CFI CFA_XSP16 add(XSP16, 40)
        MOV     R1,#0x20
        MOV     R4,#SmartHomeApp_epDesc & 0xff
        MOV     R5,#(SmartHomeApp_epDesc >> 8) & 0xff
        MOV     R2,#SmartHomeApp_AirContidion_DstAddr & 0xff
        MOV     R3,#(SmartHomeApp_AirContidion_DstAddr >> 8) & 0xff
        LCALL   ??Subroutine37_0 & 0xFFFF
//  816 	  {
//  817 	  }
//  818 	  else
//  819 	  {
//  820 	    // Error occurred in request to send.
//  821 	  }
//  822 	}
??CrossCallReturnLabel_70:
        LCALL   ?DEALLOC_XSTACK8
        CFI CFA_XSP16 add(XSP16, 31)
//  823 }
??SHCoordReveiceUartMsg_1:
        MOV     A,#0x15
        LJMP    ?Subroutine3 & 0xFFFF
        CFI EndBlock cfiBlock174

        RSEG BANKED_CODE:CODE:NOROOT(0)
?Subroutine24:
        CFI Block cfiCond175 Using cfiCommon0
        CFI NoFunction
        CFI Conditional ??CrossCallReturnLabel_41
        CFI R6 load(1, XDATA, add(CFA_XSP16, literal(-10)))
        CFI VB load(1, XDATA, add(CFA_XSP16, literal(-9)))
        CFI V0 load(1, XDATA, add(CFA_XSP16, literal(-8)))
        CFI V1 load(1, XDATA, add(CFA_XSP16, literal(-7)))
        CFI R7 load(1, XDATA, add(CFA_XSP16, literal(-6)))
        CFI ?RET_LOW load(1, XDATA, add(CFA_XSP16, literal(-5)))
        CFI ?RET_HIGH load(1, XDATA, add(CFA_XSP16, literal(-4)))
        CFI ?BRET_EXT load(1, XDATA, add(CFA_XSP16, literal(-3)))
        CFI DPL0 load(1, XDATA, add(CFA_XSP16, literal(-2)))
        CFI DPH0 load(1, XDATA, add(CFA_XSP16, literal(-1)))
        CFI CFA_SP SP+0
        CFI CFA_XSP16 add(XSP16, 31)
        CFI Block cfiCond176 Using cfiCommon0
        CFI (cfiCond176) NoFunction
        CFI (cfiCond176) Conditional ??CrossCallReturnLabel_42
        CFI (cfiCond176) R6 load(1, XDATA, add(CFA_XSP16, literal(-10)))
        CFI (cfiCond176) VB load(1, XDATA, add(CFA_XSP16, literal(-9)))
        CFI (cfiCond176) V0 load(1, XDATA, add(CFA_XSP16, literal(-8)))
        CFI (cfiCond176) V1 load(1, XDATA, add(CFA_XSP16, literal(-7)))
        CFI (cfiCond176) R7 load(1, XDATA, add(CFA_XSP16, literal(-6)))
        CFI (cfiCond176) ?RET_LOW load(1, XDATA, add(CFA_XSP16, literal(-5)))
        CFI (cfiCond176) ?RET_HIGH load(1, XDATA, add(CFA_XSP16, literal(-4)))
        CFI (cfiCond176) ?BRET_EXT load(1, XDATA, add(CFA_XSP16, literal(-3)))
        CFI (cfiCond176) DPL0 load(1, XDATA, add(CFA_XSP16, literal(-2)))
        CFI (cfiCond176) DPH0 load(1, XDATA, add(CFA_XSP16, literal(-1)))
        CFI (cfiCond176) CFA_SP SP+-1
        CFI (cfiCond176) CFA_XSP16 add(XSP16, 31)
        CFI Block cfiPicker177 Using cfiCommon1
        CFI (cfiPicker177) NoFunction
        CFI (cfiPicker177) Picker
        ADDC    A,R1
        MOV     DPH,A
        INC     DPTR
        INC     DPTR
        INC     DPTR
        INC     DPTR
        INC     DPTR
        RET
        CFI EndBlock cfiCond175
        CFI EndBlock cfiCond176
        CFI EndBlock cfiPicker177

        RSEG BANKED_CODE:CODE:NOROOT(0)
?Subroutine16:
        CFI Block cfiCond178 Using cfiCommon0
        CFI NoFunction
        CFI Conditional ??CrossCallReturnLabel_21
        CFI R6 load(1, XDATA, add(CFA_XSP16, literal(-10)))
        CFI VB load(1, XDATA, add(CFA_XSP16, literal(-9)))
        CFI V0 load(1, XDATA, add(CFA_XSP16, literal(-8)))
        CFI V1 load(1, XDATA, add(CFA_XSP16, literal(-7)))
        CFI R7 load(1, XDATA, add(CFA_XSP16, literal(-6)))
        CFI ?RET_LOW load(1, XDATA, add(CFA_XSP16, literal(-5)))
        CFI ?RET_HIGH load(1, XDATA, add(CFA_XSP16, literal(-4)))
        CFI ?BRET_EXT load(1, XDATA, add(CFA_XSP16, literal(-3)))
        CFI DPL0 load(1, XDATA, add(CFA_XSP16, literal(-2)))
        CFI DPH0 load(1, XDATA, add(CFA_XSP16, literal(-1)))
        CFI CFA_SP SP+0
        CFI CFA_XSP16 add(XSP16, 31)
        CFI Block cfiCond179 Using cfiCommon0
        CFI (cfiCond179) NoFunction
        CFI (cfiCond179) Conditional ??CrossCallReturnLabel_22
        CFI (cfiCond179) R6 load(1, XDATA, add(CFA_XSP16, literal(-10)))
        CFI (cfiCond179) VB load(1, XDATA, add(CFA_XSP16, literal(-9)))
        CFI (cfiCond179) V0 load(1, XDATA, add(CFA_XSP16, literal(-8)))
        CFI (cfiCond179) V1 load(1, XDATA, add(CFA_XSP16, literal(-7)))
        CFI (cfiCond179) R7 load(1, XDATA, add(CFA_XSP16, literal(-6)))
        CFI (cfiCond179) ?RET_LOW load(1, XDATA, add(CFA_XSP16, literal(-5)))
        CFI (cfiCond179) ?RET_HIGH load(1, XDATA, add(CFA_XSP16, literal(-4)))
        CFI (cfiCond179) ?BRET_EXT load(1, XDATA, add(CFA_XSP16, literal(-3)))
        CFI (cfiCond179) DPL0 load(1, XDATA, add(CFA_XSP16, literal(-2)))
        CFI (cfiCond179) DPH0 load(1, XDATA, add(CFA_XSP16, literal(-1)))
        CFI (cfiCond179) CFA_SP SP+0
        CFI (cfiCond179) CFA_XSP16 add(XSP16, 31)
        CFI Block cfiPicker180 Using cfiCommon1
        CFI (cfiPicker180) NoFunction
        CFI (cfiPicker180) Picker
        LCALL   ?Subroutine30 & 0xFFFF
??CrossCallReturnLabel_54:
        RET
        CFI EndBlock cfiCond178
        CFI EndBlock cfiCond179
        CFI EndBlock cfiPicker180

        RSEG BANKED_CODE:CODE:NOROOT(0)
?Subroutine30:
        CFI Block cfiCond181 Using cfiCommon0
        CFI NoFunction
        CFI Conditional ??CrossCallReturnLabel_53, ??CrossCallReturnLabel_13
        CFI DPL0 Frame(CFA_SP, 4)
        CFI DPH0 Frame(CFA_SP, 5)
        CFI CFA_SP SP+-5
        CFI CFA_XSP16 add(XSP16, 25)
        CFI Block cfiCond182 Using cfiCommon0
        CFI (cfiCond182) NoFunction
        CFI (cfiCond182) Conditional ??CrossCallReturnLabel_53, ??CrossCallReturnLabel_14
        CFI (cfiCond182) DPL0 Frame(CFA_SP, 4)
        CFI (cfiCond182) DPH0 Frame(CFA_SP, 5)
        CFI (cfiCond182) CFA_SP SP+-5
        CFI (cfiCond182) CFA_XSP16 add(XSP16, 25)
        CFI Block cfiCond183 Using cfiCommon0
        CFI (cfiCond183) NoFunction
        CFI (cfiCond183) Conditional ??CrossCallReturnLabel_53, ??CrossCallReturnLabel_15
        CFI (cfiCond183) DPL0 Frame(CFA_SP, 4)
        CFI (cfiCond183) DPH0 Frame(CFA_SP, 5)
        CFI (cfiCond183) CFA_SP SP+-5
        CFI (cfiCond183) CFA_XSP16 add(XSP16, 25)
        CFI Block cfiCond184 Using cfiCommon0
        CFI (cfiCond184) NoFunction
        CFI (cfiCond184) Conditional ??CrossCallReturnLabel_53, ??CrossCallReturnLabel_16
        CFI (cfiCond184) DPL0 Frame(CFA_SP, 4)
        CFI (cfiCond184) DPH0 Frame(CFA_SP, 5)
        CFI (cfiCond184) CFA_SP SP+-5
        CFI (cfiCond184) CFA_XSP16 add(XSP16, 25)
        CFI Block cfiCond185 Using cfiCommon0
        CFI (cfiCond185) NoFunction
        CFI (cfiCond185) Conditional ??CrossCallReturnLabel_54, ??CrossCallReturnLabel_21
        CFI (cfiCond185) R6 load(1, XDATA, add(CFA_XSP16, literal(-10)))
        CFI (cfiCond185) VB load(1, XDATA, add(CFA_XSP16, literal(-9)))
        CFI (cfiCond185) V0 load(1, XDATA, add(CFA_XSP16, literal(-8)))
        CFI (cfiCond185) V1 load(1, XDATA, add(CFA_XSP16, literal(-7)))
        CFI (cfiCond185) R7 load(1, XDATA, add(CFA_XSP16, literal(-6)))
        CFI (cfiCond185) ?RET_LOW load(1, XDATA, add(CFA_XSP16, literal(-5)))
        CFI (cfiCond185) ?RET_HIGH load(1, XDATA, add(CFA_XSP16, literal(-4)))
        CFI (cfiCond185) ?BRET_EXT load(1, XDATA, add(CFA_XSP16, literal(-3)))
        CFI (cfiCond185) DPL0 load(1, XDATA, add(CFA_XSP16, literal(-2)))
        CFI (cfiCond185) DPH0 load(1, XDATA, add(CFA_XSP16, literal(-1)))
        CFI (cfiCond185) CFA_SP SP+0
        CFI (cfiCond185) CFA_XSP16 add(XSP16, 31)
        CFI Block cfiCond186 Using cfiCommon0
        CFI (cfiCond186) NoFunction
        CFI (cfiCond186) Conditional ??CrossCallReturnLabel_54, ??CrossCallReturnLabel_22
        CFI (cfiCond186) R6 load(1, XDATA, add(CFA_XSP16, literal(-10)))
        CFI (cfiCond186) VB load(1, XDATA, add(CFA_XSP16, literal(-9)))
        CFI (cfiCond186) V0 load(1, XDATA, add(CFA_XSP16, literal(-8)))
        CFI (cfiCond186) V1 load(1, XDATA, add(CFA_XSP16, literal(-7)))
        CFI (cfiCond186) R7 load(1, XDATA, add(CFA_XSP16, literal(-6)))
        CFI (cfiCond186) ?RET_LOW load(1, XDATA, add(CFA_XSP16, literal(-5)))
        CFI (cfiCond186) ?RET_HIGH load(1, XDATA, add(CFA_XSP16, literal(-4)))
        CFI (cfiCond186) ?BRET_EXT load(1, XDATA, add(CFA_XSP16, literal(-3)))
        CFI (cfiCond186) DPL0 load(1, XDATA, add(CFA_XSP16, literal(-2)))
        CFI (cfiCond186) DPH0 load(1, XDATA, add(CFA_XSP16, literal(-1)))
        CFI (cfiCond186) CFA_SP SP+0
        CFI (cfiCond186) CFA_XSP16 add(XSP16, 31)
        CFI Block cfiPicker187 Using cfiCommon1
        CFI (cfiPicker187) NoFunction
        CFI (cfiPicker187) Picker
        MOVX    @DPTR,A
        MOV     DPL,R2
        MOV     DPH,R3
        INC     DPTR
        INC     DPTR
        INC     DPTR
        RET
        CFI EndBlock cfiCond181
        CFI EndBlock cfiCond182
        CFI EndBlock cfiCond183
        CFI EndBlock cfiCond184
        CFI EndBlock cfiCond185
        CFI EndBlock cfiCond186
        CFI EndBlock cfiPicker187

        RSEG BANKED_CODE:CODE:NOROOT(0)
?Subroutine15:
        CFI Block cfiCond188 Using cfiCommon0
        CFI NoFunction
        CFI Conditional ??CrossCallReturnLabel_19
        CFI R6 load(1, XDATA, add(CFA_XSP16, literal(-10)))
        CFI VB load(1, XDATA, add(CFA_XSP16, literal(-9)))
        CFI V0 load(1, XDATA, add(CFA_XSP16, literal(-8)))
        CFI V1 load(1, XDATA, add(CFA_XSP16, literal(-7)))
        CFI R7 load(1, XDATA, add(CFA_XSP16, literal(-6)))
        CFI ?RET_LOW load(1, XDATA, add(CFA_XSP16, literal(-5)))
        CFI ?RET_HIGH load(1, XDATA, add(CFA_XSP16, literal(-4)))
        CFI ?BRET_EXT load(1, XDATA, add(CFA_XSP16, literal(-3)))
        CFI DPL0 load(1, XDATA, add(CFA_XSP16, literal(-2)))
        CFI DPH0 load(1, XDATA, add(CFA_XSP16, literal(-1)))
        CFI CFA_SP SP+0
        CFI CFA_XSP16 add(XSP16, 31)
        CFI Block cfiCond189 Using cfiCommon0
        CFI (cfiCond189) NoFunction
        CFI (cfiCond189) Conditional ??CrossCallReturnLabel_20
        CFI (cfiCond189) R6 load(1, XDATA, add(CFA_XSP16, literal(-10)))
        CFI (cfiCond189) VB load(1, XDATA, add(CFA_XSP16, literal(-9)))
        CFI (cfiCond189) V0 load(1, XDATA, add(CFA_XSP16, literal(-8)))
        CFI (cfiCond189) V1 load(1, XDATA, add(CFA_XSP16, literal(-7)))
        CFI (cfiCond189) R7 load(1, XDATA, add(CFA_XSP16, literal(-6)))
        CFI (cfiCond189) ?RET_LOW load(1, XDATA, add(CFA_XSP16, literal(-5)))
        CFI (cfiCond189) ?RET_HIGH load(1, XDATA, add(CFA_XSP16, literal(-4)))
        CFI (cfiCond189) ?BRET_EXT load(1, XDATA, add(CFA_XSP16, literal(-3)))
        CFI (cfiCond189) DPL0 load(1, XDATA, add(CFA_XSP16, literal(-2)))
        CFI (cfiCond189) DPH0 load(1, XDATA, add(CFA_XSP16, literal(-1)))
        CFI (cfiCond189) CFA_SP SP+0
        CFI (cfiCond189) CFA_XSP16 add(XSP16, 31)
        CFI Block cfiPicker190 Using cfiCommon1
        CFI (cfiPicker190) NoFunction
        CFI (cfiPicker190) Picker
        MOVX    @DPTR,A
        INC     DPTR
        CLR     A
        MOVX    @DPTR,A
        MOV     DPL,R2
        MOV     DPH,R3
        INC     DPTR
        RET
        CFI EndBlock cfiCond188
        CFI EndBlock cfiCond189
        CFI EndBlock cfiPicker190

        RSEG BANKED_CODE:CODE:NOROOT(0)
?Subroutine14:
        CFI Block cfiCond191 Using cfiCommon0
        CFI NoFunction
        CFI Conditional ??CrossCallReturnLabel_101
        CFI R6 load(1, XDATA, add(CFA_XSP16, literal(-11)))
        CFI VB load(1, XDATA, add(CFA_XSP16, literal(-10)))
        CFI V0 load(1, XDATA, add(CFA_XSP16, literal(-9)))
        CFI V1 load(1, XDATA, add(CFA_XSP16, literal(-8)))
        CFI V2 load(1, XDATA, add(CFA_XSP16, literal(-7)))
        CFI R7 load(1, XDATA, add(CFA_XSP16, literal(-6)))
        CFI ?RET_LOW load(1, XDATA, add(CFA_XSP16, literal(-5)))
        CFI ?RET_HIGH load(1, XDATA, add(CFA_XSP16, literal(-4)))
        CFI ?BRET_EXT load(1, XDATA, add(CFA_XSP16, literal(-3)))
        CFI DPL0 load(1, XDATA, add(CFA_XSP16, literal(-2)))
        CFI DPH0 load(1, XDATA, add(CFA_XSP16, literal(-1)))
        CFI CFA_SP SP+0
        CFI CFA_XSP16 add(XSP16, 11)
        CFI Block cfiCond192 Using cfiCommon0
        CFI (cfiCond192) NoFunction
        CFI (cfiCond192) Conditional ??CrossCallReturnLabel_102
        CFI (cfiCond192) R6 load(1, XDATA, add(CFA_XSP16, literal(-10)))
        CFI (cfiCond192) VB load(1, XDATA, add(CFA_XSP16, literal(-9)))
        CFI (cfiCond192) V0 load(1, XDATA, add(CFA_XSP16, literal(-8)))
        CFI (cfiCond192) V1 load(1, XDATA, add(CFA_XSP16, literal(-7)))
        CFI (cfiCond192) R7 load(1, XDATA, add(CFA_XSP16, literal(-6)))
        CFI (cfiCond192) ?RET_LOW load(1, XDATA, add(CFA_XSP16, literal(-5)))
        CFI (cfiCond192) ?RET_HIGH load(1, XDATA, add(CFA_XSP16, literal(-4)))
        CFI (cfiCond192) ?BRET_EXT load(1, XDATA, add(CFA_XSP16, literal(-3)))
        CFI (cfiCond192) DPL0 load(1, XDATA, add(CFA_XSP16, literal(-2)))
        CFI (cfiCond192) DPH0 load(1, XDATA, add(CFA_XSP16, literal(-1)))
        CFI (cfiCond192) CFA_SP SP+0
        CFI (cfiCond192) CFA_XSP16 add(XSP16, 31)
        CFI Block cfiPicker193 Using cfiCommon1
        CFI (cfiPicker193) NoFunction
        CFI (cfiPicker193) Picker
        MOV     A,#0x2
        CFI EndBlock cfiCond191
        CFI EndBlock cfiCond192
        CFI EndBlock cfiPicker193
        REQUIRE ??Subroutine47_0
        ; // Fall through to label ??Subroutine47_0

        RSEG BANKED_CODE:CODE:NOROOT(0)
??Subroutine47_0:
        CFI Block cfiCond194 Using cfiCommon0
        CFI NoFunction
        CFI Conditional ??CrossCallReturnLabel_103
        CFI R6 load(1, XDATA, add(CFA_XSP16, literal(-11)))
        CFI VB load(1, XDATA, add(CFA_XSP16, literal(-10)))
        CFI V0 load(1, XDATA, add(CFA_XSP16, literal(-9)))
        CFI V1 load(1, XDATA, add(CFA_XSP16, literal(-8)))
        CFI V2 load(1, XDATA, add(CFA_XSP16, literal(-7)))
        CFI R7 load(1, XDATA, add(CFA_XSP16, literal(-6)))
        CFI ?RET_LOW load(1, XDATA, add(CFA_XSP16, literal(-5)))
        CFI ?RET_HIGH load(1, XDATA, add(CFA_XSP16, literal(-4)))
        CFI ?BRET_EXT load(1, XDATA, add(CFA_XSP16, literal(-3)))
        CFI DPL0 load(1, XDATA, add(CFA_XSP16, literal(-2)))
        CFI DPH0 load(1, XDATA, add(CFA_XSP16, literal(-1)))
        CFI CFA_SP SP+0
        CFI CFA_XSP16 add(XSP16, 11)
        CFI Block cfiCond195 Using cfiCommon0
        CFI (cfiCond195) NoFunction
        CFI (cfiCond195) Conditional ??CrossCallReturnLabel_104
        CFI (cfiCond195) R6 load(1, XDATA, add(CFA_XSP16, literal(-11)))
        CFI (cfiCond195) VB load(1, XDATA, add(CFA_XSP16, literal(-10)))
        CFI (cfiCond195) V0 load(1, XDATA, add(CFA_XSP16, literal(-9)))
        CFI (cfiCond195) V1 load(1, XDATA, add(CFA_XSP16, literal(-8)))
        CFI (cfiCond195) V2 load(1, XDATA, add(CFA_XSP16, literal(-7)))
        CFI (cfiCond195) R7 load(1, XDATA, add(CFA_XSP16, literal(-6)))
        CFI (cfiCond195) ?RET_LOW load(1, XDATA, add(CFA_XSP16, literal(-5)))
        CFI (cfiCond195) ?RET_HIGH load(1, XDATA, add(CFA_XSP16, literal(-4)))
        CFI (cfiCond195) ?BRET_EXT load(1, XDATA, add(CFA_XSP16, literal(-3)))
        CFI (cfiCond195) DPL0 load(1, XDATA, add(CFA_XSP16, literal(-2)))
        CFI (cfiCond195) DPH0 load(1, XDATA, add(CFA_XSP16, literal(-1)))
        CFI (cfiCond195) CFA_SP SP+0
        CFI (cfiCond195) CFA_XSP16 add(XSP16, 11)
        CFI Block cfiCond196 Using cfiCommon0
        CFI (cfiCond196) NoFunction
        CFI (cfiCond196) Conditional ??CrossCallReturnLabel_101
        CFI (cfiCond196) R6 load(1, XDATA, add(CFA_XSP16, literal(-11)))
        CFI (cfiCond196) VB load(1, XDATA, add(CFA_XSP16, literal(-10)))
        CFI (cfiCond196) V0 load(1, XDATA, add(CFA_XSP16, literal(-9)))
        CFI (cfiCond196) V1 load(1, XDATA, add(CFA_XSP16, literal(-8)))
        CFI (cfiCond196) V2 load(1, XDATA, add(CFA_XSP16, literal(-7)))
        CFI (cfiCond196) R7 load(1, XDATA, add(CFA_XSP16, literal(-6)))
        CFI (cfiCond196) ?RET_LOW load(1, XDATA, add(CFA_XSP16, literal(-5)))
        CFI (cfiCond196) ?RET_HIGH load(1, XDATA, add(CFA_XSP16, literal(-4)))
        CFI (cfiCond196) ?BRET_EXT load(1, XDATA, add(CFA_XSP16, literal(-3)))
        CFI (cfiCond196) DPL0 load(1, XDATA, add(CFA_XSP16, literal(-2)))
        CFI (cfiCond196) DPH0 load(1, XDATA, add(CFA_XSP16, literal(-1)))
        CFI (cfiCond196) CFA_SP SP+0
        CFI (cfiCond196) CFA_XSP16 add(XSP16, 11)
        CFI Block cfiCond197 Using cfiCommon0
        CFI (cfiCond197) NoFunction
        CFI (cfiCond197) Conditional ??CrossCallReturnLabel_102
        CFI (cfiCond197) R6 load(1, XDATA, add(CFA_XSP16, literal(-10)))
        CFI (cfiCond197) VB load(1, XDATA, add(CFA_XSP16, literal(-9)))
        CFI (cfiCond197) V0 load(1, XDATA, add(CFA_XSP16, literal(-8)))
        CFI (cfiCond197) V1 load(1, XDATA, add(CFA_XSP16, literal(-7)))
        CFI (cfiCond197) R7 load(1, XDATA, add(CFA_XSP16, literal(-6)))
        CFI (cfiCond197) ?RET_LOW load(1, XDATA, add(CFA_XSP16, literal(-5)))
        CFI (cfiCond197) ?RET_HIGH load(1, XDATA, add(CFA_XSP16, literal(-4)))
        CFI (cfiCond197) ?BRET_EXT load(1, XDATA, add(CFA_XSP16, literal(-3)))
        CFI (cfiCond197) DPL0 load(1, XDATA, add(CFA_XSP16, literal(-2)))
        CFI (cfiCond197) DPH0 load(1, XDATA, add(CFA_XSP16, literal(-1)))
        CFI (cfiCond197) CFA_SP SP+0
        CFI (cfiCond197) CFA_XSP16 add(XSP16, 31)
        CFI Block cfiPicker198 Using cfiCommon1
        CFI (cfiPicker198) NoFunction
        CFI (cfiPicker198) Picker
        MOVX    @DPTR,A
        INC     DPTR
        MOV     A,#0x14
        MOVX    @DPTR,A
        RET
        CFI EndBlock cfiCond194
        CFI EndBlock cfiCond195
        CFI EndBlock cfiCond196
        CFI EndBlock cfiCond197
        CFI EndBlock cfiPicker198

        RSEG BANKED_CODE:CODE:NOROOT(0)
?Subroutine13:
        CFI Block cfiCond199 Using cfiCommon0
        CFI NoFunction
        CFI Conditional ??CrossCallReturnLabel_17
        CFI DPL0 Frame(CFA_SP, 4)
        CFI DPH0 Frame(CFA_SP, 5)
        CFI CFA_SP SP+-5
        CFI CFA_XSP16 add(XSP16, 25)
        CFI Block cfiCond200 Using cfiCommon0
        CFI (cfiCond200) NoFunction
        CFI (cfiCond200) Conditional ??CrossCallReturnLabel_17
        CFI (cfiCond200) DPL0 Frame(CFA_SP, 4)
        CFI (cfiCond200) DPH0 Frame(CFA_SP, 5)
        CFI (cfiCond200) CFA_SP SP+-5
        CFI (cfiCond200) CFA_XSP16 add(XSP16, 25)
        CFI Block cfiCond201 Using cfiCommon0
        CFI (cfiCond201) NoFunction
        CFI (cfiCond201) Conditional ??CrossCallReturnLabel_17
        CFI (cfiCond201) DPL0 Frame(CFA_SP, 4)
        CFI (cfiCond201) DPH0 Frame(CFA_SP, 5)
        CFI (cfiCond201) CFA_SP SP+-5
        CFI (cfiCond201) CFA_XSP16 add(XSP16, 25)
        CFI Block cfiCond202 Using cfiCommon0
        CFI (cfiCond202) NoFunction
        CFI (cfiCond202) Conditional ??CrossCallReturnLabel_17
        CFI (cfiCond202) DPL0 Frame(CFA_SP, 4)
        CFI (cfiCond202) DPH0 Frame(CFA_SP, 5)
        CFI (cfiCond202) CFA_SP SP+-5
        CFI (cfiCond202) CFA_XSP16 add(XSP16, 25)
        CFI Block cfiCond203 Using cfiCommon0
        CFI (cfiCond203) NoFunction
        CFI (cfiCond203) Conditional ??CrossCallReturnLabel_18
        CFI (cfiCond203) R6 load(1, XDATA, add(CFA_XSP16, literal(-10)))
        CFI (cfiCond203) VB load(1, XDATA, add(CFA_XSP16, literal(-9)))
        CFI (cfiCond203) V0 load(1, XDATA, add(CFA_XSP16, literal(-8)))
        CFI (cfiCond203) V1 load(1, XDATA, add(CFA_XSP16, literal(-7)))
        CFI (cfiCond203) R7 load(1, XDATA, add(CFA_XSP16, literal(-6)))
        CFI (cfiCond203) ?RET_LOW load(1, XDATA, add(CFA_XSP16, literal(-5)))
        CFI (cfiCond203) ?RET_HIGH load(1, XDATA, add(CFA_XSP16, literal(-4)))
        CFI (cfiCond203) ?BRET_EXT load(1, XDATA, add(CFA_XSP16, literal(-3)))
        CFI (cfiCond203) DPL0 load(1, XDATA, add(CFA_XSP16, literal(-2)))
        CFI (cfiCond203) DPH0 load(1, XDATA, add(CFA_XSP16, literal(-1)))
        CFI (cfiCond203) CFA_SP SP+0
        CFI (cfiCond203) CFA_XSP16 add(XSP16, 31)
        CFI Block cfiPicker204 Using cfiCommon1
        CFI (cfiPicker204) NoFunction
        CFI (cfiPicker204) Picker
        MOVX    @DPTR,A
        INC     DPTR
        CLR     A
        MOVX    @DPTR,A
        ; Setup parameters for call to function SHCoordSendUartMsg
        ; Setup parameters for call to function SHCoordSendUartMsg
        ; Setup parameters for call to function SHCoordSendUartMsg
        ; Setup parameters for call to function SHCoordSendUartMsg
        MOV     DPL,?XSP + 0
        MOV     DPH,?XSP + 1
        RET
        CFI EndBlock cfiCond199
        CFI EndBlock cfiCond200
        CFI EndBlock cfiCond201
        CFI EndBlock cfiCond202
        CFI EndBlock cfiCond203
        CFI EndBlock cfiPicker204
//  824 

        RSEG BANKED_CODE:CODE:NOROOT(0)
//  825  void SHEndPointReveiceAirConMsg(afIncomingMSGPacket_t *pkt)
SHEndPointReveiceAirConMsg:
        CFI Block cfiBlock205 Using cfiCommon0
        CFI Function SHEndPointReveiceAirConMsg
        CODE
//  826  {
        FUNCALL SHEndPointReveiceAirConMsg, memset
        LOCFRAME ISTACK, 0, STACK
        LOCFRAME PSTACK, 0, STACK
        LOCFRAME XSTACK, 159, STACK
        LOCFRAME IOVERLAY, 0, STATIC
        LOCFRAME DOVERLAY, 0, STATIC
        ARGFRAME ISTACK, 0, STACK
        ARGFRAME PSTACK, 0, STACK
        ARGFRAME XSTACK, 159, STACK
        ARGFRAME IOVERLAY, 0, STATIC
        ARGFRAME DOVERLAY, 0, STATIC
        FUNCALL SHEndPointReveiceAirConMsg, SHIR_Sending
        LOCFRAME ISTACK, 0, STACK
        LOCFRAME PSTACK, 0, STACK
        LOCFRAME XSTACK, 157, STACK
        LOCFRAME IOVERLAY, 0, STATIC
        LOCFRAME DOVERLAY, 0, STATIC
        ARGFRAME ISTACK, 0, STACK
        ARGFRAME PSTACK, 0, STACK
        ARGFRAME XSTACK, 157, STACK
        ARGFRAME IOVERLAY, 0, STATIC
        ARGFRAME DOVERLAY, 0, STATIC
        MOV     A,#-0x10
        LCALL   ?BANKED_ENTER_XDATA
        CFI DPH0 load(1, XDATA, add(CFA_XSP16, literal(-1)))
        CFI DPL0 load(1, XDATA, add(CFA_XSP16, literal(-2)))
        CFI ?BRET_EXT load(1, XDATA, add(CFA_XSP16, literal(-3)))
        CFI ?RET_HIGH load(1, XDATA, add(CFA_XSP16, literal(-4)))
        CFI ?RET_LOW load(1, XDATA, add(CFA_XSP16, literal(-5)))
        CFI R7 load(1, XDATA, add(CFA_XSP16, literal(-6)))
        CFI V7 load(1, XDATA, add(CFA_XSP16, literal(-7)))
        CFI V6 load(1, XDATA, add(CFA_XSP16, literal(-8)))
        CFI V5 load(1, XDATA, add(CFA_XSP16, literal(-9)))
        CFI V4 load(1, XDATA, add(CFA_XSP16, literal(-10)))
        CFI V3 load(1, XDATA, add(CFA_XSP16, literal(-11)))
        CFI V2 load(1, XDATA, add(CFA_XSP16, literal(-12)))
        CFI V1 load(1, XDATA, add(CFA_XSP16, literal(-13)))
        CFI V0 load(1, XDATA, add(CFA_XSP16, literal(-14)))
        CFI VB load(1, XDATA, add(CFA_XSP16, literal(-15)))
        CFI R6 load(1, XDATA, add(CFA_XSP16, literal(-16)))
        CFI CFA_SP SP+0
        CFI CFA_XSP16 add(XSP16, 16)
        ; Saved register size: 16
        ; Auto size: 141
        MOV     A,#0x73
        LCALL   ?ALLOC_XSTACK8
        CFI CFA_XSP16 add(XSP16, 157)
        MOV     A,R2
        MOV     R6,A
        MOV     A,R3
        MOV     R7,A
//  827  	uint16 lenHex = pkt->cmd.DataLength;
        LCALL   ?Subroutine9 & 0xFFFF
??CrossCallReturnLabel_109:
        MOV     ?V0 + 0,A
        INC     DPTR
        MOVX    A,@DPTR
        MOV     ?V0 + 1,A
//  828 	
//  829  	uint8 binStr[72];
//  830 	memset(binStr,'0',72);
        ; Setup parameters for call to function memset
        MOV     ?V0 + 2,#0x48
        MOV     ?V0 + 3,#0x0
        MOV     R0,#?V0 + 2
        LCALL   ?PUSH_XSTACK_I_TWO
        CFI CFA_XSP16 add(XSP16, 159)
        MOV     R4,#0x30
        MOV     R5,#0x0
        MOV     A,#0x47
        LCALL   ?XSTACK_DISP0_8
        MOV     R2,DPL
        MOV     R3,DPH
        LCALL   ??memset?relay
        MOV     A,#0x2
        LCALL   ?DEALLOC_XSTACK8
        CFI CFA_XSP16 add(XSP16, 157)
//  831 	uint8 hexChar[2];    
//  832 	for (int i = 0; i < lenHex; i++)    
        MOV     R4,#0x0
        MOV     R5,#0x0
        LJMP    ??SHEndPointReveiceAirConMsg_0 & 0xFFFF
//  833 	{        
//  834 		hexChar[0] = (pkt->cmd.Data[i] & 0xF0) >> 4;        
??SHEndPointReveiceAirConMsg_1:
        MOV     A,R6
        ADD     A,#0x21
        LCALL   ??Subroutine48_0 & 0xFFFF
??CrossCallReturnLabel_107:
        ADD     A,R4
        MOV     R0,A
        INC     DPTR
        MOVX    A,@DPTR
        ADDC    A,R5
        MOV     R1,A
        MOV     DPL,R0
        MOV     DPH,R1
        MOVX    A,@DPTR
        SWAP    A
        ANL     A,#0xf
        MOV     DPL,?XSP + 0
        MOV     DPH,?XSP + 1
        MOVX    @DPTR,A
//  835 		hexChar[1] = pkt->cmd.Data[i] & 0x0F;        
        MOV     DPL,R0
        MOV     DPH,R1
        MOVX    A,@DPTR
        ANL     A,#0xf
        PUSH    A
        CFI CFA_SP SP+-1
        MOV     A,#0x1
        LCALL   ?XSTACK_DISP0_8
        POP     A
        CFI CFA_SP SP+0
        MOVX    @DPTR,A
//  836 		for (int j = 0; j < 2; j++)        
        MOV     ?V0 + 2,#0x0
        MOV     ?V0 + 3,#0x0
//  837 		{           
//  838 			 for (int k = 0; k < 4; k++)            
??SHEndPointReveiceAirConMsg_2:
        MOV     R2,#0x0
        MOV     R3,#0x0
//  839 			{               
//  840 				if (hexChar[j] & (0x08 >> k))                
??SHEndPointReveiceAirConMsg_3:
        MOV     ?V0 + 4,#0x8
        MOV     ?V0 + 5,#0x0
        MOV     A,R2
        MOV     R0,#?V0 + 4
        LCALL   ?SS_SHR
        MOV     DPL,?XSP + 0
        MOV     DPH,?XSP + 1
        MOV     A,DPL
        ADD     A,?V0 + 2
        MOV     DPL,A
        MOV     A,DPH
        ADDC    A,?V0 + 3
        MOV     DPH,A
        MOVX    A,@DPTR
        ANL     A,?V0 + 4
        JZ      ??SHEndPointReveiceAirConMsg_4
//  841 				{                    
//  842 					binStr[8 * i + 4 * j + k] = '1';                
        MOV     ?V0 + 6,R4
        MOV     ?V0 + 7,R5
        MOV     A,#0x3
        MOV     R0,#?V0 + 6
        LCALL   ?S_SHL
        MOV     ?V0 + 4,?V0 + 2
        MOV     ?V0 + 5,?V0 + 3
        MOV     A,#0x2
        MOV     R0,#?V0 + 4
        LCALL   ?S_SHL
        MOV     A,?V0 + 6
        ADD     A,?V0 + 4
        MOV     R0,A
        MOV     A,?V0 + 7
        ADDC    A,?V0 + 5
        MOV     R1,A
        MOV     A,R0
        ADD     A,R2
        MOV     R0,A
        MOV     A,R1
        ADDC    A,R3
        MOV     R1,A
        MOV     A,#0x45
        LCALL   ?XSTACK_DISP0_8
        LCALL   ?Subroutine27 & 0xFFFF
//  843 				}            
//  844 			}        
??CrossCallReturnLabel_45:
        MOV     A,#0x31
        MOVX    @DPTR,A
??SHEndPointReveiceAirConMsg_4:
        LCALL   ??Subroutine43_0 & 0xFFFF
??CrossCallReturnLabel_87:
        MOV     R3,A
        CLR     C
        MOV     A,R2
        SUBB    A,#0x4
        MOV     A,R3
        LCALL   ??Subroutine45_0 & 0xFFFF
//  845 		}    
??CrossCallReturnLabel_88:
        JC      ??SHEndPointReveiceAirConMsg_3
        MOV     A,?V0 + 2
        ADD     A,#0x1
        MOV     ?V0 + 2,A
        MOV     A,?V0 + 3
        ADDC    A,#0x0
        MOV     ?V0 + 3,A
        CLR     C
        MOV     A,?V0 + 2
        SUBB    A,#0x2
        MOV     A,?V0 + 3
        LCALL   ??Subroutine45_0 & 0xFFFF
//  846 	}
??CrossCallReturnLabel_89:
        JC      ??SHEndPointReveiceAirConMsg_2
        MOV     A,R4
        ADD     A,#0x1
        INC     R4
        MOV     A,R5
        ADDC    A,#0x0
        MOV     R5,A
??SHEndPointReveiceAirConMsg_0:
        CLR     C
        MOV     A,R4
        SUBB    A,?V0 + 0
        MOV     A,R5
        SUBB    A,?V0 + 1
        JNC     $+5
        LJMP    ??SHEndPointReveiceAirConMsg_1 & 0xFFFF
//  847 
//  848 	uint8 Sendcode35[35],Sendcode32[32];
//  849 	for(int i = 0;i<35;i++)
        MOV     R0,#0x0
        MOV     R1,#0x0
//  850 	{
//  851 		Sendcode35[i] = binStr[i];
??SHEndPointReveiceAirConMsg_5:
        MOV     A,#0x45
        LCALL   ?XSTACK_DISP0_8
        LCALL   ?Subroutine27 & 0xFFFF
//  852 	}
??CrossCallReturnLabel_46:
        MOVX    A,@DPTR
        PUSH    A
        CFI CFA_SP SP+-1
        MOV     A,#0x22
        LCALL   ?XSTACK_DISP0_8
        LCALL   ?Subroutine27 & 0xFFFF
??CrossCallReturnLabel_47:
        POP     A
        CFI CFA_SP SP+0
        LCALL   ?Subroutine6 & 0xFFFF
??CrossCallReturnLabel_9:
        SUBB    A,#0x23
        LCALL   ?Subroutine25 & 0xFFFF
??CrossCallReturnLabel_93:
        JC      ??SHEndPointReveiceAirConMsg_5
//  853 	
//  854 	for(int i = 0;i<32;i++)
        MOV     R0,#0x0
        MOV     R1,#0x0
//  855 	{
//  856 		Sendcode32[i] = binStr[40 + i];
??SHEndPointReveiceAirConMsg_6:
        MOV     A,#0x45
        LCALL   ?XSTACK_DISP0_8
        MOV     A,DPL
        ADD     A,R0
        MOV     R2,A
        MOV     A,DPH
        ADDC    A,R1
        MOV     R3,A
        MOV     A,R2
        ADD     A,#0x28
        MOV     DPL,A
        MOV     A,R3
        LCALL   ??Subroutine49_0 & 0xFFFF
//  857 	}
??CrossCallReturnLabel_106:
        PUSH    A
        CFI CFA_SP SP+-1
        MOV     A,#0x2
        LCALL   ?XSTACK_DISP0_8
        LCALL   ?Subroutine27 & 0xFFFF
??CrossCallReturnLabel_48:
        POP     A
        CFI CFA_SP SP+0
        LCALL   ?Subroutine6 & 0xFFFF
??CrossCallReturnLabel_10:
        SUBB    A,#0x20
        LCALL   ?Subroutine25 & 0xFFFF
??CrossCallReturnLabel_94:
        JC      ??SHEndPointReveiceAirConMsg_6
//  858 	
//  859 	SHIR_Sending(Sendcode35,Sendcode32);	
        ; Setup parameters for call to function SHIR_Sending
        MOV     A,#0x2
        LCALL   ?XSTACK_DISP0_8
        MOV     R4,DPL
        MOV     R5,DPH
        MOV     A,#0x22
        LCALL   ?XSTACK_DISP0_8
        MOV     R2,DPL
        MOV     R3,DPH
        LCALL   ??SHIR_Sending?relay
//  860  }
        MOV     A,#-0x73
        LCALL   ?DEALLOC_XSTACK8
        CFI CFA_XSP16 add(XSP16, 16)
        MOV     R7,#0x8
        LJMP    ?BANKED_LEAVE_XDATA
        CFI EndBlock cfiBlock205

        RSEG BANKED_CODE:CODE:NOROOT(0)
?Subroutine27:
        CFI Block cfiCond206 Using cfiCommon0
        CFI NoFunction
        CFI Conditional ??CrossCallReturnLabel_45
        CFI R6 load(1, XDATA, add(CFA_XSP16, literal(-16)))
        CFI VB load(1, XDATA, add(CFA_XSP16, literal(-15)))
        CFI V0 load(1, XDATA, add(CFA_XSP16, literal(-14)))
        CFI V1 load(1, XDATA, add(CFA_XSP16, literal(-13)))
        CFI V2 load(1, XDATA, add(CFA_XSP16, literal(-12)))
        CFI V3 load(1, XDATA, add(CFA_XSP16, literal(-11)))
        CFI V4 load(1, XDATA, add(CFA_XSP16, literal(-10)))
        CFI V5 load(1, XDATA, add(CFA_XSP16, literal(-9)))
        CFI V6 load(1, XDATA, add(CFA_XSP16, literal(-8)))
        CFI V7 load(1, XDATA, add(CFA_XSP16, literal(-7)))
        CFI R7 load(1, XDATA, add(CFA_XSP16, literal(-6)))
        CFI ?RET_LOW load(1, XDATA, add(CFA_XSP16, literal(-5)))
        CFI ?RET_HIGH load(1, XDATA, add(CFA_XSP16, literal(-4)))
        CFI ?BRET_EXT load(1, XDATA, add(CFA_XSP16, literal(-3)))
        CFI DPL0 load(1, XDATA, add(CFA_XSP16, literal(-2)))
        CFI DPH0 load(1, XDATA, add(CFA_XSP16, literal(-1)))
        CFI CFA_SP SP+0
        CFI CFA_XSP16 add(XSP16, 157)
        CFI Block cfiCond207 Using cfiCommon0
        CFI (cfiCond207) NoFunction
        CFI (cfiCond207) Conditional ??CrossCallReturnLabel_46
        CFI (cfiCond207) R6 load(1, XDATA, add(CFA_XSP16, literal(-16)))
        CFI (cfiCond207) VB load(1, XDATA, add(CFA_XSP16, literal(-15)))
        CFI (cfiCond207) V0 load(1, XDATA, add(CFA_XSP16, literal(-14)))
        CFI (cfiCond207) V1 load(1, XDATA, add(CFA_XSP16, literal(-13)))
        CFI (cfiCond207) V2 load(1, XDATA, add(CFA_XSP16, literal(-12)))
        CFI (cfiCond207) V3 load(1, XDATA, add(CFA_XSP16, literal(-11)))
        CFI (cfiCond207) V4 load(1, XDATA, add(CFA_XSP16, literal(-10)))
        CFI (cfiCond207) V5 load(1, XDATA, add(CFA_XSP16, literal(-9)))
        CFI (cfiCond207) V6 load(1, XDATA, add(CFA_XSP16, literal(-8)))
        CFI (cfiCond207) V7 load(1, XDATA, add(CFA_XSP16, literal(-7)))
        CFI (cfiCond207) R7 load(1, XDATA, add(CFA_XSP16, literal(-6)))
        CFI (cfiCond207) ?RET_LOW load(1, XDATA, add(CFA_XSP16, literal(-5)))
        CFI (cfiCond207) ?RET_HIGH load(1, XDATA, add(CFA_XSP16, literal(-4)))
        CFI (cfiCond207) ?BRET_EXT load(1, XDATA, add(CFA_XSP16, literal(-3)))
        CFI (cfiCond207) DPL0 load(1, XDATA, add(CFA_XSP16, literal(-2)))
        CFI (cfiCond207) DPH0 load(1, XDATA, add(CFA_XSP16, literal(-1)))
        CFI (cfiCond207) CFA_SP SP+0
        CFI (cfiCond207) CFA_XSP16 add(XSP16, 157)
        CFI Block cfiCond208 Using cfiCommon0
        CFI (cfiCond208) NoFunction
        CFI (cfiCond208) Conditional ??CrossCallReturnLabel_47
        CFI (cfiCond208) R6 load(1, XDATA, add(CFA_XSP16, literal(-16)))
        CFI (cfiCond208) VB load(1, XDATA, add(CFA_XSP16, literal(-15)))
        CFI (cfiCond208) V0 load(1, XDATA, add(CFA_XSP16, literal(-14)))
        CFI (cfiCond208) V1 load(1, XDATA, add(CFA_XSP16, literal(-13)))
        CFI (cfiCond208) V2 load(1, XDATA, add(CFA_XSP16, literal(-12)))
        CFI (cfiCond208) V3 load(1, XDATA, add(CFA_XSP16, literal(-11)))
        CFI (cfiCond208) V4 load(1, XDATA, add(CFA_XSP16, literal(-10)))
        CFI (cfiCond208) V5 load(1, XDATA, add(CFA_XSP16, literal(-9)))
        CFI (cfiCond208) V6 load(1, XDATA, add(CFA_XSP16, literal(-8)))
        CFI (cfiCond208) V7 load(1, XDATA, add(CFA_XSP16, literal(-7)))
        CFI (cfiCond208) R7 load(1, XDATA, add(CFA_XSP16, literal(-6)))
        CFI (cfiCond208) ?RET_LOW load(1, XDATA, add(CFA_XSP16, literal(-5)))
        CFI (cfiCond208) ?RET_HIGH load(1, XDATA, add(CFA_XSP16, literal(-4)))
        CFI (cfiCond208) ?BRET_EXT load(1, XDATA, add(CFA_XSP16, literal(-3)))
        CFI (cfiCond208) DPL0 load(1, XDATA, add(CFA_XSP16, literal(-2)))
        CFI (cfiCond208) DPH0 load(1, XDATA, add(CFA_XSP16, literal(-1)))
        CFI (cfiCond208) CFA_SP SP+-1
        CFI (cfiCond208) CFA_XSP16 add(XSP16, 157)
        CFI Block cfiCond209 Using cfiCommon0
        CFI (cfiCond209) NoFunction
        CFI (cfiCond209) Conditional ??CrossCallReturnLabel_48
        CFI (cfiCond209) R6 load(1, XDATA, add(CFA_XSP16, literal(-16)))
        CFI (cfiCond209) VB load(1, XDATA, add(CFA_XSP16, literal(-15)))
        CFI (cfiCond209) V0 load(1, XDATA, add(CFA_XSP16, literal(-14)))
        CFI (cfiCond209) V1 load(1, XDATA, add(CFA_XSP16, literal(-13)))
        CFI (cfiCond209) V2 load(1, XDATA, add(CFA_XSP16, literal(-12)))
        CFI (cfiCond209) V3 load(1, XDATA, add(CFA_XSP16, literal(-11)))
        CFI (cfiCond209) V4 load(1, XDATA, add(CFA_XSP16, literal(-10)))
        CFI (cfiCond209) V5 load(1, XDATA, add(CFA_XSP16, literal(-9)))
        CFI (cfiCond209) V6 load(1, XDATA, add(CFA_XSP16, literal(-8)))
        CFI (cfiCond209) V7 load(1, XDATA, add(CFA_XSP16, literal(-7)))
        CFI (cfiCond209) R7 load(1, XDATA, add(CFA_XSP16, literal(-6)))
        CFI (cfiCond209) ?RET_LOW load(1, XDATA, add(CFA_XSP16, literal(-5)))
        CFI (cfiCond209) ?RET_HIGH load(1, XDATA, add(CFA_XSP16, literal(-4)))
        CFI (cfiCond209) ?BRET_EXT load(1, XDATA, add(CFA_XSP16, literal(-3)))
        CFI (cfiCond209) DPL0 load(1, XDATA, add(CFA_XSP16, literal(-2)))
        CFI (cfiCond209) DPH0 load(1, XDATA, add(CFA_XSP16, literal(-1)))
        CFI (cfiCond209) CFA_SP SP+-1
        CFI (cfiCond209) CFA_XSP16 add(XSP16, 157)
        CFI Block cfiPicker210 Using cfiCommon1
        CFI (cfiPicker210) NoFunction
        CFI (cfiPicker210) Picker
        LCALL   ?Subroutine35 & 0xFFFF
??CrossCallReturnLabel_65:
        RET
        CFI EndBlock cfiCond206
        CFI EndBlock cfiCond207
        CFI EndBlock cfiCond208
        CFI EndBlock cfiCond209
        CFI EndBlock cfiPicker210

        RSEG BANKED_CODE:CODE:NOROOT(0)
?Subroutine35:
        CFI Block cfiCond211 Using cfiCommon0
        CFI NoFunction
        CFI Conditional ??CrossCallReturnLabel_64, ??CrossCallReturnLabel_43
        CFI DPL0 Frame(CFA_SP, 4)
        CFI DPH0 Frame(CFA_SP, 5)
        CFI CFA_SP SP+-5
        CFI CFA_XSP16 add(XSP16, 50)
        CFI Block cfiCond212 Using cfiCommon0
        CFI (cfiCond212) NoFunction
        CFI (cfiCond212) Conditional ??CrossCallReturnLabel_64, ??CrossCallReturnLabel_44
        CFI (cfiCond212) DPL0 Frame(CFA_SP, 4)
        CFI (cfiCond212) DPH0 Frame(CFA_SP, 5)
        CFI (cfiCond212) CFA_SP SP+-6
        CFI (cfiCond212) CFA_XSP16 add(XSP16, 50)
        CFI Block cfiCond213 Using cfiCommon0
        CFI (cfiCond213) NoFunction
        CFI (cfiCond213) Conditional ??CrossCallReturnLabel_65, ??CrossCallReturnLabel_45
        CFI (cfiCond213) R6 load(1, XDATA, add(CFA_XSP16, literal(-16)))
        CFI (cfiCond213) VB load(1, XDATA, add(CFA_XSP16, literal(-15)))
        CFI (cfiCond213) V0 load(1, XDATA, add(CFA_XSP16, literal(-14)))
        CFI (cfiCond213) V1 load(1, XDATA, add(CFA_XSP16, literal(-13)))
        CFI (cfiCond213) V2 load(1, XDATA, add(CFA_XSP16, literal(-12)))
        CFI (cfiCond213) V3 load(1, XDATA, add(CFA_XSP16, literal(-11)))
        CFI (cfiCond213) V4 load(1, XDATA, add(CFA_XSP16, literal(-10)))
        CFI (cfiCond213) V5 load(1, XDATA, add(CFA_XSP16, literal(-9)))
        CFI (cfiCond213) V6 load(1, XDATA, add(CFA_XSP16, literal(-8)))
        CFI (cfiCond213) V7 load(1, XDATA, add(CFA_XSP16, literal(-7)))
        CFI (cfiCond213) R7 load(1, XDATA, add(CFA_XSP16, literal(-6)))
        CFI (cfiCond213) ?RET_LOW load(1, XDATA, add(CFA_XSP16, literal(-5)))
        CFI (cfiCond213) ?RET_HIGH load(1, XDATA, add(CFA_XSP16, literal(-4)))
        CFI (cfiCond213) ?BRET_EXT load(1, XDATA, add(CFA_XSP16, literal(-3)))
        CFI (cfiCond213) DPL0 load(1, XDATA, add(CFA_XSP16, literal(-2)))
        CFI (cfiCond213) DPH0 load(1, XDATA, add(CFA_XSP16, literal(-1)))
        CFI (cfiCond213) CFA_SP SP+0
        CFI (cfiCond213) CFA_XSP16 add(XSP16, 157)
        CFI Block cfiCond214 Using cfiCommon0
        CFI (cfiCond214) NoFunction
        CFI (cfiCond214) Conditional ??CrossCallReturnLabel_65, ??CrossCallReturnLabel_46
        CFI (cfiCond214) R6 load(1, XDATA, add(CFA_XSP16, literal(-16)))
        CFI (cfiCond214) VB load(1, XDATA, add(CFA_XSP16, literal(-15)))
        CFI (cfiCond214) V0 load(1, XDATA, add(CFA_XSP16, literal(-14)))
        CFI (cfiCond214) V1 load(1, XDATA, add(CFA_XSP16, literal(-13)))
        CFI (cfiCond214) V2 load(1, XDATA, add(CFA_XSP16, literal(-12)))
        CFI (cfiCond214) V3 load(1, XDATA, add(CFA_XSP16, literal(-11)))
        CFI (cfiCond214) V4 load(1, XDATA, add(CFA_XSP16, literal(-10)))
        CFI (cfiCond214) V5 load(1, XDATA, add(CFA_XSP16, literal(-9)))
        CFI (cfiCond214) V6 load(1, XDATA, add(CFA_XSP16, literal(-8)))
        CFI (cfiCond214) V7 load(1, XDATA, add(CFA_XSP16, literal(-7)))
        CFI (cfiCond214) R7 load(1, XDATA, add(CFA_XSP16, literal(-6)))
        CFI (cfiCond214) ?RET_LOW load(1, XDATA, add(CFA_XSP16, literal(-5)))
        CFI (cfiCond214) ?RET_HIGH load(1, XDATA, add(CFA_XSP16, literal(-4)))
        CFI (cfiCond214) ?BRET_EXT load(1, XDATA, add(CFA_XSP16, literal(-3)))
        CFI (cfiCond214) DPL0 load(1, XDATA, add(CFA_XSP16, literal(-2)))
        CFI (cfiCond214) DPH0 load(1, XDATA, add(CFA_XSP16, literal(-1)))
        CFI (cfiCond214) CFA_SP SP+0
        CFI (cfiCond214) CFA_XSP16 add(XSP16, 157)
        CFI Block cfiCond215 Using cfiCommon0
        CFI (cfiCond215) NoFunction
        CFI (cfiCond215) Conditional ??CrossCallReturnLabel_65, ??CrossCallReturnLabel_47
        CFI (cfiCond215) R6 load(1, XDATA, add(CFA_XSP16, literal(-16)))
        CFI (cfiCond215) VB load(1, XDATA, add(CFA_XSP16, literal(-15)))
        CFI (cfiCond215) V0 load(1, XDATA, add(CFA_XSP16, literal(-14)))
        CFI (cfiCond215) V1 load(1, XDATA, add(CFA_XSP16, literal(-13)))
        CFI (cfiCond215) V2 load(1, XDATA, add(CFA_XSP16, literal(-12)))
        CFI (cfiCond215) V3 load(1, XDATA, add(CFA_XSP16, literal(-11)))
        CFI (cfiCond215) V4 load(1, XDATA, add(CFA_XSP16, literal(-10)))
        CFI (cfiCond215) V5 load(1, XDATA, add(CFA_XSP16, literal(-9)))
        CFI (cfiCond215) V6 load(1, XDATA, add(CFA_XSP16, literal(-8)))
        CFI (cfiCond215) V7 load(1, XDATA, add(CFA_XSP16, literal(-7)))
        CFI (cfiCond215) R7 load(1, XDATA, add(CFA_XSP16, literal(-6)))
        CFI (cfiCond215) ?RET_LOW load(1, XDATA, add(CFA_XSP16, literal(-5)))
        CFI (cfiCond215) ?RET_HIGH load(1, XDATA, add(CFA_XSP16, literal(-4)))
        CFI (cfiCond215) ?BRET_EXT load(1, XDATA, add(CFA_XSP16, literal(-3)))
        CFI (cfiCond215) DPL0 load(1, XDATA, add(CFA_XSP16, literal(-2)))
        CFI (cfiCond215) DPH0 load(1, XDATA, add(CFA_XSP16, literal(-1)))
        CFI (cfiCond215) CFA_SP SP+-1
        CFI (cfiCond215) CFA_XSP16 add(XSP16, 157)
        CFI Block cfiCond216 Using cfiCommon0
        CFI (cfiCond216) NoFunction
        CFI (cfiCond216) Conditional ??CrossCallReturnLabel_65, ??CrossCallReturnLabel_48
        CFI (cfiCond216) R6 load(1, XDATA, add(CFA_XSP16, literal(-16)))
        CFI (cfiCond216) VB load(1, XDATA, add(CFA_XSP16, literal(-15)))
        CFI (cfiCond216) V0 load(1, XDATA, add(CFA_XSP16, literal(-14)))
        CFI (cfiCond216) V1 load(1, XDATA, add(CFA_XSP16, literal(-13)))
        CFI (cfiCond216) V2 load(1, XDATA, add(CFA_XSP16, literal(-12)))
        CFI (cfiCond216) V3 load(1, XDATA, add(CFA_XSP16, literal(-11)))
        CFI (cfiCond216) V4 load(1, XDATA, add(CFA_XSP16, literal(-10)))
        CFI (cfiCond216) V5 load(1, XDATA, add(CFA_XSP16, literal(-9)))
        CFI (cfiCond216) V6 load(1, XDATA, add(CFA_XSP16, literal(-8)))
        CFI (cfiCond216) V7 load(1, XDATA, add(CFA_XSP16, literal(-7)))
        CFI (cfiCond216) R7 load(1, XDATA, add(CFA_XSP16, literal(-6)))
        CFI (cfiCond216) ?RET_LOW load(1, XDATA, add(CFA_XSP16, literal(-5)))
        CFI (cfiCond216) ?RET_HIGH load(1, XDATA, add(CFA_XSP16, literal(-4)))
        CFI (cfiCond216) ?BRET_EXT load(1, XDATA, add(CFA_XSP16, literal(-3)))
        CFI (cfiCond216) DPL0 load(1, XDATA, add(CFA_XSP16, literal(-2)))
        CFI (cfiCond216) DPH0 load(1, XDATA, add(CFA_XSP16, literal(-1)))
        CFI (cfiCond216) CFA_SP SP+-1
        CFI (cfiCond216) CFA_XSP16 add(XSP16, 157)
        CFI Block cfiPicker217 Using cfiCommon1
        CFI (cfiPicker217) NoFunction
        CFI (cfiPicker217) Picker
        MOV     A,DPL
        ADD     A,R0
        MOV     DPL,A
        MOV     A,DPH
        ADDC    A,R1
        MOV     DPH,A
        RET
        CFI EndBlock cfiCond211
        CFI EndBlock cfiCond212
        CFI EndBlock cfiCond213
        CFI EndBlock cfiCond214
        CFI EndBlock cfiCond215
        CFI EndBlock cfiCond216
        CFI EndBlock cfiPicker217

        RSEG BANKED_CODE:CODE:NOROOT(0)
?Subroutine9:
        CFI Block cfiCond218 Using cfiCommon0
        CFI NoFunction
        CFI Conditional ??CrossCallReturnLabel_108
        CFI R6 load(1, XDATA, add(CFA_XSP16, literal(-12)))
        CFI VB load(1, XDATA, add(CFA_XSP16, literal(-11)))
        CFI V0 load(1, XDATA, add(CFA_XSP16, literal(-10)))
        CFI V1 load(1, XDATA, add(CFA_XSP16, literal(-9)))
        CFI V2 load(1, XDATA, add(CFA_XSP16, literal(-8)))
        CFI V3 load(1, XDATA, add(CFA_XSP16, literal(-7)))
        CFI R7 load(1, XDATA, add(CFA_XSP16, literal(-6)))
        CFI ?RET_LOW load(1, XDATA, add(CFA_XSP16, literal(-5)))
        CFI ?RET_HIGH load(1, XDATA, add(CFA_XSP16, literal(-4)))
        CFI ?BRET_EXT load(1, XDATA, add(CFA_XSP16, literal(-3)))
        CFI DPL0 load(1, XDATA, add(CFA_XSP16, literal(-2)))
        CFI DPH0 load(1, XDATA, add(CFA_XSP16, literal(-1)))
        CFI CFA_SP SP+0
        CFI CFA_XSP16 add(XSP16, 12)
        CFI Block cfiCond219 Using cfiCommon0
        CFI (cfiCond219) NoFunction
        CFI (cfiCond219) Conditional ??CrossCallReturnLabel_109
        CFI (cfiCond219) R6 load(1, XDATA, add(CFA_XSP16, literal(-16)))
        CFI (cfiCond219) VB load(1, XDATA, add(CFA_XSP16, literal(-15)))
        CFI (cfiCond219) V0 load(1, XDATA, add(CFA_XSP16, literal(-14)))
        CFI (cfiCond219) V1 load(1, XDATA, add(CFA_XSP16, literal(-13)))
        CFI (cfiCond219) V2 load(1, XDATA, add(CFA_XSP16, literal(-12)))
        CFI (cfiCond219) V3 load(1, XDATA, add(CFA_XSP16, literal(-11)))
        CFI (cfiCond219) V4 load(1, XDATA, add(CFA_XSP16, literal(-10)))
        CFI (cfiCond219) V5 load(1, XDATA, add(CFA_XSP16, literal(-9)))
        CFI (cfiCond219) V6 load(1, XDATA, add(CFA_XSP16, literal(-8)))
        CFI (cfiCond219) V7 load(1, XDATA, add(CFA_XSP16, literal(-7)))
        CFI (cfiCond219) R7 load(1, XDATA, add(CFA_XSP16, literal(-6)))
        CFI (cfiCond219) ?RET_LOW load(1, XDATA, add(CFA_XSP16, literal(-5)))
        CFI (cfiCond219) ?RET_HIGH load(1, XDATA, add(CFA_XSP16, literal(-4)))
        CFI (cfiCond219) ?BRET_EXT load(1, XDATA, add(CFA_XSP16, literal(-3)))
        CFI (cfiCond219) DPL0 load(1, XDATA, add(CFA_XSP16, literal(-2)))
        CFI (cfiCond219) DPH0 load(1, XDATA, add(CFA_XSP16, literal(-1)))
        CFI (cfiCond219) CFA_SP SP+0
        CFI (cfiCond219) CFA_XSP16 add(XSP16, 157)
        CFI Block cfiPicker220 Using cfiCommon1
        CFI (cfiPicker220) NoFunction
        CFI (cfiPicker220) Picker
        MOV     A,R6
        ADD     A,#0x1f
        CFI EndBlock cfiCond218
        CFI EndBlock cfiCond219
        CFI EndBlock cfiPicker220
        REQUIRE ??Subroutine48_0
        ; // Fall through to label ??Subroutine48_0

        RSEG BANKED_CODE:CODE:NOROOT(0)
??Subroutine48_0:
        CFI Block cfiCond221 Using cfiCommon0
        CFI NoFunction
        CFI Conditional ??CrossCallReturnLabel_107
        CFI R6 load(1, XDATA, add(CFA_XSP16, literal(-16)))
        CFI VB load(1, XDATA, add(CFA_XSP16, literal(-15)))
        CFI V0 load(1, XDATA, add(CFA_XSP16, literal(-14)))
        CFI V1 load(1, XDATA, add(CFA_XSP16, literal(-13)))
        CFI V2 load(1, XDATA, add(CFA_XSP16, literal(-12)))
        CFI V3 load(1, XDATA, add(CFA_XSP16, literal(-11)))
        CFI V4 load(1, XDATA, add(CFA_XSP16, literal(-10)))
        CFI V5 load(1, XDATA, add(CFA_XSP16, literal(-9)))
        CFI V6 load(1, XDATA, add(CFA_XSP16, literal(-8)))
        CFI V7 load(1, XDATA, add(CFA_XSP16, literal(-7)))
        CFI R7 load(1, XDATA, add(CFA_XSP16, literal(-6)))
        CFI ?RET_LOW load(1, XDATA, add(CFA_XSP16, literal(-5)))
        CFI ?RET_HIGH load(1, XDATA, add(CFA_XSP16, literal(-4)))
        CFI ?BRET_EXT load(1, XDATA, add(CFA_XSP16, literal(-3)))
        CFI DPL0 load(1, XDATA, add(CFA_XSP16, literal(-2)))
        CFI DPH0 load(1, XDATA, add(CFA_XSP16, literal(-1)))
        CFI CFA_SP SP+0
        CFI CFA_XSP16 add(XSP16, 157)
        CFI Block cfiCond222 Using cfiCommon0
        CFI (cfiCond222) NoFunction
        CFI (cfiCond222) Conditional ??CrossCallReturnLabel_108
        CFI (cfiCond222) R6 load(1, XDATA, add(CFA_XSP16, literal(-12)))
        CFI (cfiCond222) VB load(1, XDATA, add(CFA_XSP16, literal(-11)))
        CFI (cfiCond222) V0 load(1, XDATA, add(CFA_XSP16, literal(-10)))
        CFI (cfiCond222) V1 load(1, XDATA, add(CFA_XSP16, literal(-9)))
        CFI (cfiCond222) V2 load(1, XDATA, add(CFA_XSP16, literal(-8)))
        CFI (cfiCond222) V3 load(1, XDATA, add(CFA_XSP16, literal(-7)))
        CFI (cfiCond222) R7 load(1, XDATA, add(CFA_XSP16, literal(-6)))
        CFI (cfiCond222) ?RET_LOW load(1, XDATA, add(CFA_XSP16, literal(-5)))
        CFI (cfiCond222) ?RET_HIGH load(1, XDATA, add(CFA_XSP16, literal(-4)))
        CFI (cfiCond222) ?BRET_EXT load(1, XDATA, add(CFA_XSP16, literal(-3)))
        CFI (cfiCond222) DPL0 load(1, XDATA, add(CFA_XSP16, literal(-2)))
        CFI (cfiCond222) DPH0 load(1, XDATA, add(CFA_XSP16, literal(-1)))
        CFI (cfiCond222) CFA_SP SP+0
        CFI (cfiCond222) CFA_XSP16 add(XSP16, 12)
        CFI Block cfiCond223 Using cfiCommon0
        CFI (cfiCond223) NoFunction
        CFI (cfiCond223) Conditional ??CrossCallReturnLabel_109
        CFI (cfiCond223) R6 load(1, XDATA, add(CFA_XSP16, literal(-16)))
        CFI (cfiCond223) VB load(1, XDATA, add(CFA_XSP16, literal(-15)))
        CFI (cfiCond223) V0 load(1, XDATA, add(CFA_XSP16, literal(-14)))
        CFI (cfiCond223) V1 load(1, XDATA, add(CFA_XSP16, literal(-13)))
        CFI (cfiCond223) V2 load(1, XDATA, add(CFA_XSP16, literal(-12)))
        CFI (cfiCond223) V3 load(1, XDATA, add(CFA_XSP16, literal(-11)))
        CFI (cfiCond223) V4 load(1, XDATA, add(CFA_XSP16, literal(-10)))
        CFI (cfiCond223) V5 load(1, XDATA, add(CFA_XSP16, literal(-9)))
        CFI (cfiCond223) V6 load(1, XDATA, add(CFA_XSP16, literal(-8)))
        CFI (cfiCond223) V7 load(1, XDATA, add(CFA_XSP16, literal(-7)))
        CFI (cfiCond223) R7 load(1, XDATA, add(CFA_XSP16, literal(-6)))
        CFI (cfiCond223) ?RET_LOW load(1, XDATA, add(CFA_XSP16, literal(-5)))
        CFI (cfiCond223) ?RET_HIGH load(1, XDATA, add(CFA_XSP16, literal(-4)))
        CFI (cfiCond223) ?BRET_EXT load(1, XDATA, add(CFA_XSP16, literal(-3)))
        CFI (cfiCond223) DPL0 load(1, XDATA, add(CFA_XSP16, literal(-2)))
        CFI (cfiCond223) DPH0 load(1, XDATA, add(CFA_XSP16, literal(-1)))
        CFI (cfiCond223) CFA_SP SP+0
        CFI (cfiCond223) CFA_XSP16 add(XSP16, 157)
        CFI Block cfiPicker224 Using cfiCommon1
        CFI (cfiPicker224) NoFunction
        CFI (cfiPicker224) Picker
        MOV     DPL,A
        MOV     A,R7
        CFI EndBlock cfiCond221
        CFI EndBlock cfiCond222
        CFI EndBlock cfiCond223
        CFI EndBlock cfiPicker224
        REQUIRE ??Subroutine49_0
        ; // Fall through to label ??Subroutine49_0

        RSEG BANKED_CODE:CODE:NOROOT(0)
??Subroutine49_0:
        CFI Block cfiCond225 Using cfiCommon0
        CFI NoFunction
        CFI Conditional ??CrossCallReturnLabel_105
        CFI DPL0 Frame(CFA_SP, 4)
        CFI DPH0 Frame(CFA_SP, 5)
        CFI CFA_SP SP+-5
        CFI CFA_XSP16 add(XSP16, 50)
        CFI Block cfiCond226 Using cfiCommon0
        CFI (cfiCond226) NoFunction
        CFI (cfiCond226) Conditional ??CrossCallReturnLabel_106
        CFI (cfiCond226) R6 load(1, XDATA, add(CFA_XSP16, literal(-16)))
        CFI (cfiCond226) VB load(1, XDATA, add(CFA_XSP16, literal(-15)))
        CFI (cfiCond226) V0 load(1, XDATA, add(CFA_XSP16, literal(-14)))
        CFI (cfiCond226) V1 load(1, XDATA, add(CFA_XSP16, literal(-13)))
        CFI (cfiCond226) V2 load(1, XDATA, add(CFA_XSP16, literal(-12)))
        CFI (cfiCond226) V3 load(1, XDATA, add(CFA_XSP16, literal(-11)))
        CFI (cfiCond226) V4 load(1, XDATA, add(CFA_XSP16, literal(-10)))
        CFI (cfiCond226) V5 load(1, XDATA, add(CFA_XSP16, literal(-9)))
        CFI (cfiCond226) V6 load(1, XDATA, add(CFA_XSP16, literal(-8)))
        CFI (cfiCond226) V7 load(1, XDATA, add(CFA_XSP16, literal(-7)))
        CFI (cfiCond226) R7 load(1, XDATA, add(CFA_XSP16, literal(-6)))
        CFI (cfiCond226) ?RET_LOW load(1, XDATA, add(CFA_XSP16, literal(-5)))
        CFI (cfiCond226) ?RET_HIGH load(1, XDATA, add(CFA_XSP16, literal(-4)))
        CFI (cfiCond226) ?BRET_EXT load(1, XDATA, add(CFA_XSP16, literal(-3)))
        CFI (cfiCond226) DPL0 load(1, XDATA, add(CFA_XSP16, literal(-2)))
        CFI (cfiCond226) DPH0 load(1, XDATA, add(CFA_XSP16, literal(-1)))
        CFI (cfiCond226) CFA_SP SP+0
        CFI (cfiCond226) CFA_XSP16 add(XSP16, 157)
        CFI Block cfiCond227 Using cfiCommon0
        CFI (cfiCond227) NoFunction
        CFI (cfiCond227) Conditional ??CrossCallReturnLabel_107
        CFI (cfiCond227) R6 load(1, XDATA, add(CFA_XSP16, literal(-16)))
        CFI (cfiCond227) VB load(1, XDATA, add(CFA_XSP16, literal(-15)))
        CFI (cfiCond227) V0 load(1, XDATA, add(CFA_XSP16, literal(-14)))
        CFI (cfiCond227) V1 load(1, XDATA, add(CFA_XSP16, literal(-13)))
        CFI (cfiCond227) V2 load(1, XDATA, add(CFA_XSP16, literal(-12)))
        CFI (cfiCond227) V3 load(1, XDATA, add(CFA_XSP16, literal(-11)))
        CFI (cfiCond227) V4 load(1, XDATA, add(CFA_XSP16, literal(-10)))
        CFI (cfiCond227) V5 load(1, XDATA, add(CFA_XSP16, literal(-9)))
        CFI (cfiCond227) V6 load(1, XDATA, add(CFA_XSP16, literal(-8)))
        CFI (cfiCond227) V7 load(1, XDATA, add(CFA_XSP16, literal(-7)))
        CFI (cfiCond227) R7 load(1, XDATA, add(CFA_XSP16, literal(-6)))
        CFI (cfiCond227) ?RET_LOW load(1, XDATA, add(CFA_XSP16, literal(-5)))
        CFI (cfiCond227) ?RET_HIGH load(1, XDATA, add(CFA_XSP16, literal(-4)))
        CFI (cfiCond227) ?BRET_EXT load(1, XDATA, add(CFA_XSP16, literal(-3)))
        CFI (cfiCond227) DPL0 load(1, XDATA, add(CFA_XSP16, literal(-2)))
        CFI (cfiCond227) DPH0 load(1, XDATA, add(CFA_XSP16, literal(-1)))
        CFI (cfiCond227) CFA_SP SP+0
        CFI (cfiCond227) CFA_XSP16 add(XSP16, 157)
        CFI Block cfiCond228 Using cfiCommon0
        CFI (cfiCond228) NoFunction
        CFI (cfiCond228) Conditional ??CrossCallReturnLabel_108
        CFI (cfiCond228) R6 load(1, XDATA, add(CFA_XSP16, literal(-12)))
        CFI (cfiCond228) VB load(1, XDATA, add(CFA_XSP16, literal(-11)))
        CFI (cfiCond228) V0 load(1, XDATA, add(CFA_XSP16, literal(-10)))
        CFI (cfiCond228) V1 load(1, XDATA, add(CFA_XSP16, literal(-9)))
        CFI (cfiCond228) V2 load(1, XDATA, add(CFA_XSP16, literal(-8)))
        CFI (cfiCond228) V3 load(1, XDATA, add(CFA_XSP16, literal(-7)))
        CFI (cfiCond228) R7 load(1, XDATA, add(CFA_XSP16, literal(-6)))
        CFI (cfiCond228) ?RET_LOW load(1, XDATA, add(CFA_XSP16, literal(-5)))
        CFI (cfiCond228) ?RET_HIGH load(1, XDATA, add(CFA_XSP16, literal(-4)))
        CFI (cfiCond228) ?BRET_EXT load(1, XDATA, add(CFA_XSP16, literal(-3)))
        CFI (cfiCond228) DPL0 load(1, XDATA, add(CFA_XSP16, literal(-2)))
        CFI (cfiCond228) DPH0 load(1, XDATA, add(CFA_XSP16, literal(-1)))
        CFI (cfiCond228) CFA_SP SP+0
        CFI (cfiCond228) CFA_XSP16 add(XSP16, 12)
        CFI Block cfiCond229 Using cfiCommon0
        CFI (cfiCond229) NoFunction
        CFI (cfiCond229) Conditional ??CrossCallReturnLabel_109
        CFI (cfiCond229) R6 load(1, XDATA, add(CFA_XSP16, literal(-16)))
        CFI (cfiCond229) VB load(1, XDATA, add(CFA_XSP16, literal(-15)))
        CFI (cfiCond229) V0 load(1, XDATA, add(CFA_XSP16, literal(-14)))
        CFI (cfiCond229) V1 load(1, XDATA, add(CFA_XSP16, literal(-13)))
        CFI (cfiCond229) V2 load(1, XDATA, add(CFA_XSP16, literal(-12)))
        CFI (cfiCond229) V3 load(1, XDATA, add(CFA_XSP16, literal(-11)))
        CFI (cfiCond229) V4 load(1, XDATA, add(CFA_XSP16, literal(-10)))
        CFI (cfiCond229) V5 load(1, XDATA, add(CFA_XSP16, literal(-9)))
        CFI (cfiCond229) V6 load(1, XDATA, add(CFA_XSP16, literal(-8)))
        CFI (cfiCond229) V7 load(1, XDATA, add(CFA_XSP16, literal(-7)))
        CFI (cfiCond229) R7 load(1, XDATA, add(CFA_XSP16, literal(-6)))
        CFI (cfiCond229) ?RET_LOW load(1, XDATA, add(CFA_XSP16, literal(-5)))
        CFI (cfiCond229) ?RET_HIGH load(1, XDATA, add(CFA_XSP16, literal(-4)))
        CFI (cfiCond229) ?BRET_EXT load(1, XDATA, add(CFA_XSP16, literal(-3)))
        CFI (cfiCond229) DPL0 load(1, XDATA, add(CFA_XSP16, literal(-2)))
        CFI (cfiCond229) DPH0 load(1, XDATA, add(CFA_XSP16, literal(-1)))
        CFI (cfiCond229) CFA_SP SP+0
        CFI (cfiCond229) CFA_XSP16 add(XSP16, 157)
        CFI Block cfiPicker230 Using cfiCommon1
        CFI (cfiPicker230) NoFunction
        CFI (cfiPicker230) Picker
        ADDC    A,#0x0
        MOV     DPH,A
        MOVX    A,@DPTR
        RET
        CFI EndBlock cfiCond225
        CFI EndBlock cfiCond226
        CFI EndBlock cfiCond227
        CFI EndBlock cfiCond228
        CFI EndBlock cfiCond229
        CFI EndBlock cfiPicker230

        RSEG BANKED_CODE:CODE:NOROOT(0)
?Subroutine6:
        CFI Block cfiCond231 Using cfiCommon0
        CFI NoFunction
        CFI Conditional ??CrossCallReturnLabel_8
        CFI DPL0 Frame(CFA_SP, 4)
        CFI DPH0 Frame(CFA_SP, 5)
        CFI CFA_SP SP+-5
        CFI CFA_XSP16 add(XSP16, 50)
        CFI Block cfiCond232 Using cfiCommon0
        CFI (cfiCond232) NoFunction
        CFI (cfiCond232) Conditional ??CrossCallReturnLabel_9
        CFI (cfiCond232) R6 load(1, XDATA, add(CFA_XSP16, literal(-16)))
        CFI (cfiCond232) VB load(1, XDATA, add(CFA_XSP16, literal(-15)))
        CFI (cfiCond232) V0 load(1, XDATA, add(CFA_XSP16, literal(-14)))
        CFI (cfiCond232) V1 load(1, XDATA, add(CFA_XSP16, literal(-13)))
        CFI (cfiCond232) V2 load(1, XDATA, add(CFA_XSP16, literal(-12)))
        CFI (cfiCond232) V3 load(1, XDATA, add(CFA_XSP16, literal(-11)))
        CFI (cfiCond232) V4 load(1, XDATA, add(CFA_XSP16, literal(-10)))
        CFI (cfiCond232) V5 load(1, XDATA, add(CFA_XSP16, literal(-9)))
        CFI (cfiCond232) V6 load(1, XDATA, add(CFA_XSP16, literal(-8)))
        CFI (cfiCond232) V7 load(1, XDATA, add(CFA_XSP16, literal(-7)))
        CFI (cfiCond232) R7 load(1, XDATA, add(CFA_XSP16, literal(-6)))
        CFI (cfiCond232) ?RET_LOW load(1, XDATA, add(CFA_XSP16, literal(-5)))
        CFI (cfiCond232) ?RET_HIGH load(1, XDATA, add(CFA_XSP16, literal(-4)))
        CFI (cfiCond232) ?BRET_EXT load(1, XDATA, add(CFA_XSP16, literal(-3)))
        CFI (cfiCond232) DPL0 load(1, XDATA, add(CFA_XSP16, literal(-2)))
        CFI (cfiCond232) DPH0 load(1, XDATA, add(CFA_XSP16, literal(-1)))
        CFI (cfiCond232) CFA_SP SP+0
        CFI (cfiCond232) CFA_XSP16 add(XSP16, 157)
        CFI Block cfiCond233 Using cfiCommon0
        CFI (cfiCond233) NoFunction
        CFI (cfiCond233) Conditional ??CrossCallReturnLabel_10
        CFI (cfiCond233) R6 load(1, XDATA, add(CFA_XSP16, literal(-16)))
        CFI (cfiCond233) VB load(1, XDATA, add(CFA_XSP16, literal(-15)))
        CFI (cfiCond233) V0 load(1, XDATA, add(CFA_XSP16, literal(-14)))
        CFI (cfiCond233) V1 load(1, XDATA, add(CFA_XSP16, literal(-13)))
        CFI (cfiCond233) V2 load(1, XDATA, add(CFA_XSP16, literal(-12)))
        CFI (cfiCond233) V3 load(1, XDATA, add(CFA_XSP16, literal(-11)))
        CFI (cfiCond233) V4 load(1, XDATA, add(CFA_XSP16, literal(-10)))
        CFI (cfiCond233) V5 load(1, XDATA, add(CFA_XSP16, literal(-9)))
        CFI (cfiCond233) V6 load(1, XDATA, add(CFA_XSP16, literal(-8)))
        CFI (cfiCond233) V7 load(1, XDATA, add(CFA_XSP16, literal(-7)))
        CFI (cfiCond233) R7 load(1, XDATA, add(CFA_XSP16, literal(-6)))
        CFI (cfiCond233) ?RET_LOW load(1, XDATA, add(CFA_XSP16, literal(-5)))
        CFI (cfiCond233) ?RET_HIGH load(1, XDATA, add(CFA_XSP16, literal(-4)))
        CFI (cfiCond233) ?BRET_EXT load(1, XDATA, add(CFA_XSP16, literal(-3)))
        CFI (cfiCond233) DPL0 load(1, XDATA, add(CFA_XSP16, literal(-2)))
        CFI (cfiCond233) DPH0 load(1, XDATA, add(CFA_XSP16, literal(-1)))
        CFI (cfiCond233) CFA_SP SP+0
        CFI (cfiCond233) CFA_XSP16 add(XSP16, 157)
        CFI Block cfiPicker234 Using cfiCommon1
        CFI (cfiPicker234) NoFunction
        CFI (cfiPicker234) Picker
        MOVX    @DPTR,A
        MOV     A,R0
        ADD     A,#0x1
        INC     R0
        MOV     A,R1
        ADDC    A,#0x0
        MOV     R1,A
        CLR     C
        MOV     A,R0
        RET
        CFI EndBlock cfiCond231
        CFI EndBlock cfiCond232
        CFI EndBlock cfiCond233
        CFI EndBlock cfiPicker234
//  861  

        RSEG BANKED_CODE:CODE:NOROOT(0)
//  862  void SHIR_Sending(uint8 *Sendcode35,uint8 *Sendcode32)
SHIR_Sending:
        CFI Block cfiBlock235 Using cfiCommon0
        CFI Function SHIR_Sending
        CODE
//  863  {
        FUNCALL SHIR_Sending, SHIRSendDelay_10us
        LOCFRAME ISTACK, 0, STACK
        LOCFRAME PSTACK, 0, STACK
        LOCFRAME XSTACK, 12, STACK
        LOCFRAME IOVERLAY, 0, STATIC
        LOCFRAME DOVERLAY, 0, STATIC
        ARGFRAME ISTACK, 0, STACK
        ARGFRAME PSTACK, 0, STACK
        ARGFRAME XSTACK, 12, STACK
        ARGFRAME IOVERLAY, 0, STATIC
        ARGFRAME DOVERLAY, 0, STATIC
        FUNCALL SHIR_Sending, SHIRSendDelay_10us
        LOCFRAME ISTACK, 0, STACK
        LOCFRAME PSTACK, 0, STACK
        LOCFRAME XSTACK, 12, STACK
        LOCFRAME IOVERLAY, 0, STATIC
        LOCFRAME DOVERLAY, 0, STATIC
        ARGFRAME ISTACK, 0, STACK
        ARGFRAME PSTACK, 0, STACK
        ARGFRAME XSTACK, 12, STACK
        ARGFRAME IOVERLAY, 0, STATIC
        ARGFRAME DOVERLAY, 0, STATIC
        FUNCALL SHIR_Sending, SHIRSendDelay_10us
        LOCFRAME ISTACK, 0, STACK
        LOCFRAME PSTACK, 0, STACK
        LOCFRAME XSTACK, 12, STACK
        LOCFRAME IOVERLAY, 0, STATIC
        LOCFRAME DOVERLAY, 0, STATIC
        ARGFRAME ISTACK, 0, STACK
        ARGFRAME PSTACK, 0, STACK
        ARGFRAME XSTACK, 12, STACK
        ARGFRAME IOVERLAY, 0, STATIC
        ARGFRAME DOVERLAY, 0, STATIC
        FUNCALL SHIR_Sending, SHIRSendDelay_10us
        LOCFRAME ISTACK, 0, STACK
        LOCFRAME PSTACK, 0, STACK
        LOCFRAME XSTACK, 12, STACK
        LOCFRAME IOVERLAY, 0, STATIC
        LOCFRAME DOVERLAY, 0, STATIC
        ARGFRAME ISTACK, 0, STACK
        ARGFRAME PSTACK, 0, STACK
        ARGFRAME XSTACK, 12, STACK
        ARGFRAME IOVERLAY, 0, STATIC
        ARGFRAME DOVERLAY, 0, STATIC
        FUNCALL SHIR_Sending, SHIRSendDelay_10us
        LOCFRAME ISTACK, 0, STACK
        LOCFRAME PSTACK, 0, STACK
        LOCFRAME XSTACK, 12, STACK
        LOCFRAME IOVERLAY, 0, STATIC
        LOCFRAME DOVERLAY, 0, STATIC
        ARGFRAME ISTACK, 0, STACK
        ARGFRAME PSTACK, 0, STACK
        ARGFRAME XSTACK, 12, STACK
        ARGFRAME IOVERLAY, 0, STATIC
        ARGFRAME DOVERLAY, 0, STATIC
        FUNCALL SHIR_Sending, SHIRSendDelay_10us
        LOCFRAME ISTACK, 0, STACK
        LOCFRAME PSTACK, 0, STACK
        LOCFRAME XSTACK, 12, STACK
        LOCFRAME IOVERLAY, 0, STATIC
        LOCFRAME DOVERLAY, 0, STATIC
        ARGFRAME ISTACK, 0, STACK
        ARGFRAME PSTACK, 0, STACK
        ARGFRAME XSTACK, 12, STACK
        ARGFRAME IOVERLAY, 0, STATIC
        ARGFRAME DOVERLAY, 0, STATIC
        FUNCALL SHIR_Sending, SHIRSendDelay_10us
        LOCFRAME ISTACK, 0, STACK
        LOCFRAME PSTACK, 0, STACK
        LOCFRAME XSTACK, 12, STACK
        LOCFRAME IOVERLAY, 0, STATIC
        LOCFRAME DOVERLAY, 0, STATIC
        ARGFRAME ISTACK, 0, STACK
        ARGFRAME PSTACK, 0, STACK
        ARGFRAME XSTACK, 12, STACK
        ARGFRAME IOVERLAY, 0, STATIC
        ARGFRAME DOVERLAY, 0, STATIC
        FUNCALL SHIR_Sending, SHIRSendDelay_10us
        LOCFRAME ISTACK, 0, STACK
        LOCFRAME PSTACK, 0, STACK
        LOCFRAME XSTACK, 12, STACK
        LOCFRAME IOVERLAY, 0, STATIC
        LOCFRAME DOVERLAY, 0, STATIC
        ARGFRAME ISTACK, 0, STACK
        ARGFRAME PSTACK, 0, STACK
        ARGFRAME XSTACK, 12, STACK
        ARGFRAME IOVERLAY, 0, STATIC
        ARGFRAME DOVERLAY, 0, STATIC
        FUNCALL SHIR_Sending, SHIRSendDelay_10us
        LOCFRAME ISTACK, 0, STACK
        LOCFRAME PSTACK, 0, STACK
        LOCFRAME XSTACK, 12, STACK
        LOCFRAME IOVERLAY, 0, STATIC
        LOCFRAME DOVERLAY, 0, STATIC
        ARGFRAME ISTACK, 0, STACK
        ARGFRAME PSTACK, 0, STACK
        ARGFRAME XSTACK, 12, STACK
        ARGFRAME IOVERLAY, 0, STATIC
        ARGFRAME DOVERLAY, 0, STATIC
        FUNCALL SHIR_Sending, SHIRSendDelay_10us
        LOCFRAME ISTACK, 0, STACK
        LOCFRAME PSTACK, 0, STACK
        LOCFRAME XSTACK, 12, STACK
        LOCFRAME IOVERLAY, 0, STATIC
        LOCFRAME DOVERLAY, 0, STATIC
        ARGFRAME ISTACK, 0, STACK
        ARGFRAME PSTACK, 0, STACK
        ARGFRAME XSTACK, 12, STACK
        ARGFRAME IOVERLAY, 0, STATIC
        ARGFRAME DOVERLAY, 0, STATIC
        FUNCALL SHIR_Sending, SHIRSendDelay_10us
        LOCFRAME ISTACK, 0, STACK
        LOCFRAME PSTACK, 0, STACK
        LOCFRAME XSTACK, 12, STACK
        LOCFRAME IOVERLAY, 0, STATIC
        LOCFRAME DOVERLAY, 0, STATIC
        ARGFRAME ISTACK, 0, STACK
        ARGFRAME PSTACK, 0, STACK
        ARGFRAME XSTACK, 12, STACK
        ARGFRAME IOVERLAY, 0, STATIC
        ARGFRAME DOVERLAY, 0, STATIC
        FUNCALL SHIR_Sending, SHIRSendDelay_10us
        LOCFRAME ISTACK, 0, STACK
        LOCFRAME PSTACK, 0, STACK
        LOCFRAME XSTACK, 12, STACK
        LOCFRAME IOVERLAY, 0, STATIC
        LOCFRAME DOVERLAY, 0, STATIC
        ARGFRAME ISTACK, 0, STACK
        ARGFRAME PSTACK, 0, STACK
        ARGFRAME XSTACK, 12, STACK
        ARGFRAME IOVERLAY, 0, STATIC
        ARGFRAME DOVERLAY, 0, STATIC
        FUNCALL SHIR_Sending, SHIRSendDelay_10us
        LOCFRAME ISTACK, 0, STACK
        LOCFRAME PSTACK, 0, STACK
        LOCFRAME XSTACK, 12, STACK
        LOCFRAME IOVERLAY, 0, STATIC
        LOCFRAME DOVERLAY, 0, STATIC
        ARGFRAME ISTACK, 0, STACK
        ARGFRAME PSTACK, 0, STACK
        ARGFRAME XSTACK, 12, STACK
        ARGFRAME IOVERLAY, 0, STATIC
        ARGFRAME DOVERLAY, 0, STATIC
        MOV     A,#-0xc
        LCALL   ?BANKED_ENTER_XDATA
        CFI DPH0 load(1, XDATA, add(CFA_XSP16, literal(-1)))
        CFI DPL0 load(1, XDATA, add(CFA_XSP16, literal(-2)))
        CFI ?BRET_EXT load(1, XDATA, add(CFA_XSP16, literal(-3)))
        CFI ?RET_HIGH load(1, XDATA, add(CFA_XSP16, literal(-4)))
        CFI ?RET_LOW load(1, XDATA, add(CFA_XSP16, literal(-5)))
        CFI R7 load(1, XDATA, add(CFA_XSP16, literal(-6)))
        CFI V3 load(1, XDATA, add(CFA_XSP16, literal(-7)))
        CFI V2 load(1, XDATA, add(CFA_XSP16, literal(-8)))
        CFI V1 load(1, XDATA, add(CFA_XSP16, literal(-9)))
        CFI V0 load(1, XDATA, add(CFA_XSP16, literal(-10)))
        CFI VB load(1, XDATA, add(CFA_XSP16, literal(-11)))
        CFI R6 load(1, XDATA, add(CFA_XSP16, literal(-12)))
        CFI CFA_SP SP+0
        CFI CFA_XSP16 add(XSP16, 12)
        ; Saved register size: 12
        ; Auto size: 0
        MOV     ?V0 + 0,R2
        MOV     ?V0 + 1,R3
        MOV     ?V0 + 2,R4
        MOV     ?V0 + 3,R5
//  864 
//  865       uint16 i=0;	
//  866 	
//  867 	SHIRSendPin = 1;
        SETB    0x80.7
//  868    	T1IE = 1;
        SETB    0xb8.1
//  869 	SHIRSendDelay_10us(6800);
        ; Setup parameters for call to function SHIRSendDelay_10us
        MOV     R2,#-0x70
        MOV     R3,#0x1a
        LCALL   ??SHIRSendDelay_10us?relay
//  870 	T1IE = 0;	
        CLR     0xb8.1
//  871 	SHIRSendPin = 1;
        SETB    0x80.7
//  872 	SHIRSendDelay_10us(3850);
        ; Setup parameters for call to function SHIRSendDelay_10us
        MOV     R2,#0xa
        MOV     R3,#0xf
        LCALL   ??SHIRSendDelay_10us?relay
//  873 
//  874 	for(i=0;i<35;i++)//发送地址码两个字节 先发低位
        MOV     R6,#0x0
        MOV     R7,#0x0
//  875 	{
//  876 		if(Sendcode35[i] == '1')					//发射逻辑1
??SHIR_Sending_0:
        MOV     A,?V0 + 0
        ADD     A,R6
        MOV     DPL,A
        MOV     A,?V0 + 1
        LCALL   ?Subroutine19 & 0xFFFF
??CrossCallReturnLabel_27:
        JNZ     ??SHIR_Sending_1
//  877 		{
//  878 			SHIRSendPin = 1;	
        LCALL   ?Subroutine28 & 0xFFFF
//  879 			T1IE = 1;	//打开中断和T3中断
//  880 			SHIRSendDelay_10us(450);
//  881 
//  882 			SHIRSendPin = 1;
//  883 			T1IE = 0;
//  884 			SHIRSendDelay_10us(1420);
//  885 		}
??CrossCallReturnLabel_49:
        SJMP    ??CrossCallReturnLabel_51
//  886 		else						//发射逻辑0
//  887 		{
//  888 			SHIRSendPin = 1;
??SHIR_Sending_1:
        LCALL   ?Subroutine29 & 0xFFFF
//  889 			T1IE = 1;
//  890 			SHIRSendDelay_10us(450);
//  891 
//  892 			SHIRSendPin = 1;
//  893 			T1IE = 0;
//  894 			SHIRSendDelay_10us(450);					
//  895 		}
//  896 	}
??CrossCallReturnLabel_51:
        LCALL   ?Subroutine10 & 0xFFFF
??CrossCallReturnLabel_11:
        SUBB    A,#0x23
        MOV     A,R7
        SUBB    A,#0x0
        JC      ??SHIR_Sending_0
//  897         for(i=0;i<1;i++)//发送地址码两个字节 先发低位
//  898         {
//  899         	SHIRSendPin = 1;	
        SETB    0x80.7
//  900              T1IE = 1;
        SETB    0xb8.1
//  901 		SHIRSendDelay_10us(450);
        ; Setup parameters for call to function SHIRSendDelay_10us
        MOV     R2,#-0x3e
        MOV     R3,#0x1
        LCALL   ?Subroutine34 & 0xFFFF
//  902 		
//  903 		SHIRSendPin = 1;
//  904 		T1IE = 0;
//  905 		SHIRSendDelay_10us(17000);
??CrossCallReturnLabel_61:
        ; Setup parameters for call to function SHIRSendDelay_10us
        MOV     R2,#0x68
        MOV     R3,#0x42
        LCALL   ??SHIRSendDelay_10us?relay
//  906         }
//  907 	for(i=0;i<32;i++)//发送指令码两个字节 先发低位
        MOV     R6,#0x0
        MOV     R7,#0x0
//  908 	{
//  909 		if(Sendcode32[i] == '1')					//发射逻辑1
??SHIR_Sending_2:
        MOV     A,?V0 + 2
        ADD     A,R6
        MOV     DPL,A
        MOV     A,?V0 + 3
        LCALL   ?Subroutine19 & 0xFFFF
??CrossCallReturnLabel_28:
        JNZ     ??SHIR_Sending_3
//  910 		{
//  911 			SHIRSendPin = 1;	
        LCALL   ?Subroutine28 & 0xFFFF
//  912 			T1IE = 1;
//  913 			SHIRSendDelay_10us(450);
//  914 			
//  915 			SHIRSendPin = 1;
//  916 			T1IE = 0;
//  917 			SHIRSendDelay_10us(1420);
//  918 		}
??CrossCallReturnLabel_50:
        SJMP    ??CrossCallReturnLabel_52
//  919 		else						//发射逻辑0
//  920 		{
//  921 			SHIRSendPin = 1;	
??SHIR_Sending_3:
        LCALL   ?Subroutine29 & 0xFFFF
//  922 			T1IE = 1;
//  923 			SHIRSendDelay_10us(450);
//  924 			
//  925 			SHIRSendPin = 1;
//  926 			T1IE = 0;
//  927 			SHIRSendDelay_10us(450);					
//  928 		}
//  929 	}	
??CrossCallReturnLabel_52:
        LCALL   ?Subroutine10 & 0xFFFF
??CrossCallReturnLabel_12:
        SUBB    A,#0x20
        MOV     A,R7
        SUBB    A,#0x0
        JC      ??SHIR_Sending_2
//  930 	
//  931 	SHIRSendPin = 1;	
        SETB    0x80.7
//  932 	T1IE = 1;
        SETB    0xb8.1
//  933 	SHIRSendDelay_10us(450);	//协议尾
        ; Setup parameters for call to function SHIRSendDelay_10us
        MOV     R2,#-0x3e
        MOV     R3,#0x1
        LCALL   ??SHIRSendDelay_10us?relay
//  934 	T1IE = 0;   
        CLR     0xb8.1
//  935 	SHIRSendPin = 0;	
        CLR     0x80.7
//  936 }
        LJMP    ?Subroutine2 & 0xFFFF
        CFI EndBlock cfiBlock235
        REQUIRE _A_P0
        REQUIRE _A_IEN1

        RSEG BANKED_CODE:CODE:NOROOT(0)
?Subroutine29:
        CFI Block cfiCond236 Using cfiCommon0
        CFI NoFunction
        CFI Conditional ??CrossCallReturnLabel_51
        CFI R6 load(1, XDATA, add(CFA_XSP16, literal(-12)))
        CFI VB load(1, XDATA, add(CFA_XSP16, literal(-11)))
        CFI V0 load(1, XDATA, add(CFA_XSP16, literal(-10)))
        CFI V1 load(1, XDATA, add(CFA_XSP16, literal(-9)))
        CFI V2 load(1, XDATA, add(CFA_XSP16, literal(-8)))
        CFI V3 load(1, XDATA, add(CFA_XSP16, literal(-7)))
        CFI R7 load(1, XDATA, add(CFA_XSP16, literal(-6)))
        CFI ?RET_LOW load(1, XDATA, add(CFA_XSP16, literal(-5)))
        CFI ?RET_HIGH load(1, XDATA, add(CFA_XSP16, literal(-4)))
        CFI ?BRET_EXT load(1, XDATA, add(CFA_XSP16, literal(-3)))
        CFI DPL0 load(1, XDATA, add(CFA_XSP16, literal(-2)))
        CFI DPH0 load(1, XDATA, add(CFA_XSP16, literal(-1)))
        CFI CFA_SP SP+0
        CFI CFA_XSP16 add(XSP16, 12)
        CFI Block cfiCond237 Using cfiCommon0
        CFI (cfiCond237) NoFunction
        CFI (cfiCond237) Conditional ??CrossCallReturnLabel_52
        CFI (cfiCond237) R6 load(1, XDATA, add(CFA_XSP16, literal(-12)))
        CFI (cfiCond237) VB load(1, XDATA, add(CFA_XSP16, literal(-11)))
        CFI (cfiCond237) V0 load(1, XDATA, add(CFA_XSP16, literal(-10)))
        CFI (cfiCond237) V1 load(1, XDATA, add(CFA_XSP16, literal(-9)))
        CFI (cfiCond237) V2 load(1, XDATA, add(CFA_XSP16, literal(-8)))
        CFI (cfiCond237) V3 load(1, XDATA, add(CFA_XSP16, literal(-7)))
        CFI (cfiCond237) R7 load(1, XDATA, add(CFA_XSP16, literal(-6)))
        CFI (cfiCond237) ?RET_LOW load(1, XDATA, add(CFA_XSP16, literal(-5)))
        CFI (cfiCond237) ?RET_HIGH load(1, XDATA, add(CFA_XSP16, literal(-4)))
        CFI (cfiCond237) ?BRET_EXT load(1, XDATA, add(CFA_XSP16, literal(-3)))
        CFI (cfiCond237) DPL0 load(1, XDATA, add(CFA_XSP16, literal(-2)))
        CFI (cfiCond237) DPH0 load(1, XDATA, add(CFA_XSP16, literal(-1)))
        CFI (cfiCond237) CFA_SP SP+0
        CFI (cfiCond237) CFA_XSP16 add(XSP16, 12)
        CFI Block cfiPicker238 Using cfiCommon1
        CFI (cfiPicker238) NoFunction
        CFI (cfiPicker238) Picker
        LCALL   ?Subroutine34 & 0xFFFF
??CrossCallReturnLabel_62:
        ; Setup parameters for call to function SHIRSendDelay_10us
        ; Setup parameters for call to function SHIRSendDelay_10us
        MOV     R2,#-0x3e
        MOV     R3,#0x1
        RET
        CFI EndBlock cfiCond236
        CFI EndBlock cfiCond237
        CFI EndBlock cfiPicker238

        RSEG BANKED_CODE:CODE:NOROOT(0)
?Subroutine34:
        CFI Block cfiCond239 Using cfiCommon0
        CFI NoFunction
        CFI Conditional ??CrossCallReturnLabel_61
        CFI R6 load(1, XDATA, add(CFA_XSP16, literal(-12)))
        CFI VB load(1, XDATA, add(CFA_XSP16, literal(-11)))
        CFI V0 load(1, XDATA, add(CFA_XSP16, literal(-10)))
        CFI V1 load(1, XDATA, add(CFA_XSP16, literal(-9)))
        CFI V2 load(1, XDATA, add(CFA_XSP16, literal(-8)))
        CFI V3 load(1, XDATA, add(CFA_XSP16, literal(-7)))
        CFI R7 load(1, XDATA, add(CFA_XSP16, literal(-6)))
        CFI ?RET_LOW load(1, XDATA, add(CFA_XSP16, literal(-5)))
        CFI ?RET_HIGH load(1, XDATA, add(CFA_XSP16, literal(-4)))
        CFI ?BRET_EXT load(1, XDATA, add(CFA_XSP16, literal(-3)))
        CFI DPL0 load(1, XDATA, add(CFA_XSP16, literal(-2)))
        CFI DPH0 load(1, XDATA, add(CFA_XSP16, literal(-1)))
        CFI CFA_SP SP+0
        CFI CFA_XSP16 add(XSP16, 12)
        CFI Block cfiCond240 Using cfiCommon0
        CFI (cfiCond240) NoFunction
        CFI (cfiCond240) Conditional ??CrossCallReturnLabel_62, ??CrossCallReturnLabel_51
        CFI (cfiCond240) R6 load(1, XDATA, add(CFA_XSP16, literal(-12)))
        CFI (cfiCond240) VB load(1, XDATA, add(CFA_XSP16, literal(-11)))
        CFI (cfiCond240) V0 load(1, XDATA, add(CFA_XSP16, literal(-10)))
        CFI (cfiCond240) V1 load(1, XDATA, add(CFA_XSP16, literal(-9)))
        CFI (cfiCond240) V2 load(1, XDATA, add(CFA_XSP16, literal(-8)))
        CFI (cfiCond240) V3 load(1, XDATA, add(CFA_XSP16, literal(-7)))
        CFI (cfiCond240) R7 load(1, XDATA, add(CFA_XSP16, literal(-6)))
        CFI (cfiCond240) ?RET_LOW load(1, XDATA, add(CFA_XSP16, literal(-5)))
        CFI (cfiCond240) ?RET_HIGH load(1, XDATA, add(CFA_XSP16, literal(-4)))
        CFI (cfiCond240) ?BRET_EXT load(1, XDATA, add(CFA_XSP16, literal(-3)))
        CFI (cfiCond240) DPL0 load(1, XDATA, add(CFA_XSP16, literal(-2)))
        CFI (cfiCond240) DPH0 load(1, XDATA, add(CFA_XSP16, literal(-1)))
        CFI (cfiCond240) CFA_SP SP+0
        CFI (cfiCond240) CFA_XSP16 add(XSP16, 12)
        CFI Block cfiCond241 Using cfiCommon0
        CFI (cfiCond241) NoFunction
        CFI (cfiCond241) Conditional ??CrossCallReturnLabel_62, ??CrossCallReturnLabel_52
        CFI (cfiCond241) R6 load(1, XDATA, add(CFA_XSP16, literal(-12)))
        CFI (cfiCond241) VB load(1, XDATA, add(CFA_XSP16, literal(-11)))
        CFI (cfiCond241) V0 load(1, XDATA, add(CFA_XSP16, literal(-10)))
        CFI (cfiCond241) V1 load(1, XDATA, add(CFA_XSP16, literal(-9)))
        CFI (cfiCond241) V2 load(1, XDATA, add(CFA_XSP16, literal(-8)))
        CFI (cfiCond241) V3 load(1, XDATA, add(CFA_XSP16, literal(-7)))
        CFI (cfiCond241) R7 load(1, XDATA, add(CFA_XSP16, literal(-6)))
        CFI (cfiCond241) ?RET_LOW load(1, XDATA, add(CFA_XSP16, literal(-5)))
        CFI (cfiCond241) ?RET_HIGH load(1, XDATA, add(CFA_XSP16, literal(-4)))
        CFI (cfiCond241) ?BRET_EXT load(1, XDATA, add(CFA_XSP16, literal(-3)))
        CFI (cfiCond241) DPL0 load(1, XDATA, add(CFA_XSP16, literal(-2)))
        CFI (cfiCond241) DPH0 load(1, XDATA, add(CFA_XSP16, literal(-1)))
        CFI (cfiCond241) CFA_SP SP+0
        CFI (cfiCond241) CFA_XSP16 add(XSP16, 12)
        CFI Block cfiCond242 Using cfiCommon0
        CFI (cfiCond242) NoFunction
        CFI (cfiCond242) Conditional ??CrossCallReturnLabel_63, ??CrossCallReturnLabel_49
        CFI (cfiCond242) R6 load(1, XDATA, add(CFA_XSP16, literal(-12)))
        CFI (cfiCond242) VB load(1, XDATA, add(CFA_XSP16, literal(-11)))
        CFI (cfiCond242) V0 load(1, XDATA, add(CFA_XSP16, literal(-10)))
        CFI (cfiCond242) V1 load(1, XDATA, add(CFA_XSP16, literal(-9)))
        CFI (cfiCond242) V2 load(1, XDATA, add(CFA_XSP16, literal(-8)))
        CFI (cfiCond242) V3 load(1, XDATA, add(CFA_XSP16, literal(-7)))
        CFI (cfiCond242) R7 load(1, XDATA, add(CFA_XSP16, literal(-6)))
        CFI (cfiCond242) ?RET_LOW load(1, XDATA, add(CFA_XSP16, literal(-5)))
        CFI (cfiCond242) ?RET_HIGH load(1, XDATA, add(CFA_XSP16, literal(-4)))
        CFI (cfiCond242) ?BRET_EXT load(1, XDATA, add(CFA_XSP16, literal(-3)))
        CFI (cfiCond242) DPL0 load(1, XDATA, add(CFA_XSP16, literal(-2)))
        CFI (cfiCond242) DPH0 load(1, XDATA, add(CFA_XSP16, literal(-1)))
        CFI (cfiCond242) CFA_SP SP+0
        CFI (cfiCond242) CFA_XSP16 add(XSP16, 12)
        CFI Block cfiCond243 Using cfiCommon0
        CFI (cfiCond243) NoFunction
        CFI (cfiCond243) Conditional ??CrossCallReturnLabel_63, ??CrossCallReturnLabel_50
        CFI (cfiCond243) R6 load(1, XDATA, add(CFA_XSP16, literal(-12)))
        CFI (cfiCond243) VB load(1, XDATA, add(CFA_XSP16, literal(-11)))
        CFI (cfiCond243) V0 load(1, XDATA, add(CFA_XSP16, literal(-10)))
        CFI (cfiCond243) V1 load(1, XDATA, add(CFA_XSP16, literal(-9)))
        CFI (cfiCond243) V2 load(1, XDATA, add(CFA_XSP16, literal(-8)))
        CFI (cfiCond243) V3 load(1, XDATA, add(CFA_XSP16, literal(-7)))
        CFI (cfiCond243) R7 load(1, XDATA, add(CFA_XSP16, literal(-6)))
        CFI (cfiCond243) ?RET_LOW load(1, XDATA, add(CFA_XSP16, literal(-5)))
        CFI (cfiCond243) ?RET_HIGH load(1, XDATA, add(CFA_XSP16, literal(-4)))
        CFI (cfiCond243) ?BRET_EXT load(1, XDATA, add(CFA_XSP16, literal(-3)))
        CFI (cfiCond243) DPL0 load(1, XDATA, add(CFA_XSP16, literal(-2)))
        CFI (cfiCond243) DPH0 load(1, XDATA, add(CFA_XSP16, literal(-1)))
        CFI (cfiCond243) CFA_SP SP+0
        CFI (cfiCond243) CFA_XSP16 add(XSP16, 12)
        CFI Block cfiPicker244 Using cfiCommon1
        CFI (cfiPicker244) NoFunction
        CFI (cfiPicker244) Picker
        LCALL   ??SHIRSendDelay_10us?relay
        SETB    0x80.7
        CLR     0xb8.1
        RET
        CFI EndBlock cfiCond239
        CFI EndBlock cfiCond240
        CFI EndBlock cfiCond241
        CFI EndBlock cfiCond242
        CFI EndBlock cfiCond243
        CFI EndBlock cfiPicker244

        RSEG BANKED_CODE:CODE:NOROOT(0)
?Subroutine28:
        CFI Block cfiCond245 Using cfiCommon0
        CFI NoFunction
        CFI Conditional ??CrossCallReturnLabel_49
        CFI R6 load(1, XDATA, add(CFA_XSP16, literal(-12)))
        CFI VB load(1, XDATA, add(CFA_XSP16, literal(-11)))
        CFI V0 load(1, XDATA, add(CFA_XSP16, literal(-10)))
        CFI V1 load(1, XDATA, add(CFA_XSP16, literal(-9)))
        CFI V2 load(1, XDATA, add(CFA_XSP16, literal(-8)))
        CFI V3 load(1, XDATA, add(CFA_XSP16, literal(-7)))
        CFI R7 load(1, XDATA, add(CFA_XSP16, literal(-6)))
        CFI ?RET_LOW load(1, XDATA, add(CFA_XSP16, literal(-5)))
        CFI ?RET_HIGH load(1, XDATA, add(CFA_XSP16, literal(-4)))
        CFI ?BRET_EXT load(1, XDATA, add(CFA_XSP16, literal(-3)))
        CFI DPL0 load(1, XDATA, add(CFA_XSP16, literal(-2)))
        CFI DPH0 load(1, XDATA, add(CFA_XSP16, literal(-1)))
        CFI CFA_SP SP+0
        CFI CFA_XSP16 add(XSP16, 12)
        CFI Block cfiCond246 Using cfiCommon0
        CFI (cfiCond246) NoFunction
        CFI (cfiCond246) Conditional ??CrossCallReturnLabel_50
        CFI (cfiCond246) R6 load(1, XDATA, add(CFA_XSP16, literal(-12)))
        CFI (cfiCond246) VB load(1, XDATA, add(CFA_XSP16, literal(-11)))
        CFI (cfiCond246) V0 load(1, XDATA, add(CFA_XSP16, literal(-10)))
        CFI (cfiCond246) V1 load(1, XDATA, add(CFA_XSP16, literal(-9)))
        CFI (cfiCond246) V2 load(1, XDATA, add(CFA_XSP16, literal(-8)))
        CFI (cfiCond246) V3 load(1, XDATA, add(CFA_XSP16, literal(-7)))
        CFI (cfiCond246) R7 load(1, XDATA, add(CFA_XSP16, literal(-6)))
        CFI (cfiCond246) ?RET_LOW load(1, XDATA, add(CFA_XSP16, literal(-5)))
        CFI (cfiCond246) ?RET_HIGH load(1, XDATA, add(CFA_XSP16, literal(-4)))
        CFI (cfiCond246) ?BRET_EXT load(1, XDATA, add(CFA_XSP16, literal(-3)))
        CFI (cfiCond246) DPL0 load(1, XDATA, add(CFA_XSP16, literal(-2)))
        CFI (cfiCond246) DPH0 load(1, XDATA, add(CFA_XSP16, literal(-1)))
        CFI (cfiCond246) CFA_SP SP+0
        CFI (cfiCond246) CFA_XSP16 add(XSP16, 12)
        CFI Block cfiPicker247 Using cfiCommon1
        CFI (cfiPicker247) NoFunction
        CFI (cfiPicker247) Picker
        LCALL   ?Subroutine34 & 0xFFFF
??CrossCallReturnLabel_63:
        ; Setup parameters for call to function SHIRSendDelay_10us
        ; Setup parameters for call to function SHIRSendDelay_10us
        MOV     R2,#-0x74
        MOV     R3,#0x5
        RET
        CFI EndBlock cfiCond245
        CFI EndBlock cfiCond246
        CFI EndBlock cfiPicker247

        RSEG BANKED_CODE:CODE:NOROOT(0)
?Subroutine19:
        CFI Block cfiCond248 Using cfiCommon0
        CFI NoFunction
        CFI Conditional ??CrossCallReturnLabel_27
        CFI R6 load(1, XDATA, add(CFA_XSP16, literal(-12)))
        CFI VB load(1, XDATA, add(CFA_XSP16, literal(-11)))
        CFI V0 load(1, XDATA, add(CFA_XSP16, literal(-10)))
        CFI V1 load(1, XDATA, add(CFA_XSP16, literal(-9)))
        CFI V2 load(1, XDATA, add(CFA_XSP16, literal(-8)))
        CFI V3 load(1, XDATA, add(CFA_XSP16, literal(-7)))
        CFI R7 load(1, XDATA, add(CFA_XSP16, literal(-6)))
        CFI ?RET_LOW load(1, XDATA, add(CFA_XSP16, literal(-5)))
        CFI ?RET_HIGH load(1, XDATA, add(CFA_XSP16, literal(-4)))
        CFI ?BRET_EXT load(1, XDATA, add(CFA_XSP16, literal(-3)))
        CFI DPL0 load(1, XDATA, add(CFA_XSP16, literal(-2)))
        CFI DPH0 load(1, XDATA, add(CFA_XSP16, literal(-1)))
        CFI CFA_SP SP+0
        CFI CFA_XSP16 add(XSP16, 12)
        CFI Block cfiCond249 Using cfiCommon0
        CFI (cfiCond249) NoFunction
        CFI (cfiCond249) Conditional ??CrossCallReturnLabel_28
        CFI (cfiCond249) R6 load(1, XDATA, add(CFA_XSP16, literal(-12)))
        CFI (cfiCond249) VB load(1, XDATA, add(CFA_XSP16, literal(-11)))
        CFI (cfiCond249) V0 load(1, XDATA, add(CFA_XSP16, literal(-10)))
        CFI (cfiCond249) V1 load(1, XDATA, add(CFA_XSP16, literal(-9)))
        CFI (cfiCond249) V2 load(1, XDATA, add(CFA_XSP16, literal(-8)))
        CFI (cfiCond249) V3 load(1, XDATA, add(CFA_XSP16, literal(-7)))
        CFI (cfiCond249) R7 load(1, XDATA, add(CFA_XSP16, literal(-6)))
        CFI (cfiCond249) ?RET_LOW load(1, XDATA, add(CFA_XSP16, literal(-5)))
        CFI (cfiCond249) ?RET_HIGH load(1, XDATA, add(CFA_XSP16, literal(-4)))
        CFI (cfiCond249) ?BRET_EXT load(1, XDATA, add(CFA_XSP16, literal(-3)))
        CFI (cfiCond249) DPL0 load(1, XDATA, add(CFA_XSP16, literal(-2)))
        CFI (cfiCond249) DPH0 load(1, XDATA, add(CFA_XSP16, literal(-1)))
        CFI (cfiCond249) CFA_SP SP+0
        CFI (cfiCond249) CFA_XSP16 add(XSP16, 12)
        CFI Block cfiPicker250 Using cfiCommon1
        CFI (cfiPicker250) NoFunction
        CFI (cfiPicker250) Picker
        ADDC    A,R7
        MOV     DPH,A
        MOVX    A,@DPTR
        XRL     A,#0x31
        SETB    0x80.7
        SETB    0xb8.1
        MOV     R2,#-0x3e
        MOV     R3,#0x1
        RET
        CFI EndBlock cfiCond248
        CFI EndBlock cfiCond249
        CFI EndBlock cfiPicker250

        RSEG BANKED_CODE:CODE:NOROOT(0)
?Subroutine10:
        CFI Block cfiCond251 Using cfiCommon0
        CFI NoFunction
        CFI Conditional ??CrossCallReturnLabel_11
        CFI R6 load(1, XDATA, add(CFA_XSP16, literal(-12)))
        CFI VB load(1, XDATA, add(CFA_XSP16, literal(-11)))
        CFI V0 load(1, XDATA, add(CFA_XSP16, literal(-10)))
        CFI V1 load(1, XDATA, add(CFA_XSP16, literal(-9)))
        CFI V2 load(1, XDATA, add(CFA_XSP16, literal(-8)))
        CFI V3 load(1, XDATA, add(CFA_XSP16, literal(-7)))
        CFI R7 load(1, XDATA, add(CFA_XSP16, literal(-6)))
        CFI ?RET_LOW load(1, XDATA, add(CFA_XSP16, literal(-5)))
        CFI ?RET_HIGH load(1, XDATA, add(CFA_XSP16, literal(-4)))
        CFI ?BRET_EXT load(1, XDATA, add(CFA_XSP16, literal(-3)))
        CFI DPL0 load(1, XDATA, add(CFA_XSP16, literal(-2)))
        CFI DPH0 load(1, XDATA, add(CFA_XSP16, literal(-1)))
        CFI CFA_SP SP+0
        CFI CFA_XSP16 add(XSP16, 12)
        CFI Block cfiCond252 Using cfiCommon0
        CFI (cfiCond252) NoFunction
        CFI (cfiCond252) Conditional ??CrossCallReturnLabel_12
        CFI (cfiCond252) R6 load(1, XDATA, add(CFA_XSP16, literal(-12)))
        CFI (cfiCond252) VB load(1, XDATA, add(CFA_XSP16, literal(-11)))
        CFI (cfiCond252) V0 load(1, XDATA, add(CFA_XSP16, literal(-10)))
        CFI (cfiCond252) V1 load(1, XDATA, add(CFA_XSP16, literal(-9)))
        CFI (cfiCond252) V2 load(1, XDATA, add(CFA_XSP16, literal(-8)))
        CFI (cfiCond252) V3 load(1, XDATA, add(CFA_XSP16, literal(-7)))
        CFI (cfiCond252) R7 load(1, XDATA, add(CFA_XSP16, literal(-6)))
        CFI (cfiCond252) ?RET_LOW load(1, XDATA, add(CFA_XSP16, literal(-5)))
        CFI (cfiCond252) ?RET_HIGH load(1, XDATA, add(CFA_XSP16, literal(-4)))
        CFI (cfiCond252) ?BRET_EXT load(1, XDATA, add(CFA_XSP16, literal(-3)))
        CFI (cfiCond252) DPL0 load(1, XDATA, add(CFA_XSP16, literal(-2)))
        CFI (cfiCond252) DPH0 load(1, XDATA, add(CFA_XSP16, literal(-1)))
        CFI (cfiCond252) CFA_SP SP+0
        CFI (cfiCond252) CFA_XSP16 add(XSP16, 12)
        CFI Block cfiPicker253 Using cfiCommon1
        CFI (cfiPicker253) NoFunction
        CFI (cfiPicker253) Picker
        LCALL   ??SHIRSendDelay_10us?relay
        MOV     A,R6
        ADD     A,#0x1
        INC     R6
        MOV     A,R7
        ADDC    A,#0x0
        MOV     R7,A
        CLR     C
        MOV     A,R6
        RET
        CFI EndBlock cfiCond251
        CFI EndBlock cfiCond252
        CFI EndBlock cfiPicker253

        RSEG BANK_RELAYS:CODE:REORDER:NOROOT(0)
??SHIRSendDelay_10us?relay:
        LCALL   ?BDISPATCH
        DATA
        DC24    SHIRSendDelay_10us

        RSEG BANK_RELAYS:CODE:REORDER:NOROOT(0)
??SmartHomeApp_Init?relay:
        LCALL   ?BDISPATCH
        DATA
        DC24    SmartHomeApp_Init

        RSEG BANK_RELAYS:CODE:REORDER:NOROOT(0)
??SmartHomeApp_ProcessEvent?relay:
        LCALL   ?BDISPATCH
        DATA
        DC24    SmartHomeApp_ProcessEvent

        RSEG BANK_RELAYS:CODE:REORDER:NOROOT(0)
??SmartHomeApp_HandleKeys?relay:
        LCALL   ?BDISPATCH
        DATA
        DC24    SmartHomeApp_HandleKeys

        RSEG BANK_RELAYS:CODE:REORDER:NOROOT(0)
??callBackFunction?relay:
        LCALL   ?BDISPATCH
        DATA
        DC24    callBackFunction

        RSEG BANK_RELAYS:CODE:REORDER:NOROOT(0)
??SmartHomeApp_MessageMSGCB?relay:
        LCALL   ?BDISPATCH
        DATA
        DC24    SmartHomeApp_MessageMSGCB

        RSEG BANK_RELAYS:CODE:REORDER:NOROOT(0)
??SmartHomeApp_SendPeriodicMessage?relay:
        LCALL   ?BDISPATCH
        DATA
        DC24    SmartHomeApp_SendPeriodicMessage

        RSEG BANK_RELAYS:CODE:REORDER:NOROOT(0)
??SmartHomeApp_SendFlashMessage?relay:
        LCALL   ?BDISPATCH
        DATA
        DC24    SmartHomeApp_SendFlashMessage

        RSEG BANK_RELAYS:CODE:REORDER:NOROOT(0)
??SmartHomeApp_Send_P2P_Message?relay:
        LCALL   ?BDISPATCH
        DATA
        DC24    SmartHomeApp_Send_P2P_Message

        RSEG BANK_RELAYS:CODE:REORDER:NOROOT(0)
??SHEndPointSendMacAddrMsg?relay:
        LCALL   ?BDISPATCH
        DATA
        DC24    SHEndPointSendMacAddrMsg

        RSEG BANK_RELAYS:CODE:REORDER:NOROOT(0)
??SHCoordSendMacAddrMsg?relay:
        LCALL   ?BDISPATCH
        DATA
        DC24    SHCoordSendMacAddrMsg

        RSEG BANK_RELAYS:CODE:REORDER:NOROOT(0)
??SHEndPointSendDHT11Msg?relay:
        LCALL   ?BDISPATCH
        DATA
        DC24    SHEndPointSendDHT11Msg

        RSEG BANK_RELAYS:CODE:REORDER:NOROOT(0)
??SHEndPointSendFireAlarmMsg?relay:
        LCALL   ?BDISPATCH
        DATA
        DC24    SHEndPointSendFireAlarmMsg

        RSEG BANK_RELAYS:CODE:REORDER:NOROOT(0)
??SHEndPointSendSmokeAlarmMsg?relay:
        LCALL   ?BDISPATCH
        DATA
        DC24    SHEndPointSendSmokeAlarmMsg

        RSEG BANK_RELAYS:CODE:REORDER:NOROOT(0)
??SHCoordSendDHT11Msg?relay:
        LCALL   ?BDISPATCH
        DATA
        DC24    SHCoordSendDHT11Msg

        RSEG BANK_RELAYS:CODE:REORDER:NOROOT(0)
??SHCoordSendFireAlarmMsg?relay:
        LCALL   ?BDISPATCH
        DATA
        DC24    SHCoordSendFireAlarmMsg

        RSEG BANK_RELAYS:CODE:REORDER:NOROOT(0)
??SHCoordSendSmokeAlarmMsg?relay:
        LCALL   ?BDISPATCH
        DATA
        DC24    SHCoordSendSmokeAlarmMsg

        RSEG BANK_RELAYS:CODE:REORDER:NOROOT(0)
??SHCoordSendUartMsg?relay:
        LCALL   ?BDISPATCH
        DATA
        DC24    SHCoordSendUartMsg

        RSEG BANK_RELAYS:CODE:REORDER:NOROOT(0)
??SHCoordReveiceUartMsg?relay:
        LCALL   ?BDISPATCH
        DATA
        DC24    SHCoordReveiceUartMsg

        RSEG BANK_RELAYS:CODE:REORDER:NOROOT(0)
??SHEndPointReveiceAirConMsg?relay:
        LCALL   ?BDISPATCH
        DATA
        DC24    SHEndPointReveiceAirConMsg

        RSEG BANK_RELAYS:CODE:REORDER:NOROOT(0)
??SHIR_Sending?relay:
        LCALL   ?BDISPATCH
        DATA
        DC24    SHIR_Sending

        RSEG XDATA_ROM_C:CONST:REORDER:NOROOT(0)
        DATA8
`?<Constant "Group 1">`:
        DB "Group 1"

        RSEG XDATA_ROM_C:CONST:REORDER:NOROOT(0)
        DATA8
`?<Constant "SmartHomeApp">`:
        DB "SmartHomeApp"

        RSEG XDATA_ROM_C:CONST:REORDER:NOROOT(0)
        DATA32
`?<Constant "Rx:">`:
        DB "Rx:"

        RSEG XDATA_ROM_C:CONST:REORDER:NOROOT(0)
        DATA16
`?<Constant "\\n">`:
        DB "\012"

        RSEG XDATA_ROM_C:CONST:REORDER:NOROOT(0)
        DATA8
`?<Constant {0}>`:
        DB 0
        DB 0, 0, 0, 0, 0, 0, 0, 0
        DB 0, 0, 0, 0, 0, 0, 0, 0
        DB 0, 0, 0, 0, 0, 0, 0, 0
        DB 0, 0, 0, 0, 0, 0, 0, 0
        DB 0, 0, 0, 0, 0, 0, 0, 0
        DB 0, 0, 0, 0, 0, 0, 0, 0
        DB 0

        RSEG XDATA_ROM_C:CONST:REORDER:NOROOT(0)
        DATA32
__Constant_d:
        DD 13

        END
//  937 /*********************************************************************
//  938 *********************************************************************/
// 
// 3 014 bytes in segment BANKED_CODE
//   126 bytes in segment BANK_RELAYS
//     5 bytes in segment SFR_AN
//    97 bytes in segment XDATA_ROM_C
//    79 bytes in segment XDATA_Z
// 
// 3 140 bytes of CODE  memory
//    93 bytes of CONST memory (+ 4 bytes shared)
//     0 bytes of DATA  memory (+ 5 bytes shared)
//    79 bytes of XDATA memory
//
//Errors: none
//Warnings: 3
